ARM GAS  C:\Users\d4hhm\AppData\Local\Temp\ccjADZ95.s 			page 1


   1              		.syntax unified
   2              		.cpu cortex-m0
   3              		.fpu softvfp
   4              		.eabi_attribute 20, 1
   5              		.eabi_attribute 21, 1
   6              		.eabi_attribute 23, 3
   7              		.eabi_attribute 24, 1
   8              		.eabi_attribute 25, 1
   9              		.eabi_attribute 26, 1
  10              		.eabi_attribute 30, 6
  11              		.eabi_attribute 34, 0
  12              		.eabi_attribute 18, 4
  13              		.thumb
  14              		.syntax unified
  15              		.file	"SCB_1.c"
  16              		.text
  17              	.Ltext0:
  18              		.cfi_sections	.debug_frame
  19              		.global	SCB_1_initVar
  20              		.bss
  21              		.type	SCB_1_initVar, %object
  22              		.size	SCB_1_initVar, 1
  23              	SCB_1_initVar:
  24 0000 00       		.space	1
  25              		.global	SCB_1_customIntrHandler
  26 0001 000000   		.align	2
  27              		.type	SCB_1_customIntrHandler, %object
  28              		.size	SCB_1_customIntrHandler, 4
  29              	SCB_1_customIntrHandler:
  30 0004 00000000 		.space	4
  31              		.section	.text.SCB_1_Init,"ax",%progbits
  32              		.align	2
  33              		.global	SCB_1_Init
  34              		.code	16
  35              		.thumb_func
  36              		.type	SCB_1_Init, %function
  37              	SCB_1_Init:
  38              	.LFB2:
  39              		.file 1 "Generated_Source\\PSoC4\\SCB_1.c"
   1:Generated_Source\PSoC4/SCB_1.c **** /***************************************************************************//**
   2:Generated_Source\PSoC4/SCB_1.c **** * \file SCB_1.c
   3:Generated_Source\PSoC4/SCB_1.c **** * \version 4.0
   4:Generated_Source\PSoC4/SCB_1.c **** *
   5:Generated_Source\PSoC4/SCB_1.c **** * \brief
   6:Generated_Source\PSoC4/SCB_1.c **** *  This file provides the source code to the API for the SCB Component.
   7:Generated_Source\PSoC4/SCB_1.c **** *
   8:Generated_Source\PSoC4/SCB_1.c **** * Note:
   9:Generated_Source\PSoC4/SCB_1.c **** *
  10:Generated_Source\PSoC4/SCB_1.c **** *******************************************************************************
  11:Generated_Source\PSoC4/SCB_1.c **** * \copyright
  12:Generated_Source\PSoC4/SCB_1.c **** * Copyright 2013-2017, Cypress Semiconductor Corporation.  All rights reserved.
  13:Generated_Source\PSoC4/SCB_1.c **** * You may use this file only in accordance with the license, terms, conditions,
  14:Generated_Source\PSoC4/SCB_1.c **** * disclaimers, and limitations in the end user license agreement accompanying
  15:Generated_Source\PSoC4/SCB_1.c **** * the software package with which this file was provided.
  16:Generated_Source\PSoC4/SCB_1.c **** *******************************************************************************/
  17:Generated_Source\PSoC4/SCB_1.c **** 
  18:Generated_Source\PSoC4/SCB_1.c **** #include "SCB_1_PVT.h"
ARM GAS  C:\Users\d4hhm\AppData\Local\Temp\ccjADZ95.s 			page 2


  19:Generated_Source\PSoC4/SCB_1.c **** 
  20:Generated_Source\PSoC4/SCB_1.c **** #if (SCB_1_SCB_MODE_I2C_INC)
  21:Generated_Source\PSoC4/SCB_1.c ****     #include "SCB_1_I2C_PVT.h"
  22:Generated_Source\PSoC4/SCB_1.c **** #endif /* (SCB_1_SCB_MODE_I2C_INC) */
  23:Generated_Source\PSoC4/SCB_1.c **** 
  24:Generated_Source\PSoC4/SCB_1.c **** #if (SCB_1_SCB_MODE_EZI2C_INC)
  25:Generated_Source\PSoC4/SCB_1.c ****     #include "SCB_1_EZI2C_PVT.h"
  26:Generated_Source\PSoC4/SCB_1.c **** #endif /* (SCB_1_SCB_MODE_EZI2C_INC) */
  27:Generated_Source\PSoC4/SCB_1.c **** 
  28:Generated_Source\PSoC4/SCB_1.c **** #if (SCB_1_SCB_MODE_SPI_INC || SCB_1_SCB_MODE_UART_INC)
  29:Generated_Source\PSoC4/SCB_1.c ****     #include "SCB_1_SPI_UART_PVT.h"
  30:Generated_Source\PSoC4/SCB_1.c **** #endif /* (SCB_1_SCB_MODE_SPI_INC || SCB_1_SCB_MODE_UART_INC) */
  31:Generated_Source\PSoC4/SCB_1.c **** 
  32:Generated_Source\PSoC4/SCB_1.c **** 
  33:Generated_Source\PSoC4/SCB_1.c **** /***************************************
  34:Generated_Source\PSoC4/SCB_1.c **** *    Run Time Configuration Vars
  35:Generated_Source\PSoC4/SCB_1.c **** ***************************************/
  36:Generated_Source\PSoC4/SCB_1.c **** 
  37:Generated_Source\PSoC4/SCB_1.c **** /* Stores internal component configuration for Unconfigured mode */
  38:Generated_Source\PSoC4/SCB_1.c **** #if (SCB_1_SCB_MODE_UNCONFIG_CONST_CFG)
  39:Generated_Source\PSoC4/SCB_1.c ****     /* Common configuration variables */
  40:Generated_Source\PSoC4/SCB_1.c ****     uint8 SCB_1_scbMode = SCB_1_SCB_MODE_UNCONFIG;
  41:Generated_Source\PSoC4/SCB_1.c ****     uint8 SCB_1_scbEnableWake;
  42:Generated_Source\PSoC4/SCB_1.c ****     uint8 SCB_1_scbEnableIntr;
  43:Generated_Source\PSoC4/SCB_1.c **** 
  44:Generated_Source\PSoC4/SCB_1.c ****     /* I2C configuration variables */
  45:Generated_Source\PSoC4/SCB_1.c ****     uint8 SCB_1_mode;
  46:Generated_Source\PSoC4/SCB_1.c ****     uint8 SCB_1_acceptAddr;
  47:Generated_Source\PSoC4/SCB_1.c **** 
  48:Generated_Source\PSoC4/SCB_1.c ****     /* SPI/UART configuration variables */
  49:Generated_Source\PSoC4/SCB_1.c ****     volatile uint8 * SCB_1_rxBuffer;
  50:Generated_Source\PSoC4/SCB_1.c ****     uint8  SCB_1_rxDataBits;
  51:Generated_Source\PSoC4/SCB_1.c ****     uint32 SCB_1_rxBufferSize;
  52:Generated_Source\PSoC4/SCB_1.c **** 
  53:Generated_Source\PSoC4/SCB_1.c ****     volatile uint8 * SCB_1_txBuffer;
  54:Generated_Source\PSoC4/SCB_1.c ****     uint8  SCB_1_txDataBits;
  55:Generated_Source\PSoC4/SCB_1.c ****     uint32 SCB_1_txBufferSize;
  56:Generated_Source\PSoC4/SCB_1.c **** 
  57:Generated_Source\PSoC4/SCB_1.c ****     /* EZI2C configuration variables */
  58:Generated_Source\PSoC4/SCB_1.c ****     uint8 SCB_1_numberOfAddr;
  59:Generated_Source\PSoC4/SCB_1.c ****     uint8 SCB_1_subAddrSize;
  60:Generated_Source\PSoC4/SCB_1.c **** #endif /* (SCB_1_SCB_MODE_UNCONFIG_CONST_CFG) */
  61:Generated_Source\PSoC4/SCB_1.c **** 
  62:Generated_Source\PSoC4/SCB_1.c **** 
  63:Generated_Source\PSoC4/SCB_1.c **** /***************************************
  64:Generated_Source\PSoC4/SCB_1.c **** *     Common SCB Vars
  65:Generated_Source\PSoC4/SCB_1.c **** ***************************************/
  66:Generated_Source\PSoC4/SCB_1.c **** /**
  67:Generated_Source\PSoC4/SCB_1.c **** * \addtogroup group_general
  68:Generated_Source\PSoC4/SCB_1.c **** * \{
  69:Generated_Source\PSoC4/SCB_1.c **** */
  70:Generated_Source\PSoC4/SCB_1.c **** 
  71:Generated_Source\PSoC4/SCB_1.c **** /** SCB_1_initVar indicates whether the SCB_1 
  72:Generated_Source\PSoC4/SCB_1.c **** *  component has been initialized. The variable is initialized to 0 
  73:Generated_Source\PSoC4/SCB_1.c **** *  and set to 1 the first time SCB_Start() is called. This allows 
  74:Generated_Source\PSoC4/SCB_1.c **** *  the component to restart without reinitialization after the first 
  75:Generated_Source\PSoC4/SCB_1.c **** *  call to the SCB_1_Start() routine.
ARM GAS  C:\Users\d4hhm\AppData\Local\Temp\ccjADZ95.s 			page 3


  76:Generated_Source\PSoC4/SCB_1.c **** *
  77:Generated_Source\PSoC4/SCB_1.c **** *  If re-initialization of the component is required, then the 
  78:Generated_Source\PSoC4/SCB_1.c **** *  SCB_1_Init() function can be called before the 
  79:Generated_Source\PSoC4/SCB_1.c **** *  SCB_1_Start() or SCB_1_Enable() function.
  80:Generated_Source\PSoC4/SCB_1.c **** */
  81:Generated_Source\PSoC4/SCB_1.c **** uint8 SCB_1_initVar = 0u;
  82:Generated_Source\PSoC4/SCB_1.c **** 
  83:Generated_Source\PSoC4/SCB_1.c **** 
  84:Generated_Source\PSoC4/SCB_1.c **** #if (! (SCB_1_SCB_MODE_I2C_CONST_CFG || \
  85:Generated_Source\PSoC4/SCB_1.c ****         SCB_1_SCB_MODE_EZI2C_CONST_CFG))
  86:Generated_Source\PSoC4/SCB_1.c ****     /** This global variable stores TX interrupt sources after 
  87:Generated_Source\PSoC4/SCB_1.c ****     * SCB_1_Stop() is called. Only these TX interrupt sources 
  88:Generated_Source\PSoC4/SCB_1.c ****     * will be restored on a subsequent SCB_1_Enable() call.
  89:Generated_Source\PSoC4/SCB_1.c ****     */
  90:Generated_Source\PSoC4/SCB_1.c ****     uint16 SCB_1_IntrTxMask = 0u;
  91:Generated_Source\PSoC4/SCB_1.c **** #endif /* (! (SCB_1_SCB_MODE_I2C_CONST_CFG || \
  92:Generated_Source\PSoC4/SCB_1.c ****               SCB_1_SCB_MODE_EZI2C_CONST_CFG)) */
  93:Generated_Source\PSoC4/SCB_1.c **** /** \} globals */
  94:Generated_Source\PSoC4/SCB_1.c **** 
  95:Generated_Source\PSoC4/SCB_1.c **** #if (SCB_1_SCB_IRQ_INTERNAL)
  96:Generated_Source\PSoC4/SCB_1.c **** #if !defined (CY_REMOVE_SCB_1_CUSTOM_INTR_HANDLER)
  97:Generated_Source\PSoC4/SCB_1.c ****     void (*SCB_1_customIntrHandler)(void) = NULL;
  98:Generated_Source\PSoC4/SCB_1.c **** #endif /* !defined (CY_REMOVE_SCB_1_CUSTOM_INTR_HANDLER) */
  99:Generated_Source\PSoC4/SCB_1.c **** #endif /* (SCB_1_SCB_IRQ_INTERNAL) */
 100:Generated_Source\PSoC4/SCB_1.c **** 
 101:Generated_Source\PSoC4/SCB_1.c **** 
 102:Generated_Source\PSoC4/SCB_1.c **** /***************************************
 103:Generated_Source\PSoC4/SCB_1.c **** *    Private Function Prototypes
 104:Generated_Source\PSoC4/SCB_1.c **** ***************************************/
 105:Generated_Source\PSoC4/SCB_1.c **** 
 106:Generated_Source\PSoC4/SCB_1.c **** static void SCB_1_ScbEnableIntr(void);
 107:Generated_Source\PSoC4/SCB_1.c **** static void SCB_1_ScbModeStop(void);
 108:Generated_Source\PSoC4/SCB_1.c **** static void SCB_1_ScbModePostEnable(void);
 109:Generated_Source\PSoC4/SCB_1.c **** 
 110:Generated_Source\PSoC4/SCB_1.c **** 
 111:Generated_Source\PSoC4/SCB_1.c **** /*******************************************************************************
 112:Generated_Source\PSoC4/SCB_1.c **** * Function Name: SCB_1_Init
 113:Generated_Source\PSoC4/SCB_1.c **** ****************************************************************************//**
 114:Generated_Source\PSoC4/SCB_1.c **** *
 115:Generated_Source\PSoC4/SCB_1.c **** *  Initializes the SCB_1 component to operate in one of the selected
 116:Generated_Source\PSoC4/SCB_1.c **** *  configurations: I2C, SPI, UART or EZI2C.
 117:Generated_Source\PSoC4/SCB_1.c **** *  When the configuration is set to "Unconfigured SCB", this function does
 118:Generated_Source\PSoC4/SCB_1.c **** *  not do any initialization. Use mode-specific initialization APIs instead:
 119:Generated_Source\PSoC4/SCB_1.c **** *  SCB_1_I2CInit, SCB_1_SpiInit, 
 120:Generated_Source\PSoC4/SCB_1.c **** *  SCB_1_UartInit or SCB_1_EzI2CInit.
 121:Generated_Source\PSoC4/SCB_1.c **** *
 122:Generated_Source\PSoC4/SCB_1.c **** *******************************************************************************/
 123:Generated_Source\PSoC4/SCB_1.c **** void SCB_1_Init(void)
 124:Generated_Source\PSoC4/SCB_1.c **** {
  40              		.loc 1 124 0
  41              		.cfi_startproc
  42              		@ args = 0, pretend = 0, frame = 0
  43              		@ frame_needed = 1, uses_anonymous_args = 0
  44 0000 80B5     		push	{r7, lr}
  45              		.cfi_def_cfa_offset 8
  46              		.cfi_offset 7, -8
  47              		.cfi_offset 14, -4
ARM GAS  C:\Users\d4hhm\AppData\Local\Temp\ccjADZ95.s 			page 4


  48 0002 00AF     		add	r7, sp, #0
  49              		.cfi_def_cfa_register 7
 125:Generated_Source\PSoC4/SCB_1.c **** #if (SCB_1_SCB_MODE_UNCONFIG_CONST_CFG)
 126:Generated_Source\PSoC4/SCB_1.c ****     if (SCB_1_SCB_MODE_UNCONFIG_RUNTM_CFG)
 127:Generated_Source\PSoC4/SCB_1.c ****     {
 128:Generated_Source\PSoC4/SCB_1.c ****         SCB_1_initVar = 0u;
 129:Generated_Source\PSoC4/SCB_1.c ****     }
 130:Generated_Source\PSoC4/SCB_1.c ****     else
 131:Generated_Source\PSoC4/SCB_1.c ****     {
 132:Generated_Source\PSoC4/SCB_1.c ****         /* Initialization was done before this function call */
 133:Generated_Source\PSoC4/SCB_1.c ****     }
 134:Generated_Source\PSoC4/SCB_1.c **** 
 135:Generated_Source\PSoC4/SCB_1.c **** #elif (SCB_1_SCB_MODE_I2C_CONST_CFG)
 136:Generated_Source\PSoC4/SCB_1.c ****     SCB_1_I2CInit();
  50              		.loc 1 136 0
  51 0004 FFF7FEFF 		bl	SCB_1_I2CInit
 137:Generated_Source\PSoC4/SCB_1.c **** 
 138:Generated_Source\PSoC4/SCB_1.c **** #elif (SCB_1_SCB_MODE_SPI_CONST_CFG)
 139:Generated_Source\PSoC4/SCB_1.c ****     SCB_1_SpiInit();
 140:Generated_Source\PSoC4/SCB_1.c **** 
 141:Generated_Source\PSoC4/SCB_1.c **** #elif (SCB_1_SCB_MODE_UART_CONST_CFG)
 142:Generated_Source\PSoC4/SCB_1.c ****     SCB_1_UartInit();
 143:Generated_Source\PSoC4/SCB_1.c **** 
 144:Generated_Source\PSoC4/SCB_1.c **** #elif (SCB_1_SCB_MODE_EZI2C_CONST_CFG)
 145:Generated_Source\PSoC4/SCB_1.c ****     SCB_1_EzI2CInit();
 146:Generated_Source\PSoC4/SCB_1.c **** 
 147:Generated_Source\PSoC4/SCB_1.c **** #endif /* (SCB_1_SCB_MODE_UNCONFIG_CONST_CFG) */
 148:Generated_Source\PSoC4/SCB_1.c **** }
  52              		.loc 1 148 0
  53 0008 C046     		nop
  54 000a BD46     		mov	sp, r7
  55              		@ sp needed
  56 000c 80BD     		pop	{r7, pc}
  57              		.cfi_endproc
  58              	.LFE2:
  59              		.size	SCB_1_Init, .-SCB_1_Init
  60 000e C046     		.section	.text.SCB_1_Enable,"ax",%progbits
  61              		.align	2
  62              		.global	SCB_1_Enable
  63              		.code	16
  64              		.thumb_func
  65              		.type	SCB_1_Enable, %function
  66              	SCB_1_Enable:
  67              	.LFB3:
 149:Generated_Source\PSoC4/SCB_1.c **** 
 150:Generated_Source\PSoC4/SCB_1.c **** 
 151:Generated_Source\PSoC4/SCB_1.c **** /*******************************************************************************
 152:Generated_Source\PSoC4/SCB_1.c **** * Function Name: SCB_1_Enable
 153:Generated_Source\PSoC4/SCB_1.c **** ****************************************************************************//**
 154:Generated_Source\PSoC4/SCB_1.c **** *
 155:Generated_Source\PSoC4/SCB_1.c **** *  Enables SCB_1 component operation: activates the hardware and 
 156:Generated_Source\PSoC4/SCB_1.c **** *  internal interrupt. It also restores TX interrupt sources disabled after the 
 157:Generated_Source\PSoC4/SCB_1.c **** *  SCB_1_Stop() function was called (note that level-triggered TX 
 158:Generated_Source\PSoC4/SCB_1.c **** *  interrupt sources remain disabled to not cause code lock-up).
 159:Generated_Source\PSoC4/SCB_1.c **** *  For I2C and EZI2C modes the interrupt is internal and mandatory for 
 160:Generated_Source\PSoC4/SCB_1.c **** *  operation. For SPI and UART modes the interrupt can be configured as none, 
 161:Generated_Source\PSoC4/SCB_1.c **** *  internal or external.
ARM GAS  C:\Users\d4hhm\AppData\Local\Temp\ccjADZ95.s 			page 5


 162:Generated_Source\PSoC4/SCB_1.c **** *  The SCB_1 configuration should be not changed when the component
 163:Generated_Source\PSoC4/SCB_1.c **** *  is enabled. Any configuration changes should be made after disabling the 
 164:Generated_Source\PSoC4/SCB_1.c **** *  component.
 165:Generated_Source\PSoC4/SCB_1.c **** *  When configuration is set to “Unconfigured SCB_1”, the component 
 166:Generated_Source\PSoC4/SCB_1.c **** *  must first be initialized to operate in one of the following configurations: 
 167:Generated_Source\PSoC4/SCB_1.c **** *  I2C, SPI, UART or EZ I2C, using the mode-specific initialization API. 
 168:Generated_Source\PSoC4/SCB_1.c **** *  Otherwise this function does not enable the component.
 169:Generated_Source\PSoC4/SCB_1.c **** *
 170:Generated_Source\PSoC4/SCB_1.c **** *******************************************************************************/
 171:Generated_Source\PSoC4/SCB_1.c **** void SCB_1_Enable(void)
 172:Generated_Source\PSoC4/SCB_1.c **** {
  68              		.loc 1 172 0
  69              		.cfi_startproc
  70              		@ args = 0, pretend = 0, frame = 0
  71              		@ frame_needed = 1, uses_anonymous_args = 0
  72 0000 80B5     		push	{r7, lr}
  73              		.cfi_def_cfa_offset 8
  74              		.cfi_offset 7, -8
  75              		.cfi_offset 14, -4
  76 0002 00AF     		add	r7, sp, #0
  77              		.cfi_def_cfa_register 7
 173:Generated_Source\PSoC4/SCB_1.c **** #if (SCB_1_SCB_MODE_UNCONFIG_CONST_CFG)
 174:Generated_Source\PSoC4/SCB_1.c ****     /* Enable SCB block, only if it is already configured */
 175:Generated_Source\PSoC4/SCB_1.c ****     if (!SCB_1_SCB_MODE_UNCONFIG_RUNTM_CFG)
 176:Generated_Source\PSoC4/SCB_1.c ****     {
 177:Generated_Source\PSoC4/SCB_1.c ****         SCB_1_CTRL_REG |= SCB_1_CTRL_ENABLED;
 178:Generated_Source\PSoC4/SCB_1.c **** 
 179:Generated_Source\PSoC4/SCB_1.c ****         SCB_1_ScbEnableIntr();
 180:Generated_Source\PSoC4/SCB_1.c **** 
 181:Generated_Source\PSoC4/SCB_1.c ****         /* Call PostEnable function specific to current operation mode */
 182:Generated_Source\PSoC4/SCB_1.c ****         SCB_1_ScbModePostEnable();
 183:Generated_Source\PSoC4/SCB_1.c ****     }
 184:Generated_Source\PSoC4/SCB_1.c **** #else
 185:Generated_Source\PSoC4/SCB_1.c ****     SCB_1_CTRL_REG |= SCB_1_CTRL_ENABLED;
  78              		.loc 1 185 0
  79 0004 064B     		ldr	r3, .L3
  80 0006 064A     		ldr	r2, .L3
  81 0008 1268     		ldr	r2, [r2]
  82 000a 8021     		movs	r1, #128
  83 000c 0906     		lsls	r1, r1, #24
  84 000e 0A43     		orrs	r2, r1
  85 0010 1A60     		str	r2, [r3]
 186:Generated_Source\PSoC4/SCB_1.c **** 
 187:Generated_Source\PSoC4/SCB_1.c ****     SCB_1_ScbEnableIntr();
  86              		.loc 1 187 0
  87 0012 FFF7FEFF 		bl	SCB_1_ScbEnableIntr
 188:Generated_Source\PSoC4/SCB_1.c **** 
 189:Generated_Source\PSoC4/SCB_1.c ****     /* Call PostEnable function specific to current operation mode */
 190:Generated_Source\PSoC4/SCB_1.c ****     SCB_1_ScbModePostEnable();
  88              		.loc 1 190 0
  89 0016 FFF7FEFF 		bl	SCB_1_ScbModePostEnable
 191:Generated_Source\PSoC4/SCB_1.c **** #endif /* (SCB_1_SCB_MODE_UNCONFIG_CONST_CFG) */
 192:Generated_Source\PSoC4/SCB_1.c **** }
  90              		.loc 1 192 0
  91 001a C046     		nop
  92 001c BD46     		mov	sp, r7
  93              		@ sp needed
ARM GAS  C:\Users\d4hhm\AppData\Local\Temp\ccjADZ95.s 			page 6


  94 001e 80BD     		pop	{r7, pc}
  95              	.L4:
  96              		.align	2
  97              	.L3:
  98 0020 00002440 		.word	1076101120
  99              		.cfi_endproc
 100              	.LFE3:
 101              		.size	SCB_1_Enable, .-SCB_1_Enable
 102              		.section	.text.SCB_1_Start,"ax",%progbits
 103              		.align	2
 104              		.global	SCB_1_Start
 105              		.code	16
 106              		.thumb_func
 107              		.type	SCB_1_Start, %function
 108              	SCB_1_Start:
 109              	.LFB4:
 193:Generated_Source\PSoC4/SCB_1.c **** 
 194:Generated_Source\PSoC4/SCB_1.c **** 
 195:Generated_Source\PSoC4/SCB_1.c **** /*******************************************************************************
 196:Generated_Source\PSoC4/SCB_1.c **** * Function Name: SCB_1_Start
 197:Generated_Source\PSoC4/SCB_1.c **** ****************************************************************************//**
 198:Generated_Source\PSoC4/SCB_1.c **** *
 199:Generated_Source\PSoC4/SCB_1.c **** *  Invokes SCB_1_Init() and SCB_1_Enable().
 200:Generated_Source\PSoC4/SCB_1.c **** *  After this function call, the component is enabled and ready for operation.
 201:Generated_Source\PSoC4/SCB_1.c **** *  When configuration is set to "Unconfigured SCB", the component must first be
 202:Generated_Source\PSoC4/SCB_1.c **** *  initialized to operate in one of the following configurations: I2C, SPI, UART
 203:Generated_Source\PSoC4/SCB_1.c **** *  or EZI2C. Otherwise this function does not enable the component.
 204:Generated_Source\PSoC4/SCB_1.c **** *
 205:Generated_Source\PSoC4/SCB_1.c **** * \globalvars
 206:Generated_Source\PSoC4/SCB_1.c **** *  SCB_1_initVar - used to check initial configuration, modified
 207:Generated_Source\PSoC4/SCB_1.c **** *  on first function call.
 208:Generated_Source\PSoC4/SCB_1.c **** *
 209:Generated_Source\PSoC4/SCB_1.c **** *******************************************************************************/
 210:Generated_Source\PSoC4/SCB_1.c **** void SCB_1_Start(void)
 211:Generated_Source\PSoC4/SCB_1.c **** {
 110              		.loc 1 211 0
 111              		.cfi_startproc
 112              		@ args = 0, pretend = 0, frame = 0
 113              		@ frame_needed = 1, uses_anonymous_args = 0
 114 0000 80B5     		push	{r7, lr}
 115              		.cfi_def_cfa_offset 8
 116              		.cfi_offset 7, -8
 117              		.cfi_offset 14, -4
 118 0002 00AF     		add	r7, sp, #0
 119              		.cfi_def_cfa_register 7
 212:Generated_Source\PSoC4/SCB_1.c ****     if (0u == SCB_1_initVar)
 120              		.loc 1 212 0
 121 0004 064B     		ldr	r3, .L7
 122 0006 1B78     		ldrb	r3, [r3]
 123 0008 002B     		cmp	r3, #0
 124 000a 04D1     		bne	.L6
 213:Generated_Source\PSoC4/SCB_1.c ****     {
 214:Generated_Source\PSoC4/SCB_1.c ****         SCB_1_Init();
 125              		.loc 1 214 0
 126 000c FFF7FEFF 		bl	SCB_1_Init
 215:Generated_Source\PSoC4/SCB_1.c ****         SCB_1_initVar = 1u; /* Component was initialized */
 127              		.loc 1 215 0
ARM GAS  C:\Users\d4hhm\AppData\Local\Temp\ccjADZ95.s 			page 7


 128 0010 034B     		ldr	r3, .L7
 129 0012 0122     		movs	r2, #1
 130 0014 1A70     		strb	r2, [r3]
 131              	.L6:
 216:Generated_Source\PSoC4/SCB_1.c ****     }
 217:Generated_Source\PSoC4/SCB_1.c **** 
 218:Generated_Source\PSoC4/SCB_1.c ****     SCB_1_Enable();
 132              		.loc 1 218 0
 133 0016 FFF7FEFF 		bl	SCB_1_Enable
 219:Generated_Source\PSoC4/SCB_1.c **** }
 134              		.loc 1 219 0
 135 001a C046     		nop
 136 001c BD46     		mov	sp, r7
 137              		@ sp needed
 138 001e 80BD     		pop	{r7, pc}
 139              	.L8:
 140              		.align	2
 141              	.L7:
 142 0020 00000000 		.word	SCB_1_initVar
 143              		.cfi_endproc
 144              	.LFE4:
 145              		.size	SCB_1_Start, .-SCB_1_Start
 146              		.section	.text.SCB_1_Stop,"ax",%progbits
 147              		.align	2
 148              		.global	SCB_1_Stop
 149              		.code	16
 150              		.thumb_func
 151              		.type	SCB_1_Stop, %function
 152              	SCB_1_Stop:
 153              	.LFB5:
 220:Generated_Source\PSoC4/SCB_1.c **** 
 221:Generated_Source\PSoC4/SCB_1.c **** 
 222:Generated_Source\PSoC4/SCB_1.c **** /*******************************************************************************
 223:Generated_Source\PSoC4/SCB_1.c **** * Function Name: SCB_1_Stop
 224:Generated_Source\PSoC4/SCB_1.c **** ****************************************************************************//**
 225:Generated_Source\PSoC4/SCB_1.c **** *
 226:Generated_Source\PSoC4/SCB_1.c **** *  Disables the SCB_1 component: disable the hardware and internal 
 227:Generated_Source\PSoC4/SCB_1.c **** *  interrupt. It also disables all TX interrupt sources so as not to cause an 
 228:Generated_Source\PSoC4/SCB_1.c **** *  unexpected interrupt trigger because after the component is enabled, the 
 229:Generated_Source\PSoC4/SCB_1.c **** *  TX FIFO is empty.
 230:Generated_Source\PSoC4/SCB_1.c **** *  Refer to the function SCB_1_Enable() for the interrupt 
 231:Generated_Source\PSoC4/SCB_1.c **** *  configuration details.
 232:Generated_Source\PSoC4/SCB_1.c **** *  This function disables the SCB component without checking to see if 
 233:Generated_Source\PSoC4/SCB_1.c **** *  communication is in progress. Before calling this function it may be 
 234:Generated_Source\PSoC4/SCB_1.c **** *  necessary to check the status of communication to make sure communication 
 235:Generated_Source\PSoC4/SCB_1.c **** *  is complete. If this is not done then communication could be stopped mid 
 236:Generated_Source\PSoC4/SCB_1.c **** *  byte and corrupted data could result.
 237:Generated_Source\PSoC4/SCB_1.c **** *
 238:Generated_Source\PSoC4/SCB_1.c **** *******************************************************************************/
 239:Generated_Source\PSoC4/SCB_1.c **** void SCB_1_Stop(void)
 240:Generated_Source\PSoC4/SCB_1.c **** {
 154              		.loc 1 240 0
 155              		.cfi_startproc
 156              		@ args = 0, pretend = 0, frame = 0
 157              		@ frame_needed = 1, uses_anonymous_args = 0
 158 0000 80B5     		push	{r7, lr}
 159              		.cfi_def_cfa_offset 8
ARM GAS  C:\Users\d4hhm\AppData\Local\Temp\ccjADZ95.s 			page 8


 160              		.cfi_offset 7, -8
 161              		.cfi_offset 14, -4
 162 0002 00AF     		add	r7, sp, #0
 163              		.cfi_def_cfa_register 7
 241:Generated_Source\PSoC4/SCB_1.c **** #if (SCB_1_SCB_IRQ_INTERNAL)
 242:Generated_Source\PSoC4/SCB_1.c ****     SCB_1_DisableInt();
 164              		.loc 1 242 0
 165 0004 0920     		movs	r0, #9
 166 0006 FFF7FEFF 		bl	CyIntDisable
 243:Generated_Source\PSoC4/SCB_1.c **** #endif /* (SCB_1_SCB_IRQ_INTERNAL) */
 244:Generated_Source\PSoC4/SCB_1.c **** 
 245:Generated_Source\PSoC4/SCB_1.c ****     /* Call Stop function specific to current operation mode */
 246:Generated_Source\PSoC4/SCB_1.c ****     SCB_1_ScbModeStop();
 167              		.loc 1 246 0
 168 000a FFF7FEFF 		bl	SCB_1_ScbModeStop
 247:Generated_Source\PSoC4/SCB_1.c **** 
 248:Generated_Source\PSoC4/SCB_1.c ****     /* Disable SCB IP */
 249:Generated_Source\PSoC4/SCB_1.c ****     SCB_1_CTRL_REG &= (uint32) ~SCB_1_CTRL_ENABLED;
 169              		.loc 1 249 0
 170 000e 074B     		ldr	r3, .L10
 171 0010 064A     		ldr	r2, .L10
 172 0012 1268     		ldr	r2, [r2]
 173 0014 5200     		lsls	r2, r2, #1
 174 0016 5208     		lsrs	r2, r2, #1
 175 0018 1A60     		str	r2, [r3]
 250:Generated_Source\PSoC4/SCB_1.c **** 
 251:Generated_Source\PSoC4/SCB_1.c ****     /* Disable all TX interrupt sources so as not to cause an unexpected
 252:Generated_Source\PSoC4/SCB_1.c ****     * interrupt trigger after the component will be enabled because the 
 253:Generated_Source\PSoC4/SCB_1.c ****     * TX FIFO is empty.
 254:Generated_Source\PSoC4/SCB_1.c ****     * For SCB IP v0, it is critical as it does not mask-out interrupt
 255:Generated_Source\PSoC4/SCB_1.c ****     * sources when it is disabled. This can cause a code lock-up in the
 256:Generated_Source\PSoC4/SCB_1.c ****     * interrupt handler because TX FIFO cannot be loaded after the block
 257:Generated_Source\PSoC4/SCB_1.c ****     * is disabled.
 258:Generated_Source\PSoC4/SCB_1.c ****     */
 259:Generated_Source\PSoC4/SCB_1.c ****     SCB_1_SetTxInterruptMode(SCB_1_NO_INTR_SOURCES);
 176              		.loc 1 259 0
 177 001a 054B     		ldr	r3, .L10+4
 178 001c 0022     		movs	r2, #0
 179 001e 1A60     		str	r2, [r3]
 260:Generated_Source\PSoC4/SCB_1.c **** 
 261:Generated_Source\PSoC4/SCB_1.c **** #if (SCB_1_SCB_IRQ_INTERNAL)
 262:Generated_Source\PSoC4/SCB_1.c ****     SCB_1_ClearPendingInt();
 180              		.loc 1 262 0
 181 0020 0920     		movs	r0, #9
 182 0022 FFF7FEFF 		bl	CyIntClearPending
 263:Generated_Source\PSoC4/SCB_1.c **** #endif /* (SCB_1_SCB_IRQ_INTERNAL) */
 264:Generated_Source\PSoC4/SCB_1.c **** }
 183              		.loc 1 264 0
 184 0026 C046     		nop
 185 0028 BD46     		mov	sp, r7
 186              		@ sp needed
 187 002a 80BD     		pop	{r7, pc}
 188              	.L11:
 189              		.align	2
 190              	.L10:
 191 002c 00002440 		.word	1076101120
 192 0030 880F2440 		.word	1076105096
ARM GAS  C:\Users\d4hhm\AppData\Local\Temp\ccjADZ95.s 			page 9


 193              		.cfi_endproc
 194              	.LFE5:
 195              		.size	SCB_1_Stop, .-SCB_1_Stop
 196              		.section	.text.SCB_1_SetRxFifoLevel,"ax",%progbits
 197              		.align	2
 198              		.global	SCB_1_SetRxFifoLevel
 199              		.code	16
 200              		.thumb_func
 201              		.type	SCB_1_SetRxFifoLevel, %function
 202              	SCB_1_SetRxFifoLevel:
 203              	.LFB6:
 265:Generated_Source\PSoC4/SCB_1.c **** 
 266:Generated_Source\PSoC4/SCB_1.c **** 
 267:Generated_Source\PSoC4/SCB_1.c **** /*******************************************************************************
 268:Generated_Source\PSoC4/SCB_1.c **** * Function Name: SCB_1_SetRxFifoLevel
 269:Generated_Source\PSoC4/SCB_1.c **** ****************************************************************************//**
 270:Generated_Source\PSoC4/SCB_1.c **** *
 271:Generated_Source\PSoC4/SCB_1.c **** *  Sets level in the RX FIFO to generate a RX level interrupt.
 272:Generated_Source\PSoC4/SCB_1.c **** *  When the RX FIFO has more entries than the RX FIFO level an RX level
 273:Generated_Source\PSoC4/SCB_1.c **** *  interrupt request is generated.
 274:Generated_Source\PSoC4/SCB_1.c **** *
 275:Generated_Source\PSoC4/SCB_1.c **** *  \param level: Level in the RX FIFO to generate RX level interrupt.
 276:Generated_Source\PSoC4/SCB_1.c **** *   The range of valid level values is between 0 and RX FIFO depth - 1.
 277:Generated_Source\PSoC4/SCB_1.c **** *
 278:Generated_Source\PSoC4/SCB_1.c **** *******************************************************************************/
 279:Generated_Source\PSoC4/SCB_1.c **** void SCB_1_SetRxFifoLevel(uint32 level)
 280:Generated_Source\PSoC4/SCB_1.c **** {
 204              		.loc 1 280 0
 205              		.cfi_startproc
 206              		@ args = 0, pretend = 0, frame = 16
 207              		@ frame_needed = 1, uses_anonymous_args = 0
 208 0000 80B5     		push	{r7, lr}
 209              		.cfi_def_cfa_offset 8
 210              		.cfi_offset 7, -8
 211              		.cfi_offset 14, -4
 212 0002 84B0     		sub	sp, sp, #16
 213              		.cfi_def_cfa_offset 24
 214 0004 00AF     		add	r7, sp, #0
 215              		.cfi_def_cfa_register 7
 216 0006 7860     		str	r0, [r7, #4]
 281:Generated_Source\PSoC4/SCB_1.c ****     uint32 rxFifoCtrl;
 282:Generated_Source\PSoC4/SCB_1.c **** 
 283:Generated_Source\PSoC4/SCB_1.c ****     rxFifoCtrl = SCB_1_RX_FIFO_CTRL_REG;
 217              		.loc 1 283 0
 218 0008 094B     		ldr	r3, .L13
 219 000a 1B68     		ldr	r3, [r3]
 220 000c FB60     		str	r3, [r7, #12]
 284:Generated_Source\PSoC4/SCB_1.c **** 
 285:Generated_Source\PSoC4/SCB_1.c ****     rxFifoCtrl &= ((uint32) ~SCB_1_RX_FIFO_CTRL_TRIGGER_LEVEL_MASK); /* Clear level mask bits */
 221              		.loc 1 285 0
 222 000e FB68     		ldr	r3, [r7, #12]
 223 0010 0F22     		movs	r2, #15
 224 0012 9343     		bics	r3, r2
 225 0014 FB60     		str	r3, [r7, #12]
 286:Generated_Source\PSoC4/SCB_1.c ****     rxFifoCtrl |= ((uint32) (SCB_1_RX_FIFO_CTRL_TRIGGER_LEVEL_MASK & level));
 226              		.loc 1 286 0
 227 0016 7B68     		ldr	r3, [r7, #4]
ARM GAS  C:\Users\d4hhm\AppData\Local\Temp\ccjADZ95.s 			page 10


 228 0018 0F22     		movs	r2, #15
 229 001a 1340     		ands	r3, r2
 230 001c FA68     		ldr	r2, [r7, #12]
 231 001e 1343     		orrs	r3, r2
 232 0020 FB60     		str	r3, [r7, #12]
 287:Generated_Source\PSoC4/SCB_1.c **** 
 288:Generated_Source\PSoC4/SCB_1.c ****     SCB_1_RX_FIFO_CTRL_REG = rxFifoCtrl;
 233              		.loc 1 288 0
 234 0022 034B     		ldr	r3, .L13
 235 0024 FA68     		ldr	r2, [r7, #12]
 236 0026 1A60     		str	r2, [r3]
 289:Generated_Source\PSoC4/SCB_1.c **** }
 237              		.loc 1 289 0
 238 0028 C046     		nop
 239 002a BD46     		mov	sp, r7
 240 002c 04B0     		add	sp, sp, #16
 241              		@ sp needed
 242 002e 80BD     		pop	{r7, pc}
 243              	.L14:
 244              		.align	2
 245              	.L13:
 246 0030 04032440 		.word	1076101892
 247              		.cfi_endproc
 248              	.LFE6:
 249              		.size	SCB_1_SetRxFifoLevel, .-SCB_1_SetRxFifoLevel
 250              		.section	.text.SCB_1_SetTxFifoLevel,"ax",%progbits
 251              		.align	2
 252              		.global	SCB_1_SetTxFifoLevel
 253              		.code	16
 254              		.thumb_func
 255              		.type	SCB_1_SetTxFifoLevel, %function
 256              	SCB_1_SetTxFifoLevel:
 257              	.LFB7:
 290:Generated_Source\PSoC4/SCB_1.c **** 
 291:Generated_Source\PSoC4/SCB_1.c **** 
 292:Generated_Source\PSoC4/SCB_1.c **** /*******************************************************************************
 293:Generated_Source\PSoC4/SCB_1.c **** * Function Name: SCB_1_SetTxFifoLevel
 294:Generated_Source\PSoC4/SCB_1.c **** ****************************************************************************//**
 295:Generated_Source\PSoC4/SCB_1.c **** *
 296:Generated_Source\PSoC4/SCB_1.c **** *  Sets level in the TX FIFO to generate a TX level interrupt.
 297:Generated_Source\PSoC4/SCB_1.c **** *  When the TX FIFO has less entries than the TX FIFO level an TX level
 298:Generated_Source\PSoC4/SCB_1.c **** *  interrupt request is generated.
 299:Generated_Source\PSoC4/SCB_1.c **** *
 300:Generated_Source\PSoC4/SCB_1.c **** *  \param level: Level in the TX FIFO to generate TX level interrupt.
 301:Generated_Source\PSoC4/SCB_1.c **** *   The range of valid level values is between 0 and TX FIFO depth - 1.
 302:Generated_Source\PSoC4/SCB_1.c **** *
 303:Generated_Source\PSoC4/SCB_1.c **** *******************************************************************************/
 304:Generated_Source\PSoC4/SCB_1.c **** void SCB_1_SetTxFifoLevel(uint32 level)
 305:Generated_Source\PSoC4/SCB_1.c **** {
 258              		.loc 1 305 0
 259              		.cfi_startproc
 260              		@ args = 0, pretend = 0, frame = 16
 261              		@ frame_needed = 1, uses_anonymous_args = 0
 262 0000 80B5     		push	{r7, lr}
 263              		.cfi_def_cfa_offset 8
 264              		.cfi_offset 7, -8
 265              		.cfi_offset 14, -4
ARM GAS  C:\Users\d4hhm\AppData\Local\Temp\ccjADZ95.s 			page 11


 266 0002 84B0     		sub	sp, sp, #16
 267              		.cfi_def_cfa_offset 24
 268 0004 00AF     		add	r7, sp, #0
 269              		.cfi_def_cfa_register 7
 270 0006 7860     		str	r0, [r7, #4]
 306:Generated_Source\PSoC4/SCB_1.c ****     uint32 txFifoCtrl;
 307:Generated_Source\PSoC4/SCB_1.c **** 
 308:Generated_Source\PSoC4/SCB_1.c ****     txFifoCtrl = SCB_1_TX_FIFO_CTRL_REG;
 271              		.loc 1 308 0
 272 0008 094B     		ldr	r3, .L16
 273 000a 1B68     		ldr	r3, [r3]
 274 000c FB60     		str	r3, [r7, #12]
 309:Generated_Source\PSoC4/SCB_1.c **** 
 310:Generated_Source\PSoC4/SCB_1.c ****     txFifoCtrl &= ((uint32) ~SCB_1_TX_FIFO_CTRL_TRIGGER_LEVEL_MASK); /* Clear level mask bits */
 275              		.loc 1 310 0
 276 000e FB68     		ldr	r3, [r7, #12]
 277 0010 0F22     		movs	r2, #15
 278 0012 9343     		bics	r3, r2
 279 0014 FB60     		str	r3, [r7, #12]
 311:Generated_Source\PSoC4/SCB_1.c ****     txFifoCtrl |= ((uint32) (SCB_1_TX_FIFO_CTRL_TRIGGER_LEVEL_MASK & level));
 280              		.loc 1 311 0
 281 0016 7B68     		ldr	r3, [r7, #4]
 282 0018 0F22     		movs	r2, #15
 283 001a 1340     		ands	r3, r2
 284 001c FA68     		ldr	r2, [r7, #12]
 285 001e 1343     		orrs	r3, r2
 286 0020 FB60     		str	r3, [r7, #12]
 312:Generated_Source\PSoC4/SCB_1.c **** 
 313:Generated_Source\PSoC4/SCB_1.c ****     SCB_1_TX_FIFO_CTRL_REG = txFifoCtrl;
 287              		.loc 1 313 0
 288 0022 034B     		ldr	r3, .L16
 289 0024 FA68     		ldr	r2, [r7, #12]
 290 0026 1A60     		str	r2, [r3]
 314:Generated_Source\PSoC4/SCB_1.c **** }
 291              		.loc 1 314 0
 292 0028 C046     		nop
 293 002a BD46     		mov	sp, r7
 294 002c 04B0     		add	sp, sp, #16
 295              		@ sp needed
 296 002e 80BD     		pop	{r7, pc}
 297              	.L17:
 298              		.align	2
 299              	.L16:
 300 0030 04022440 		.word	1076101636
 301              		.cfi_endproc
 302              	.LFE7:
 303              		.size	SCB_1_SetTxFifoLevel, .-SCB_1_SetTxFifoLevel
 304              		.section	.text.SCB_1_SetCustomInterruptHandler,"ax",%progbits
 305              		.align	2
 306              		.global	SCB_1_SetCustomInterruptHandler
 307              		.code	16
 308              		.thumb_func
 309              		.type	SCB_1_SetCustomInterruptHandler, %function
 310              	SCB_1_SetCustomInterruptHandler:
 311              	.LFB8:
 315:Generated_Source\PSoC4/SCB_1.c **** 
 316:Generated_Source\PSoC4/SCB_1.c **** 
ARM GAS  C:\Users\d4hhm\AppData\Local\Temp\ccjADZ95.s 			page 12


 317:Generated_Source\PSoC4/SCB_1.c **** #if (SCB_1_SCB_IRQ_INTERNAL)
 318:Generated_Source\PSoC4/SCB_1.c ****     /*******************************************************************************
 319:Generated_Source\PSoC4/SCB_1.c ****     * Function Name: SCB_1_SetCustomInterruptHandler
 320:Generated_Source\PSoC4/SCB_1.c ****     ****************************************************************************//**
 321:Generated_Source\PSoC4/SCB_1.c ****     *
 322:Generated_Source\PSoC4/SCB_1.c ****     *  Registers a function to be called by the internal interrupt handler.
 323:Generated_Source\PSoC4/SCB_1.c ****     *  First the function that is registered is called, then the internal interrupt
 324:Generated_Source\PSoC4/SCB_1.c ****     *  handler performs any operation such as software buffer management functions
 325:Generated_Source\PSoC4/SCB_1.c ****     *  before the interrupt returns.  It is the user's responsibility not to break
 326:Generated_Source\PSoC4/SCB_1.c ****     *  the software buffer operations. Only one custom handler is supported, which
 327:Generated_Source\PSoC4/SCB_1.c ****     *  is the function provided by the most recent call.
 328:Generated_Source\PSoC4/SCB_1.c ****     *  At the initialization time no custom handler is registered.
 329:Generated_Source\PSoC4/SCB_1.c ****     *
 330:Generated_Source\PSoC4/SCB_1.c ****     *  \param func: Pointer to the function to register.
 331:Generated_Source\PSoC4/SCB_1.c ****     *        The value NULL indicates to remove the current custom interrupt
 332:Generated_Source\PSoC4/SCB_1.c ****     *        handler.
 333:Generated_Source\PSoC4/SCB_1.c ****     *
 334:Generated_Source\PSoC4/SCB_1.c ****     *******************************************************************************/
 335:Generated_Source\PSoC4/SCB_1.c ****     void SCB_1_SetCustomInterruptHandler(void (*func)(void))
 336:Generated_Source\PSoC4/SCB_1.c ****     {
 312              		.loc 1 336 0
 313              		.cfi_startproc
 314              		@ args = 0, pretend = 0, frame = 8
 315              		@ frame_needed = 1, uses_anonymous_args = 0
 316 0000 80B5     		push	{r7, lr}
 317              		.cfi_def_cfa_offset 8
 318              		.cfi_offset 7, -8
 319              		.cfi_offset 14, -4
 320 0002 82B0     		sub	sp, sp, #8
 321              		.cfi_def_cfa_offset 16
 322 0004 00AF     		add	r7, sp, #0
 323              		.cfi_def_cfa_register 7
 324 0006 7860     		str	r0, [r7, #4]
 337:Generated_Source\PSoC4/SCB_1.c ****     #if !defined (CY_REMOVE_SCB_1_CUSTOM_INTR_HANDLER)
 338:Generated_Source\PSoC4/SCB_1.c ****         SCB_1_customIntrHandler = func; /* Register interrupt handler */
 325              		.loc 1 338 0
 326 0008 034B     		ldr	r3, .L19
 327 000a 7A68     		ldr	r2, [r7, #4]
 328 000c 1A60     		str	r2, [r3]
 339:Generated_Source\PSoC4/SCB_1.c ****     #else
 340:Generated_Source\PSoC4/SCB_1.c ****         if (NULL != func)
 341:Generated_Source\PSoC4/SCB_1.c ****         {
 342:Generated_Source\PSoC4/SCB_1.c ****             /* Suppress compiler warning */
 343:Generated_Source\PSoC4/SCB_1.c ****         }
 344:Generated_Source\PSoC4/SCB_1.c ****     #endif /* !defined (CY_REMOVE_SCB_1_CUSTOM_INTR_HANDLER) */
 345:Generated_Source\PSoC4/SCB_1.c ****     }
 329              		.loc 1 345 0
 330 000e C046     		nop
 331 0010 BD46     		mov	sp, r7
 332 0012 02B0     		add	sp, sp, #8
 333              		@ sp needed
 334 0014 80BD     		pop	{r7, pc}
 335              	.L20:
 336 0016 C046     		.align	2
 337              	.L19:
 338 0018 00000000 		.word	SCB_1_customIntrHandler
 339              		.cfi_endproc
ARM GAS  C:\Users\d4hhm\AppData\Local\Temp\ccjADZ95.s 			page 13


 340              	.LFE8:
 341              		.size	SCB_1_SetCustomInterruptHandler, .-SCB_1_SetCustomInterruptHandler
 342              		.section	.text.SCB_1_ScbEnableIntr,"ax",%progbits
 343              		.align	2
 344              		.code	16
 345              		.thumb_func
 346              		.type	SCB_1_ScbEnableIntr, %function
 347              	SCB_1_ScbEnableIntr:
 348              	.LFB9:
 346:Generated_Source\PSoC4/SCB_1.c **** #endif /* (SCB_1_SCB_IRQ_INTERNAL) */
 347:Generated_Source\PSoC4/SCB_1.c **** 
 348:Generated_Source\PSoC4/SCB_1.c **** 
 349:Generated_Source\PSoC4/SCB_1.c **** /*******************************************************************************
 350:Generated_Source\PSoC4/SCB_1.c **** * Function Name: SCB_1_ScbModeEnableIntr
 351:Generated_Source\PSoC4/SCB_1.c **** ****************************************************************************//**
 352:Generated_Source\PSoC4/SCB_1.c **** *
 353:Generated_Source\PSoC4/SCB_1.c **** *  Enables an interrupt for a specific mode.
 354:Generated_Source\PSoC4/SCB_1.c **** *
 355:Generated_Source\PSoC4/SCB_1.c **** *******************************************************************************/
 356:Generated_Source\PSoC4/SCB_1.c **** static void SCB_1_ScbEnableIntr(void)
 357:Generated_Source\PSoC4/SCB_1.c **** {
 349              		.loc 1 357 0
 350              		.cfi_startproc
 351              		@ args = 0, pretend = 0, frame = 0
 352              		@ frame_needed = 1, uses_anonymous_args = 0
 353 0000 80B5     		push	{r7, lr}
 354              		.cfi_def_cfa_offset 8
 355              		.cfi_offset 7, -8
 356              		.cfi_offset 14, -4
 357 0002 00AF     		add	r7, sp, #0
 358              		.cfi_def_cfa_register 7
 358:Generated_Source\PSoC4/SCB_1.c **** #if (SCB_1_SCB_IRQ_INTERNAL)
 359:Generated_Source\PSoC4/SCB_1.c ****     /* Enable interrupt in NVIC */
 360:Generated_Source\PSoC4/SCB_1.c ****     #if (SCB_1_SCB_MODE_UNCONFIG_CONST_CFG)
 361:Generated_Source\PSoC4/SCB_1.c ****         if (0u != SCB_1_scbEnableIntr)
 362:Generated_Source\PSoC4/SCB_1.c ****         {
 363:Generated_Source\PSoC4/SCB_1.c ****             SCB_1_EnableInt();
 364:Generated_Source\PSoC4/SCB_1.c ****         }
 365:Generated_Source\PSoC4/SCB_1.c **** 
 366:Generated_Source\PSoC4/SCB_1.c ****     #else
 367:Generated_Source\PSoC4/SCB_1.c ****         SCB_1_EnableInt();
 359              		.loc 1 367 0
 360 0004 0920     		movs	r0, #9
 361 0006 FFF7FEFF 		bl	CyIntEnable
 368:Generated_Source\PSoC4/SCB_1.c **** 
 369:Generated_Source\PSoC4/SCB_1.c ****     #endif /* (SCB_1_SCB_MODE_UNCONFIG_CONST_CFG) */
 370:Generated_Source\PSoC4/SCB_1.c **** #endif /* (SCB_1_SCB_IRQ_INTERNAL) */
 371:Generated_Source\PSoC4/SCB_1.c **** }
 362              		.loc 1 371 0
 363 000a C046     		nop
 364 000c BD46     		mov	sp, r7
 365              		@ sp needed
 366 000e 80BD     		pop	{r7, pc}
 367              		.cfi_endproc
 368              	.LFE9:
 369              		.size	SCB_1_ScbEnableIntr, .-SCB_1_ScbEnableIntr
 370              		.section	.text.SCB_1_ScbModePostEnable,"ax",%progbits
ARM GAS  C:\Users\d4hhm\AppData\Local\Temp\ccjADZ95.s 			page 14


 371              		.align	2
 372              		.code	16
 373              		.thumb_func
 374              		.type	SCB_1_ScbModePostEnable, %function
 375              	SCB_1_ScbModePostEnable:
 376              	.LFB10:
 372:Generated_Source\PSoC4/SCB_1.c **** 
 373:Generated_Source\PSoC4/SCB_1.c **** 
 374:Generated_Source\PSoC4/SCB_1.c **** /*******************************************************************************
 375:Generated_Source\PSoC4/SCB_1.c **** * Function Name: SCB_1_ScbModePostEnable
 376:Generated_Source\PSoC4/SCB_1.c **** ****************************************************************************//**
 377:Generated_Source\PSoC4/SCB_1.c **** *
 378:Generated_Source\PSoC4/SCB_1.c **** *  Calls the PostEnable function for a specific operation mode.
 379:Generated_Source\PSoC4/SCB_1.c **** *
 380:Generated_Source\PSoC4/SCB_1.c **** *******************************************************************************/
 381:Generated_Source\PSoC4/SCB_1.c **** static void SCB_1_ScbModePostEnable(void)
 382:Generated_Source\PSoC4/SCB_1.c **** {
 377              		.loc 1 382 0
 378              		.cfi_startproc
 379              		@ args = 0, pretend = 0, frame = 0
 380              		@ frame_needed = 1, uses_anonymous_args = 0
 381 0000 80B5     		push	{r7, lr}
 382              		.cfi_def_cfa_offset 8
 383              		.cfi_offset 7, -8
 384              		.cfi_offset 14, -4
 385 0002 00AF     		add	r7, sp, #0
 386              		.cfi_def_cfa_register 7
 383:Generated_Source\PSoC4/SCB_1.c **** #if (SCB_1_SCB_MODE_UNCONFIG_CONST_CFG)
 384:Generated_Source\PSoC4/SCB_1.c **** #if (!SCB_1_CY_SCBIP_V1)
 385:Generated_Source\PSoC4/SCB_1.c ****     if (SCB_1_SCB_MODE_SPI_RUNTM_CFG)
 386:Generated_Source\PSoC4/SCB_1.c ****     {
 387:Generated_Source\PSoC4/SCB_1.c ****         SCB_1_SpiPostEnable();
 388:Generated_Source\PSoC4/SCB_1.c ****     }
 389:Generated_Source\PSoC4/SCB_1.c ****     else if (SCB_1_SCB_MODE_UART_RUNTM_CFG)
 390:Generated_Source\PSoC4/SCB_1.c ****     {
 391:Generated_Source\PSoC4/SCB_1.c ****         SCB_1_UartPostEnable();
 392:Generated_Source\PSoC4/SCB_1.c ****     }
 393:Generated_Source\PSoC4/SCB_1.c ****     else
 394:Generated_Source\PSoC4/SCB_1.c ****     {
 395:Generated_Source\PSoC4/SCB_1.c ****         /* Unknown mode: do nothing */
 396:Generated_Source\PSoC4/SCB_1.c ****     }
 397:Generated_Source\PSoC4/SCB_1.c **** #endif /* (!SCB_1_CY_SCBIP_V1) */
 398:Generated_Source\PSoC4/SCB_1.c **** 
 399:Generated_Source\PSoC4/SCB_1.c **** #elif (SCB_1_SCB_MODE_SPI_CONST_CFG)
 400:Generated_Source\PSoC4/SCB_1.c ****     SCB_1_SpiPostEnable();
 401:Generated_Source\PSoC4/SCB_1.c **** 
 402:Generated_Source\PSoC4/SCB_1.c **** #elif (SCB_1_SCB_MODE_UART_CONST_CFG)
 403:Generated_Source\PSoC4/SCB_1.c ****     SCB_1_UartPostEnable();
 404:Generated_Source\PSoC4/SCB_1.c **** 
 405:Generated_Source\PSoC4/SCB_1.c **** #else
 406:Generated_Source\PSoC4/SCB_1.c ****     /* Unknown mode: do nothing */
 407:Generated_Source\PSoC4/SCB_1.c **** #endif /* (SCB_1_SCB_MODE_UNCONFIG_CONST_CFG) */
 408:Generated_Source\PSoC4/SCB_1.c **** }
 387              		.loc 1 408 0
 388 0004 C046     		nop
 389 0006 BD46     		mov	sp, r7
 390              		@ sp needed
ARM GAS  C:\Users\d4hhm\AppData\Local\Temp\ccjADZ95.s 			page 15


 391 0008 80BD     		pop	{r7, pc}
 392              		.cfi_endproc
 393              	.LFE10:
 394              		.size	SCB_1_ScbModePostEnable, .-SCB_1_ScbModePostEnable
 395 000a C046     		.section	.text.SCB_1_ScbModeStop,"ax",%progbits
 396              		.align	2
 397              		.code	16
 398              		.thumb_func
 399              		.type	SCB_1_ScbModeStop, %function
 400              	SCB_1_ScbModeStop:
 401              	.LFB11:
 409:Generated_Source\PSoC4/SCB_1.c **** 
 410:Generated_Source\PSoC4/SCB_1.c **** 
 411:Generated_Source\PSoC4/SCB_1.c **** /*******************************************************************************
 412:Generated_Source\PSoC4/SCB_1.c **** * Function Name: SCB_1_ScbModeStop
 413:Generated_Source\PSoC4/SCB_1.c **** ****************************************************************************//**
 414:Generated_Source\PSoC4/SCB_1.c **** *
 415:Generated_Source\PSoC4/SCB_1.c **** *  Calls the Stop function for a specific operation mode.
 416:Generated_Source\PSoC4/SCB_1.c **** *
 417:Generated_Source\PSoC4/SCB_1.c **** *******************************************************************************/
 418:Generated_Source\PSoC4/SCB_1.c **** static void SCB_1_ScbModeStop(void)
 419:Generated_Source\PSoC4/SCB_1.c **** {
 402              		.loc 1 419 0
 403              		.cfi_startproc
 404              		@ args = 0, pretend = 0, frame = 0
 405              		@ frame_needed = 1, uses_anonymous_args = 0
 406 0000 80B5     		push	{r7, lr}
 407              		.cfi_def_cfa_offset 8
 408              		.cfi_offset 7, -8
 409              		.cfi_offset 14, -4
 410 0002 00AF     		add	r7, sp, #0
 411              		.cfi_def_cfa_register 7
 420:Generated_Source\PSoC4/SCB_1.c **** #if (SCB_1_SCB_MODE_UNCONFIG_CONST_CFG)
 421:Generated_Source\PSoC4/SCB_1.c ****     if (SCB_1_SCB_MODE_I2C_RUNTM_CFG)
 422:Generated_Source\PSoC4/SCB_1.c ****     {
 423:Generated_Source\PSoC4/SCB_1.c ****         SCB_1_I2CStop();
 424:Generated_Source\PSoC4/SCB_1.c ****     }
 425:Generated_Source\PSoC4/SCB_1.c ****     else if (SCB_1_SCB_MODE_EZI2C_RUNTM_CFG)
 426:Generated_Source\PSoC4/SCB_1.c ****     {
 427:Generated_Source\PSoC4/SCB_1.c ****         SCB_1_EzI2CStop();
 428:Generated_Source\PSoC4/SCB_1.c ****     }
 429:Generated_Source\PSoC4/SCB_1.c **** #if (!SCB_1_CY_SCBIP_V1)
 430:Generated_Source\PSoC4/SCB_1.c ****     else if (SCB_1_SCB_MODE_SPI_RUNTM_CFG)
 431:Generated_Source\PSoC4/SCB_1.c ****     {
 432:Generated_Source\PSoC4/SCB_1.c ****         SCB_1_SpiStop();
 433:Generated_Source\PSoC4/SCB_1.c ****     }
 434:Generated_Source\PSoC4/SCB_1.c ****     else if (SCB_1_SCB_MODE_UART_RUNTM_CFG)
 435:Generated_Source\PSoC4/SCB_1.c ****     {
 436:Generated_Source\PSoC4/SCB_1.c ****         SCB_1_UartStop();
 437:Generated_Source\PSoC4/SCB_1.c ****     }
 438:Generated_Source\PSoC4/SCB_1.c **** #endif /* (!SCB_1_CY_SCBIP_V1) */
 439:Generated_Source\PSoC4/SCB_1.c ****     else
 440:Generated_Source\PSoC4/SCB_1.c ****     {
 441:Generated_Source\PSoC4/SCB_1.c ****         /* Unknown mode: do nothing */
 442:Generated_Source\PSoC4/SCB_1.c ****     }
 443:Generated_Source\PSoC4/SCB_1.c **** #elif (SCB_1_SCB_MODE_I2C_CONST_CFG)
 444:Generated_Source\PSoC4/SCB_1.c ****     SCB_1_I2CStop();
ARM GAS  C:\Users\d4hhm\AppData\Local\Temp\ccjADZ95.s 			page 16


 412              		.loc 1 444 0
 413 0004 FFF7FEFF 		bl	SCB_1_I2CStop
 445:Generated_Source\PSoC4/SCB_1.c **** 
 446:Generated_Source\PSoC4/SCB_1.c **** #elif (SCB_1_SCB_MODE_EZI2C_CONST_CFG)
 447:Generated_Source\PSoC4/SCB_1.c ****     SCB_1_EzI2CStop();
 448:Generated_Source\PSoC4/SCB_1.c **** 
 449:Generated_Source\PSoC4/SCB_1.c **** #elif (SCB_1_SCB_MODE_SPI_CONST_CFG)
 450:Generated_Source\PSoC4/SCB_1.c ****     SCB_1_SpiStop();
 451:Generated_Source\PSoC4/SCB_1.c **** 
 452:Generated_Source\PSoC4/SCB_1.c **** #elif (SCB_1_SCB_MODE_UART_CONST_CFG)
 453:Generated_Source\PSoC4/SCB_1.c ****     SCB_1_UartStop();
 454:Generated_Source\PSoC4/SCB_1.c **** 
 455:Generated_Source\PSoC4/SCB_1.c **** #else
 456:Generated_Source\PSoC4/SCB_1.c ****     /* Unknown mode: do nothing */
 457:Generated_Source\PSoC4/SCB_1.c **** #endif /* (SCB_1_SCB_MODE_UNCONFIG_CONST_CFG) */
 458:Generated_Source\PSoC4/SCB_1.c **** }
 414              		.loc 1 458 0
 415 0008 C046     		nop
 416 000a BD46     		mov	sp, r7
 417              		@ sp needed
 418 000c 80BD     		pop	{r7, pc}
 419              		.cfi_endproc
 420              	.LFE11:
 421              		.size	SCB_1_ScbModeStop, .-SCB_1_ScbModeStop
 422 000e C046     		.text
 423              	.Letext0:
 424              		.file 2 "Generated_Source\\PSoC4/cytypes.h"