ARM GAS  C:\Users\d4hhm\AppData\Local\Temp\cchY4aQw.s 			page 1


   1              		.syntax unified
   2              		.cpu cortex-m0
   3              		.fpu softvfp
   4              		.eabi_attribute 20, 1
   5              		.eabi_attribute 21, 1
   6              		.eabi_attribute 23, 3
   7              		.eabi_attribute 24, 1
   8              		.eabi_attribute 25, 1
   9              		.eabi_attribute 26, 1
  10              		.eabi_attribute 30, 6
  11              		.eabi_attribute 34, 0
  12              		.eabi_attribute 18, 4
  13              		.thumb
  14              		.syntax unified
  15              		.file	"BME280.c"
  16              		.text
  17              	.Ltext0:
  18              		.cfi_sections	.debug_frame
  19              		.global	bme280
  20              		.data
  21              		.align	2
  22              		.type	bme280, %object
  23              		.size	bme280, 64
  24              	bme280:
  25 0000 00       		.byte	0
  26 0001 76       		.byte	118
  27 0002 0A       		.byte	10
  28 0003 03       		.byte	3
  29 0004 0000     		.space	2
  30 0006 01       		.byte	1
  31 0007 01       		.byte	1
  32 0008 01       		.byte	1
  33 0009 00       		.space	1
  34 000a 00000000 		.space	36
  34      00000000 
  34      00000000 
  34      00000000 
  34      00000000 
  35 002e 0000     		.space	2
  36 0030 00000000 		.word	0
  37 0034 003C1CC6 		.word	-971228160
  38 0038 003C1CC6 		.word	-971228160
  39 003c 003C1CC6 		.word	-971228160
  40              		.section	.text.BME280_start,"ax",%progbits
  41              		.align	2
  42              		.global	BME280_start
  43              		.code	16
  44              		.thumb_func
  45              		.type	BME280_start, %function
  46              	BME280_start:
  47              	.LFB35:
  48              		.file 1 "BME280.c"
   1:BME280.c      **** /******************************************************************************
   2:BME280.c      **** SparkFunBME280.cpp
   3:BME280.c      **** BME280 Arduino and Teensy Driver
   4:BME280.c      **** Marshall Taylor @ SparkFun Electronics
   5:BME280.c      **** May 20, 2015
ARM GAS  C:\Users\d4hhm\AppData\Local\Temp\cchY4aQw.s 			page 2


   6:BME280.c      **** https://github.com/sparkfun/BME280_Breakout
   7:BME280.c      **** 
   8:BME280.c      **** Resources:
   9:BME280.c      **** Uses Wire.h for i2c operation
  10:BME280.c      **** Uses SPI.h for SPI operation
  11:BME280.c      **** 
  12:BME280.c      **** Development environment specifics:
  13:BME280.c      **** Arduino IDE 1.6.4
  14:BME280.c      **** Teensy loader 1.23
  15:BME280.c      **** 
  16:BME280.c      **** This code is released under the [MIT License](http://opensource.org/licenses/MIT).
  17:BME280.c      **** Please review the LICENSE.md file included with this example. If you have any questions 
  18:BME280.c      **** or concerns with licensing, please contact techsupport@sparkfun.com.
  19:BME280.c      **** Distributed as-is; no warranty is given.
  20:BME280.c      **** ******************************************************************************/
  21:BME280.c      **** //See SparkFunBME280.h for additional topology notes.
  22:BME280.c      **** 
  23:BME280.c      **** #include "BME280.h"
  24:BME280.c      **** #include <math.h>
  25:BME280.c      **** 
  26:BME280.c      **** 
  27:BME280.c      **** //****************************************************************************//
  28:BME280.c      **** //
  29:BME280.c      **** //  Settings and configuration
  30:BME280.c      **** //
  31:BME280.c      **** //****************************************************************************//
  32:BME280.c      **** 
  33:BME280.c      **** //Construct with these default settings if nothing is specified
  34:BME280.c      **** BME280 bme280 = {
  35:BME280.c      ****     .settings = {
  36:BME280.c      ****         //Select interface mode
  37:BME280.c      ****         .commInterface  = BME280_I2C_MODE,
  38:BME280.c      ****     	//Select address for I2C.  Does nothing for SPI            
  39:BME280.c      ****         .I2CAddress     = 0x76,
  40:BME280.c      ****     	//Select CS pin for SPI.  Does nothing for I2C            
  41:BME280.c      ****         .chipSelectPin  = 10,
  42:BME280.c      ****         .runMode        = 3,
  43:BME280.c      ****         .tempOverSample = 1,
  44:BME280.c      ****         .pressOverSample= 1,
  45:BME280.c      ****         .humidOverSample= 1
  46:BME280.c      ****         },
  47:BME280.c      ****     .calibration = {},
  48:BME280.c      ****     .t_fine = 0,
  49:BME280.c      ****     .temp_C     = -9999,
  50:BME280.c      ****     .press_Pa   = -9999,
  51:BME280.c      ****     .RH         = -9999
  52:BME280.c      **** };
  53:BME280.c      **** 
  54:BME280.c      **** void BME280_start() {
  49              		.loc 1 54 0
  50              		.cfi_startproc
  51              		@ args = 0, pretend = 0, frame = 0
  52              		@ frame_needed = 1, uses_anonymous_args = 0
  53 0000 80B5     		push	{r7, lr}
  54              		.cfi_def_cfa_offset 8
  55              		.cfi_offset 7, -8
  56              		.cfi_offset 14, -4
ARM GAS  C:\Users\d4hhm\AppData\Local\Temp\cchY4aQw.s 			page 3


  57 0002 00AF     		add	r7, sp, #0
  58              		.cfi_def_cfa_register 7
  55:BME280.c      ****     SCB_1_Start();
  59              		.loc 1 55 0
  60 0004 FFF7FEFF 		bl	SCB_1_Start
  56:BME280.c      ****     //I2C_Sleep();
  57:BME280.c      **** }
  61              		.loc 1 57 0
  62 0008 C046     		nop
  63 000a BD46     		mov	sp, r7
  64              		@ sp needed
  65 000c 80BD     		pop	{r7, pc}
  66              		.cfi_endproc
  67              	.LFE35:
  68              		.size	BME280_start, .-BME280_start
  69 000e C046     		.section	.text.BME280_stop,"ax",%progbits
  70              		.align	2
  71              		.global	BME280_stop
  72              		.code	16
  73              		.thumb_func
  74              		.type	BME280_stop, %function
  75              	BME280_stop:
  76              	.LFB36:
  58:BME280.c      **** 
  59:BME280.c      **** void BME280_stop() {
  77              		.loc 1 59 0
  78              		.cfi_startproc
  79              		@ args = 0, pretend = 0, frame = 0
  80              		@ frame_needed = 1, uses_anonymous_args = 0
  81 0000 80B5     		push	{r7, lr}
  82              		.cfi_def_cfa_offset 8
  83              		.cfi_offset 7, -8
  84              		.cfi_offset 14, -4
  85 0002 00AF     		add	r7, sp, #0
  86              		.cfi_def_cfa_register 7
  60:BME280.c      ****     SCB_1_Stop();
  87              		.loc 1 60 0
  88 0004 FFF7FEFF 		bl	SCB_1_Stop
  61:BME280.c      **** }
  89              		.loc 1 61 0
  90 0008 C046     		nop
  91 000a BD46     		mov	sp, r7
  92              		@ sp needed
  93 000c 80BD     		pop	{r7, pc}
  94              		.cfi_endproc
  95              	.LFE36:
  96              		.size	BME280_stop, .-BME280_stop
  97 000e C046     		.section	.text.BME280_init,"ax",%progbits
  98              		.align	2
  99              		.global	BME280_init
 100              		.code	16
 101              		.thumb_func
 102              		.type	BME280_init, %function
 103              	BME280_init:
 104              	.LFB37:
  62:BME280.c      **** 
  63:BME280.c      **** //****************************************************************************//
ARM GAS  C:\Users\d4hhm\AppData\Local\Temp\cchY4aQw.s 			page 4


  64:BME280.c      **** //
  65:BME280.c      **** //  Configuration section
  66:BME280.c      **** //
  67:BME280.c      **** //  This uses the stored SensorSettings to start the IMU
  68:BME280.c      **** //  Use statements such as "mySensor.settings.commInterface = SPI_MODE;" to 
  69:BME280.c      **** //  configure before calling .begin();
  70:BME280.c      **** //
  71:BME280.c      **** //****************************************************************************//
  72:BME280.c      **** uint8_t BME280_init()
  73:BME280.c      **** {
 105              		.loc 1 73 0
 106              		.cfi_startproc
 107              		@ args = 0, pretend = 0, frame = 8
 108              		@ frame_needed = 1, uses_anonymous_args = 0
 109 0000 90B5     		push	{r4, r7, lr}
 110              		.cfi_def_cfa_offset 12
 111              		.cfi_offset 4, -12
 112              		.cfi_offset 7, -8
 113              		.cfi_offset 14, -4
 114 0002 83B0     		sub	sp, sp, #12
 115              		.cfi_def_cfa_offset 24
 116 0004 00AF     		add	r7, sp, #0
 117              		.cfi_def_cfa_register 7
  74:BME280.c      **** 	//Check the settings structure values to determine how to setup the device
  75:BME280.c      **** 	uint8_t data_to_write = 0, device_address;  //Temporary variable
 118              		.loc 1 75 0
 119 0006 FB1D     		adds	r3, r7, #7
 120 0008 0022     		movs	r2, #0
 121 000a 1A70     		strb	r2, [r3]
  76:BME280.c      **** 	//SCB_1_Start();
  77:BME280.c      ****     //I2C_Sleep();
  78:BME280.c      ****     
  79:BME280.c      **** 	//Reading all compensation data, range 0x88:A1, 0xE1:E7
  80:BME280.c      **** 	bme280.calibration.dig_T1 = ((uint16_t)((BME280_readRegister(BME280_DIG_T1_MSB_REG) << 8) + BME280
 122              		.loc 1 80 0
 123 000c 8920     		movs	r0, #137
 124 000e FFF7FEFF 		bl	BME280_readRegister
 125 0012 0300     		movs	r3, r0
 126 0014 9BB2     		uxth	r3, r3
 127 0016 1B02     		lsls	r3, r3, #8
 128 0018 9CB2     		uxth	r4, r3
 129 001a 8820     		movs	r0, #136
 130 001c FFF7FEFF 		bl	BME280_readRegister
 131 0020 0300     		movs	r3, r0
 132 0022 9BB2     		uxth	r3, r3
 133 0024 E318     		adds	r3, r4, r3
 134 0026 9AB2     		uxth	r2, r3
 135 0028 B44B     		ldr	r3, .L5
 136 002a 5A81     		strh	r2, [r3, #10]
  81:BME280.c      **** 	bme280.calibration.dig_T2 = ((int16_t)((BME280_readRegister(BME280_DIG_T2_MSB_REG) << 8) + BME280_
 137              		.loc 1 81 0
 138 002c 8B20     		movs	r0, #139
 139 002e FFF7FEFF 		bl	BME280_readRegister
 140 0032 0300     		movs	r3, r0
 141 0034 9BB2     		uxth	r3, r3
 142 0036 1B02     		lsls	r3, r3, #8
 143 0038 9CB2     		uxth	r4, r3
ARM GAS  C:\Users\d4hhm\AppData\Local\Temp\cchY4aQw.s 			page 5


 144 003a 8A20     		movs	r0, #138
 145 003c FFF7FEFF 		bl	BME280_readRegister
 146 0040 0300     		movs	r3, r0
 147 0042 9BB2     		uxth	r3, r3
 148 0044 E318     		adds	r3, r4, r3
 149 0046 9BB2     		uxth	r3, r3
 150 0048 1AB2     		sxth	r2, r3
 151 004a AC4B     		ldr	r3, .L5
 152 004c 9A81     		strh	r2, [r3, #12]
  82:BME280.c      **** 	bme280.calibration.dig_T3 = ((int16_t)((BME280_readRegister(BME280_DIG_T3_MSB_REG) << 8) + BME280_
 153              		.loc 1 82 0
 154 004e 8D20     		movs	r0, #141
 155 0050 FFF7FEFF 		bl	BME280_readRegister
 156 0054 0300     		movs	r3, r0
 157 0056 9BB2     		uxth	r3, r3
 158 0058 1B02     		lsls	r3, r3, #8
 159 005a 9CB2     		uxth	r4, r3
 160 005c 8C20     		movs	r0, #140
 161 005e FFF7FEFF 		bl	BME280_readRegister
 162 0062 0300     		movs	r3, r0
 163 0064 9BB2     		uxth	r3, r3
 164 0066 E318     		adds	r3, r4, r3
 165 0068 9BB2     		uxth	r3, r3
 166 006a 1AB2     		sxth	r2, r3
 167 006c A34B     		ldr	r3, .L5
 168 006e DA81     		strh	r2, [r3, #14]
  83:BME280.c      **** 
  84:BME280.c      **** 	bme280.calibration.dig_P1 = ((uint16_t)((BME280_readRegister(BME280_DIG_P1_MSB_REG) << 8) + BME280
 169              		.loc 1 84 0
 170 0070 8F20     		movs	r0, #143
 171 0072 FFF7FEFF 		bl	BME280_readRegister
 172 0076 0300     		movs	r3, r0
 173 0078 9BB2     		uxth	r3, r3
 174 007a 1B02     		lsls	r3, r3, #8
 175 007c 9CB2     		uxth	r4, r3
 176 007e 8E20     		movs	r0, #142
 177 0080 FFF7FEFF 		bl	BME280_readRegister
 178 0084 0300     		movs	r3, r0
 179 0086 9BB2     		uxth	r3, r3
 180 0088 E318     		adds	r3, r4, r3
 181 008a 9AB2     		uxth	r2, r3
 182 008c 9B4B     		ldr	r3, .L5
 183 008e 1A82     		strh	r2, [r3, #16]
  85:BME280.c      **** 	bme280.calibration.dig_P2 = ((int16_t)((BME280_readRegister(BME280_DIG_P2_MSB_REG) << 8) + BME280_
 184              		.loc 1 85 0
 185 0090 9120     		movs	r0, #145
 186 0092 FFF7FEFF 		bl	BME280_readRegister
 187 0096 0300     		movs	r3, r0
 188 0098 9BB2     		uxth	r3, r3
 189 009a 1B02     		lsls	r3, r3, #8
 190 009c 9CB2     		uxth	r4, r3
 191 009e 9020     		movs	r0, #144
 192 00a0 FFF7FEFF 		bl	BME280_readRegister
 193 00a4 0300     		movs	r3, r0
 194 00a6 9BB2     		uxth	r3, r3
 195 00a8 E318     		adds	r3, r4, r3
 196 00aa 9BB2     		uxth	r3, r3
ARM GAS  C:\Users\d4hhm\AppData\Local\Temp\cchY4aQw.s 			page 6


 197 00ac 1AB2     		sxth	r2, r3
 198 00ae 934B     		ldr	r3, .L5
 199 00b0 5A82     		strh	r2, [r3, #18]
  86:BME280.c      **** 	bme280.calibration.dig_P3 = ((int16_t)((BME280_readRegister(BME280_DIG_P3_MSB_REG) << 8) + BME280_
 200              		.loc 1 86 0
 201 00b2 9320     		movs	r0, #147
 202 00b4 FFF7FEFF 		bl	BME280_readRegister
 203 00b8 0300     		movs	r3, r0
 204 00ba 9BB2     		uxth	r3, r3
 205 00bc 1B02     		lsls	r3, r3, #8
 206 00be 9CB2     		uxth	r4, r3
 207 00c0 9220     		movs	r0, #146
 208 00c2 FFF7FEFF 		bl	BME280_readRegister
 209 00c6 0300     		movs	r3, r0
 210 00c8 9BB2     		uxth	r3, r3
 211 00ca E318     		adds	r3, r4, r3
 212 00cc 9BB2     		uxth	r3, r3
 213 00ce 1AB2     		sxth	r2, r3
 214 00d0 8A4B     		ldr	r3, .L5
 215 00d2 9A82     		strh	r2, [r3, #20]
  87:BME280.c      **** 	bme280.calibration.dig_P4 = ((int16_t)((BME280_readRegister(BME280_DIG_P4_MSB_REG) << 8) + BME280_
 216              		.loc 1 87 0
 217 00d4 9520     		movs	r0, #149
 218 00d6 FFF7FEFF 		bl	BME280_readRegister
 219 00da 0300     		movs	r3, r0
 220 00dc 9BB2     		uxth	r3, r3
 221 00de 1B02     		lsls	r3, r3, #8
 222 00e0 9CB2     		uxth	r4, r3
 223 00e2 9420     		movs	r0, #148
 224 00e4 FFF7FEFF 		bl	BME280_readRegister
 225 00e8 0300     		movs	r3, r0
 226 00ea 9BB2     		uxth	r3, r3
 227 00ec E318     		adds	r3, r4, r3
 228 00ee 9BB2     		uxth	r3, r3
 229 00f0 1AB2     		sxth	r2, r3
 230 00f2 824B     		ldr	r3, .L5
 231 00f4 DA82     		strh	r2, [r3, #22]
  88:BME280.c      **** 	bme280.calibration.dig_P5 = ((int16_t)((BME280_readRegister(BME280_DIG_P5_MSB_REG) << 8) + BME280_
 232              		.loc 1 88 0
 233 00f6 9720     		movs	r0, #151
 234 00f8 FFF7FEFF 		bl	BME280_readRegister
 235 00fc 0300     		movs	r3, r0
 236 00fe 9BB2     		uxth	r3, r3
 237 0100 1B02     		lsls	r3, r3, #8
 238 0102 9CB2     		uxth	r4, r3
 239 0104 9620     		movs	r0, #150
 240 0106 FFF7FEFF 		bl	BME280_readRegister
 241 010a 0300     		movs	r3, r0
 242 010c 9BB2     		uxth	r3, r3
 243 010e E318     		adds	r3, r4, r3
 244 0110 9BB2     		uxth	r3, r3
 245 0112 1AB2     		sxth	r2, r3
 246 0114 794B     		ldr	r3, .L5
 247 0116 1A83     		strh	r2, [r3, #24]
  89:BME280.c      **** 	bme280.calibration.dig_P6 = ((int16_t)((BME280_readRegister(BME280_DIG_P6_MSB_REG) << 8) + BME280_
 248              		.loc 1 89 0
 249 0118 9920     		movs	r0, #153
ARM GAS  C:\Users\d4hhm\AppData\Local\Temp\cchY4aQw.s 			page 7


 250 011a FFF7FEFF 		bl	BME280_readRegister
 251 011e 0300     		movs	r3, r0
 252 0120 9BB2     		uxth	r3, r3
 253 0122 1B02     		lsls	r3, r3, #8
 254 0124 9CB2     		uxth	r4, r3
 255 0126 9820     		movs	r0, #152
 256 0128 FFF7FEFF 		bl	BME280_readRegister
 257 012c 0300     		movs	r3, r0
 258 012e 9BB2     		uxth	r3, r3
 259 0130 E318     		adds	r3, r4, r3
 260 0132 9BB2     		uxth	r3, r3
 261 0134 1AB2     		sxth	r2, r3
 262 0136 714B     		ldr	r3, .L5
 263 0138 5A83     		strh	r2, [r3, #26]
  90:BME280.c      **** 	bme280.calibration.dig_P7 = ((int16_t)((BME280_readRegister(BME280_DIG_P7_MSB_REG) << 8) + BME280_
 264              		.loc 1 90 0
 265 013a 9B20     		movs	r0, #155
 266 013c FFF7FEFF 		bl	BME280_readRegister
 267 0140 0300     		movs	r3, r0
 268 0142 9BB2     		uxth	r3, r3
 269 0144 1B02     		lsls	r3, r3, #8
 270 0146 9CB2     		uxth	r4, r3
 271 0148 9A20     		movs	r0, #154
 272 014a FFF7FEFF 		bl	BME280_readRegister
 273 014e 0300     		movs	r3, r0
 274 0150 9BB2     		uxth	r3, r3
 275 0152 E318     		adds	r3, r4, r3
 276 0154 9BB2     		uxth	r3, r3
 277 0156 1AB2     		sxth	r2, r3
 278 0158 684B     		ldr	r3, .L5
 279 015a 9A83     		strh	r2, [r3, #28]
  91:BME280.c      **** 	bme280.calibration.dig_P8 = ((int16_t)((BME280_readRegister(BME280_DIG_P8_MSB_REG) << 8) + BME280_
 280              		.loc 1 91 0
 281 015c 9D20     		movs	r0, #157
 282 015e FFF7FEFF 		bl	BME280_readRegister
 283 0162 0300     		movs	r3, r0
 284 0164 9BB2     		uxth	r3, r3
 285 0166 1B02     		lsls	r3, r3, #8
 286 0168 9CB2     		uxth	r4, r3
 287 016a 9C20     		movs	r0, #156
 288 016c FFF7FEFF 		bl	BME280_readRegister
 289 0170 0300     		movs	r3, r0
 290 0172 9BB2     		uxth	r3, r3
 291 0174 E318     		adds	r3, r4, r3
 292 0176 9BB2     		uxth	r3, r3
 293 0178 1AB2     		sxth	r2, r3
 294 017a 604B     		ldr	r3, .L5
 295 017c DA83     		strh	r2, [r3, #30]
  92:BME280.c      **** 	bme280.calibration.dig_P9 = ((int16_t)((BME280_readRegister(BME280_DIG_P9_MSB_REG) << 8) + BME280_
 296              		.loc 1 92 0
 297 017e 9F20     		movs	r0, #159
 298 0180 FFF7FEFF 		bl	BME280_readRegister
 299 0184 0300     		movs	r3, r0
 300 0186 9BB2     		uxth	r3, r3
 301 0188 1B02     		lsls	r3, r3, #8
 302 018a 9CB2     		uxth	r4, r3
 303 018c 9E20     		movs	r0, #158
ARM GAS  C:\Users\d4hhm\AppData\Local\Temp\cchY4aQw.s 			page 8


 304 018e FFF7FEFF 		bl	BME280_readRegister
 305 0192 0300     		movs	r3, r0
 306 0194 9BB2     		uxth	r3, r3
 307 0196 E318     		adds	r3, r4, r3
 308 0198 9BB2     		uxth	r3, r3
 309 019a 1AB2     		sxth	r2, r3
 310 019c 574B     		ldr	r3, .L5
 311 019e 1A84     		strh	r2, [r3, #32]
  93:BME280.c      **** 
  94:BME280.c      **** 	bme280.calibration.dig_H1 = ((uint8_t)(BME280_readRegister(BME280_DIG_H1_REG)));
 312              		.loc 1 94 0
 313 01a0 A120     		movs	r0, #161
 314 01a2 FFF7FEFF 		bl	BME280_readRegister
 315 01a6 0300     		movs	r3, r0
 316 01a8 1900     		movs	r1, r3
 317 01aa 544B     		ldr	r3, .L5
 318 01ac 2222     		movs	r2, #34
 319 01ae 9954     		strb	r1, [r3, r2]
  95:BME280.c      **** 	bme280.calibration.dig_H2 = ((int16_t)((BME280_readRegister(BME280_DIG_H2_MSB_REG) << 8) + BME280_
 320              		.loc 1 95 0
 321 01b0 E220     		movs	r0, #226
 322 01b2 FFF7FEFF 		bl	BME280_readRegister
 323 01b6 0300     		movs	r3, r0
 324 01b8 9BB2     		uxth	r3, r3
 325 01ba 1B02     		lsls	r3, r3, #8
 326 01bc 9CB2     		uxth	r4, r3
 327 01be E120     		movs	r0, #225
 328 01c0 FFF7FEFF 		bl	BME280_readRegister
 329 01c4 0300     		movs	r3, r0
 330 01c6 9BB2     		uxth	r3, r3
 331 01c8 E318     		adds	r3, r4, r3
 332 01ca 9BB2     		uxth	r3, r3
 333 01cc 1AB2     		sxth	r2, r3
 334 01ce 4B4B     		ldr	r3, .L5
 335 01d0 9A84     		strh	r2, [r3, #36]
  96:BME280.c      **** 	bme280.calibration.dig_H3 = ((uint8_t)(BME280_readRegister(BME280_DIG_H3_REG)));
 336              		.loc 1 96 0
 337 01d2 E320     		movs	r0, #227
 338 01d4 FFF7FEFF 		bl	BME280_readRegister
 339 01d8 0300     		movs	r3, r0
 340 01da 1900     		movs	r1, r3
 341 01dc 474B     		ldr	r3, .L5
 342 01de 2622     		movs	r2, #38
 343 01e0 9954     		strb	r1, [r3, r2]
  97:BME280.c      **** 	bme280.calibration.dig_H4 = ((int16_t)((BME280_readRegister(BME280_DIG_H4_MSB_REG) << 4) + (BME280
 344              		.loc 1 97 0
 345 01e2 E420     		movs	r0, #228
 346 01e4 FFF7FEFF 		bl	BME280_readRegister
 347 01e8 0300     		movs	r3, r0
 348 01ea 9BB2     		uxth	r3, r3
 349 01ec 1B01     		lsls	r3, r3, #4
 350 01ee 9CB2     		uxth	r4, r3
 351 01f0 E520     		movs	r0, #229
 352 01f2 FFF7FEFF 		bl	BME280_readRegister
 353 01f6 0300     		movs	r3, r0
 354 01f8 9BB2     		uxth	r3, r3
 355 01fa 0F22     		movs	r2, #15
ARM GAS  C:\Users\d4hhm\AppData\Local\Temp\cchY4aQw.s 			page 9


 356 01fc 1340     		ands	r3, r2
 357 01fe 9BB2     		uxth	r3, r3
 358 0200 E318     		adds	r3, r4, r3
 359 0202 9BB2     		uxth	r3, r3
 360 0204 1AB2     		sxth	r2, r3
 361 0206 3D4B     		ldr	r3, .L5
 362 0208 1A85     		strh	r2, [r3, #40]
  98:BME280.c      **** 	bme280.calibration.dig_H5 = ((int16_t)((BME280_readRegister(BME280_DIG_H5_MSB_REG) << 4) + ((BME28
 363              		.loc 1 98 0
 364 020a E620     		movs	r0, #230
 365 020c FFF7FEFF 		bl	BME280_readRegister
 366 0210 0300     		movs	r3, r0
 367 0212 9BB2     		uxth	r3, r3
 368 0214 1B01     		lsls	r3, r3, #4
 369 0216 9CB2     		uxth	r4, r3
 370 0218 E520     		movs	r0, #229
 371 021a FFF7FEFF 		bl	BME280_readRegister
 372 021e 0300     		movs	r3, r0
 373 0220 1B09     		lsrs	r3, r3, #4
 374 0222 DBB2     		uxtb	r3, r3
 375 0224 9BB2     		uxth	r3, r3
 376 0226 0F22     		movs	r2, #15
 377 0228 1340     		ands	r3, r2
 378 022a 9BB2     		uxth	r3, r3
 379 022c E318     		adds	r3, r4, r3
 380 022e 9BB2     		uxth	r3, r3
 381 0230 1AB2     		sxth	r2, r3
 382 0232 324B     		ldr	r3, .L5
 383 0234 5A85     		strh	r2, [r3, #42]
  99:BME280.c      **** 	bme280.calibration.dig_H6 = ((uint8_t)BME280_readRegister(BME280_DIG_H6_REG));
 384              		.loc 1 99 0
 385 0236 E720     		movs	r0, #231
 386 0238 FFF7FEFF 		bl	BME280_readRegister
 387 023c 0300     		movs	r3, r0
 388 023e 1900     		movs	r1, r3
 389 0240 2E4B     		ldr	r3, .L5
 390 0242 2C22     		movs	r2, #44
 391 0244 9954     		strb	r1, [r3, r2]
 100:BME280.c      **** 
 101:BME280.c      **** 	//Set the oversampling control words.
 102:BME280.c      **** 	//config will only be writeable in sleep mode, so first insure that.
 103:BME280.c      **** 	BME280_writeRegister(BME280_CTRL_MEAS_REG, 0x00);
 392              		.loc 1 103 0
 393 0246 0021     		movs	r1, #0
 394 0248 F420     		movs	r0, #244
 395 024a FFF7FEFF 		bl	BME280_writeRegister
 104:BME280.c      **** 	
 105:BME280.c      **** 	//Set the config word
 106:BME280.c      **** 	data_to_write = (bme280.settings.tStandby << 0x5) & 0xE0;
 396              		.loc 1 106 0
 397 024e 2B4B     		ldr	r3, .L5
 398 0250 1B79     		ldrb	r3, [r3, #4]
 399 0252 5A01     		lsls	r2, r3, #5
 400 0254 FB1D     		adds	r3, r7, #7
 401 0256 1A70     		strb	r2, [r3]
 107:BME280.c      **** 	data_to_write |= (bme280.settings.filter << 0x02) & 0x1C;
 402              		.loc 1 107 0
ARM GAS  C:\Users\d4hhm\AppData\Local\Temp\cchY4aQw.s 			page 10


 403 0258 284B     		ldr	r3, .L5
 404 025a 5B79     		ldrb	r3, [r3, #5]
 405 025c 9B00     		lsls	r3, r3, #2
 406 025e 5BB2     		sxtb	r3, r3
 407 0260 1C22     		movs	r2, #28
 408 0262 1340     		ands	r3, r2
 409 0264 5AB2     		sxtb	r2, r3
 410 0266 FB1D     		adds	r3, r7, #7
 411 0268 1B78     		ldrb	r3, [r3]
 412 026a 5BB2     		sxtb	r3, r3
 413 026c 1343     		orrs	r3, r2
 414 026e 5AB2     		sxtb	r2, r3
 415 0270 FB1D     		adds	r3, r7, #7
 416 0272 1A70     		strb	r2, [r3]
 108:BME280.c      **** 	BME280_writeRegister(BME280_CONFIG_REG, data_to_write);
 417              		.loc 1 108 0
 418 0274 FB1D     		adds	r3, r7, #7
 419 0276 1B78     		ldrb	r3, [r3]
 420 0278 1900     		movs	r1, r3
 421 027a F520     		movs	r0, #245
 422 027c FFF7FEFF 		bl	BME280_writeRegister
 109:BME280.c      **** 	
 110:BME280.c      **** 	//Set ctrl_hum first, then ctrl_meas to activate ctrl_hum
 111:BME280.c      **** 	data_to_write = bme280.settings.humidOverSample & 0x07; //all other bits can be ignored
 423              		.loc 1 111 0
 424 0280 1E4B     		ldr	r3, .L5
 425 0282 1A7A     		ldrb	r2, [r3, #8]
 426 0284 FB1D     		adds	r3, r7, #7
 427 0286 0721     		movs	r1, #7
 428 0288 0A40     		ands	r2, r1
 429 028a 1A70     		strb	r2, [r3]
 112:BME280.c      **** 	BME280_writeRegister(BME280_CTRL_HUMIDITY_REG, data_to_write);
 430              		.loc 1 112 0
 431 028c FB1D     		adds	r3, r7, #7
 432 028e 1B78     		ldrb	r3, [r3]
 433 0290 1900     		movs	r1, r3
 434 0292 F220     		movs	r0, #242
 435 0294 FFF7FEFF 		bl	BME280_writeRegister
 113:BME280.c      **** 	
 114:BME280.c      **** 	//set ctrl_meas
 115:BME280.c      **** 	//First, set temp oversampling
 116:BME280.c      **** 	data_to_write = (bme280.settings.tempOverSample << 0x05) & 0xE0;
 436              		.loc 1 116 0
 437 0298 184B     		ldr	r3, .L5
 438 029a 9B79     		ldrb	r3, [r3, #6]
 439 029c 5A01     		lsls	r2, r3, #5
 440 029e FB1D     		adds	r3, r7, #7
 441 02a0 1A70     		strb	r2, [r3]
 117:BME280.c      **** 	//Next, pressure oversampling
 118:BME280.c      **** 	data_to_write |= (bme280.settings.pressOverSample << 0x02) & 0x1C;
 442              		.loc 1 118 0
 443 02a2 164B     		ldr	r3, .L5
 444 02a4 DB79     		ldrb	r3, [r3, #7]
 445 02a6 9B00     		lsls	r3, r3, #2
 446 02a8 5BB2     		sxtb	r3, r3
 447 02aa 1C22     		movs	r2, #28
 448 02ac 1340     		ands	r3, r2
ARM GAS  C:\Users\d4hhm\AppData\Local\Temp\cchY4aQw.s 			page 11


 449 02ae 5AB2     		sxtb	r2, r3
 450 02b0 FB1D     		adds	r3, r7, #7
 451 02b2 1B78     		ldrb	r3, [r3]
 452 02b4 5BB2     		sxtb	r3, r3
 453 02b6 1343     		orrs	r3, r2
 454 02b8 5AB2     		sxtb	r2, r3
 455 02ba FB1D     		adds	r3, r7, #7
 456 02bc 1A70     		strb	r2, [r3]
 119:BME280.c      **** 	//Last, set mode
 120:BME280.c      **** 	data_to_write |= (bme280.settings.runMode) & 0x03;
 457              		.loc 1 120 0
 458 02be 0F4B     		ldr	r3, .L5
 459 02c0 DB78     		ldrb	r3, [r3, #3]
 460 02c2 5BB2     		sxtb	r3, r3
 461 02c4 0322     		movs	r2, #3
 462 02c6 1340     		ands	r3, r2
 463 02c8 5AB2     		sxtb	r2, r3
 464 02ca FB1D     		adds	r3, r7, #7
 465 02cc 1B78     		ldrb	r3, [r3]
 466 02ce 5BB2     		sxtb	r3, r3
 467 02d0 1343     		orrs	r3, r2
 468 02d2 5AB2     		sxtb	r2, r3
 469 02d4 FB1D     		adds	r3, r7, #7
 470 02d6 1A70     		strb	r2, [r3]
 121:BME280.c      **** 	//Load the byte
 122:BME280.c      **** 	BME280_writeRegister(BME280_CTRL_MEAS_REG, data_to_write);
 471              		.loc 1 122 0
 472 02d8 FB1D     		adds	r3, r7, #7
 473 02da 1B78     		ldrb	r3, [r3]
 474 02dc 1900     		movs	r1, r3
 475 02de F420     		movs	r0, #244
 476 02e0 FFF7FEFF 		bl	BME280_writeRegister
 123:BME280.c      **** 	
 124:BME280.c      ****     // dataToWrite is a placeholder for the value we will return
 125:BME280.c      **** 	device_address = BME280_readRegister(0xD0);
 477              		.loc 1 125 0
 478 02e4 BC1D     		adds	r4, r7, #6
 479 02e6 D020     		movs	r0, #208
 480 02e8 FFF7FEFF 		bl	BME280_readRegister
 481 02ec 0300     		movs	r3, r0
 482 02ee 2370     		strb	r3, [r4]
 126:BME280.c      ****     return device_address;
 483              		.loc 1 126 0
 484 02f0 BB1D     		adds	r3, r7, #6
 485 02f2 1B78     		ldrb	r3, [r3]
 127:BME280.c      **** }
 486              		.loc 1 127 0
 487 02f4 1800     		movs	r0, r3
 488 02f6 BD46     		mov	sp, r7
 489 02f8 03B0     		add	sp, sp, #12
 490              		@ sp needed
 491 02fa 90BD     		pop	{r4, r7, pc}
 492              	.L6:
 493              		.align	2
 494              	.L5:
 495 02fc 00000000 		.word	bme280
 496              		.cfi_endproc
ARM GAS  C:\Users\d4hhm\AppData\Local\Temp\cchY4aQw.s 			page 12


 497              	.LFE37:
 498              		.size	BME280_init, .-BME280_init
 499              		.section	.text.BME280_reset,"ax",%progbits
 500              		.align	2
 501              		.global	BME280_reset
 502              		.code	16
 503              		.thumb_func
 504              		.type	BME280_reset, %function
 505              	BME280_reset:
 506              	.LFB38:
 128:BME280.c      **** 
 129:BME280.c      **** //Strictly resets.  Run BME280_init() afterwards
 130:BME280.c      **** void BME280_reset()
 131:BME280.c      **** {
 507              		.loc 1 131 0
 508              		.cfi_startproc
 509              		@ args = 0, pretend = 0, frame = 0
 510              		@ frame_needed = 1, uses_anonymous_args = 0
 511 0000 80B5     		push	{r7, lr}
 512              		.cfi_def_cfa_offset 8
 513              		.cfi_offset 7, -8
 514              		.cfi_offset 14, -4
 515 0002 00AF     		add	r7, sp, #0
 516              		.cfi_def_cfa_register 7
 132:BME280.c      **** 	BME280_writeRegister(BME280_RST_REG, 0xB6);
 517              		.loc 1 132 0
 518 0004 B621     		movs	r1, #182
 519 0006 E020     		movs	r0, #224
 520 0008 FFF7FEFF 		bl	BME280_writeRegister
 133:BME280.c      **** 	
 134:BME280.c      **** }
 521              		.loc 1 134 0
 522 000c C046     		nop
 523 000e BD46     		mov	sp, r7
 524              		@ sp needed
 525 0010 80BD     		pop	{r7, pc}
 526              		.cfi_endproc
 527              	.LFE38:
 528              		.size	BME280_reset, .-BME280_reset
 529              		.global	__aeabi_lmul
 530              		.global	__aeabi_ldivmod
 531              		.global	__aeabi_l2f
 532              		.global	__aeabi_fdiv
 533 0012 C046     		.section	.text.BME280_readFloatPressure,"ax",%progbits
 534              		.align	2
 535              		.global	BME280_readFloatPressure
 536              		.code	16
 537              		.thumb_func
 538              		.type	BME280_readFloatPressure, %function
 539              	BME280_readFloatPressure:
 540              	.LFB39:
 135:BME280.c      **** 
 136:BME280.c      **** //****************************************************************************//
 137:BME280.c      **** //
 138:BME280.c      **** //  Pressure Section
 139:BME280.c      **** //
 140:BME280.c      **** //****************************************************************************//
ARM GAS  C:\Users\d4hhm\AppData\Local\Temp\cchY4aQw.s 			page 13


 141:BME280.c      **** float BME280_readFloatPressure( void )
 142:BME280.c      **** {
 541              		.loc 1 142 0
 542              		.cfi_startproc
 543              		@ args = 0, pretend = 0, frame = 176
 544              		@ frame_needed = 1, uses_anonymous_args = 0
 545 0000 F0B5     		push	{r4, r5, r6, r7, lr}
 546              		.cfi_def_cfa_offset 20
 547              		.cfi_offset 4, -20
 548              		.cfi_offset 5, -16
 549              		.cfi_offset 6, -12
 550              		.cfi_offset 7, -8
 551              		.cfi_offset 14, -4
 552 0002 ADB0     		sub	sp, sp, #180
 553              		.cfi_def_cfa_offset 200
 554 0004 00AF     		add	r7, sp, #0
 555              		.cfi_def_cfa_register 7
 143:BME280.c      **** 
 144:BME280.c      **** 	// Returns pressure in Pa as unsigned 32 bit integer in Q24.8 format (24 integer bits and 8 fracti
 145:BME280.c      **** 	// Output value of “24674867” represents 24674867/256 = 96386.2 Pa = 963.862 hPa
 146:BME280.c      **** 	int32_t adc_P = ((uint32_t)BME280_readRegister(BME280_PRESSURE_MSB_REG) << 12) | ((uint32_t)BME280
 556              		.loc 1 146 0
 557 0006 F720     		movs	r0, #247
 558 0008 FFF7FEFF 		bl	BME280_readRegister
 559 000c 0300     		movs	r3, r0
 560 000e 1C03     		lsls	r4, r3, #12
 561 0010 F820     		movs	r0, #248
 562 0012 FFF7FEFF 		bl	BME280_readRegister
 563 0016 0300     		movs	r3, r0
 564 0018 1B01     		lsls	r3, r3, #4
 565 001a 1C43     		orrs	r4, r3
 566 001c F920     		movs	r0, #249
 567 001e FFF7FEFF 		bl	BME280_readRegister
 568 0022 0300     		movs	r3, r0
 569 0024 1B09     		lsrs	r3, r3, #4
 570 0026 DBB2     		uxtb	r3, r3
 571 0028 1A00     		movs	r2, r3
 572 002a 0F23     		movs	r3, #15
 573 002c 1340     		ands	r3, r2
 574 002e 2343     		orrs	r3, r4
 575 0030 AC22     		movs	r2, #172
 576 0032 BA18     		adds	r2, r7, r2
 577 0034 1360     		str	r3, [r2]
 147:BME280.c      **** 	
 148:BME280.c      **** 	int64_t var1, var2, p_acc;
 149:BME280.c      **** 	var1 = ((int64_t) bme280.t_fine) - 128000;
 578              		.loc 1 149 0
 579 0036 724B     		ldr	r3, .L11
 580 0038 1B6B     		ldr	r3, [r3, #48]
 581 003a 3B65     		str	r3, [r7, #80]
 582 003c DB17     		asrs	r3, r3, #31
 583 003e 7B65     		str	r3, [r7, #84]
 584 0040 704B     		ldr	r3, .L11+4
 585 0042 0124     		movs	r4, #1
 586 0044 6442     		rsbs	r4, r4, #0
 587 0046 396D     		ldr	r1, [r7, #80]
 588 0048 7A6D     		ldr	r2, [r7, #84]
ARM GAS  C:\Users\d4hhm\AppData\Local\Temp\cchY4aQw.s 			page 14


 589 004a C918     		adds	r1, r1, r3
 590 004c 6241     		adcs	r2, r2, r4
 591 004e 0B00     		movs	r3, r1
 592 0050 1400     		movs	r4, r2
 593 0052 A022     		movs	r2, #160
 594 0054 BA18     		adds	r2, r7, r2
 595 0056 1360     		str	r3, [r2]
 596 0058 5460     		str	r4, [r2, #4]
 150:BME280.c      **** 	var2 = var1 * var1 * (int64_t) bme280.calibration.dig_P6;
 597              		.loc 1 150 0
 598 005a A023     		movs	r3, #160
 599 005c FB18     		adds	r3, r7, r3
 600 005e 1A68     		ldr	r2, [r3]
 601 0060 5B68     		ldr	r3, [r3, #4]
 602 0062 A021     		movs	r1, #160
 603 0064 7918     		adds	r1, r7, r1
 604 0066 0868     		ldr	r0, [r1]
 605 0068 4968     		ldr	r1, [r1, #4]
 606 006a FFF7FEFF 		bl	__aeabi_lmul
 607 006e 0300     		movs	r3, r0
 608 0070 0C00     		movs	r4, r1
 609 0072 1800     		movs	r0, r3
 610 0074 2100     		movs	r1, r4
 611 0076 624B     		ldr	r3, .L11
 612 0078 1A22     		movs	r2, #26
 613 007a 9B5E     		ldrsh	r3, [r3, r2]
 614 007c BB64     		str	r3, [r7, #72]
 615 007e DB17     		asrs	r3, r3, #31
 616 0080 FB64     		str	r3, [r7, #76]
 617 0082 BA6C     		ldr	r2, [r7, #72]
 618 0084 FB6C     		ldr	r3, [r7, #76]
 619 0086 FFF7FEFF 		bl	__aeabi_lmul
 620 008a 0300     		movs	r3, r0
 621 008c 0C00     		movs	r4, r1
 622 008e 9822     		movs	r2, #152
 623 0090 BA18     		adds	r2, r7, r2
 624 0092 1360     		str	r3, [r2]
 625 0094 5460     		str	r4, [r2, #4]
 151:BME280.c      **** 	var2 = var2 + ((var1 * (int64_t) bme280.calibration.dig_P5)<<17);
 626              		.loc 1 151 0
 627 0096 5A4B     		ldr	r3, .L11
 628 0098 1822     		movs	r2, #24
 629 009a 9B5E     		ldrsh	r3, [r3, r2]
 630 009c 3B64     		str	r3, [r7, #64]
 631 009e DB17     		asrs	r3, r3, #31
 632 00a0 7B64     		str	r3, [r7, #68]
 633 00a2 A023     		movs	r3, #160
 634 00a4 FB18     		adds	r3, r7, r3
 635 00a6 1A68     		ldr	r2, [r3]
 636 00a8 5B68     		ldr	r3, [r3, #4]
 637 00aa 386C     		ldr	r0, [r7, #64]
 638 00ac 796C     		ldr	r1, [r7, #68]
 639 00ae FFF7FEFF 		bl	__aeabi_lmul
 640 00b2 0300     		movs	r3, r0
 641 00b4 0C00     		movs	r4, r1
 642 00b6 DA0B     		lsrs	r2, r3, #15
 643 00b8 6604     		lsls	r6, r4, #17
ARM GAS  C:\Users\d4hhm\AppData\Local\Temp\cchY4aQw.s 			page 15


 644 00ba 1643     		orrs	r6, r2
 645 00bc 5D04     		lsls	r5, r3, #17
 646 00be 9823     		movs	r3, #152
 647 00c0 FB18     		adds	r3, r7, r3
 648 00c2 5C68     		ldr	r4, [r3, #4]
 649 00c4 1B68     		ldr	r3, [r3]
 650 00c6 5B19     		adds	r3, r3, r5
 651 00c8 7441     		adcs	r4, r4, r6
 652 00ca 9822     		movs	r2, #152
 653 00cc BA18     		adds	r2, r7, r2
 654 00ce 1360     		str	r3, [r2]
 655 00d0 5460     		str	r4, [r2, #4]
 152:BME280.c      **** 	var2 = var2 + (((int64_t) bme280.calibration.dig_P4)<<35);
 656              		.loc 1 152 0
 657 00d2 4B4B     		ldr	r3, .L11
 658 00d4 1622     		movs	r2, #22
 659 00d6 9B5E     		ldrsh	r3, [r3, r2]
 660 00d8 BB63     		str	r3, [r7, #56]
 661 00da DB17     		asrs	r3, r3, #31
 662 00dc FB63     		str	r3, [r7, #60]
 663 00de BB6B     		ldr	r3, [r7, #56]
 664 00e0 DB00     		lsls	r3, r3, #3
 665 00e2 7B63     		str	r3, [r7, #52]
 666 00e4 0023     		movs	r3, #0
 667 00e6 3B63     		str	r3, [r7, #48]
 668 00e8 9823     		movs	r3, #152
 669 00ea FB18     		adds	r3, r7, r3
 670 00ec 5C68     		ldr	r4, [r3, #4]
 671 00ee 1B68     		ldr	r3, [r3]
 672 00f0 396B     		ldr	r1, [r7, #48]
 673 00f2 7A6B     		ldr	r2, [r7, #52]
 674 00f4 5B18     		adds	r3, r3, r1
 675 00f6 5441     		adcs	r4, r4, r2
 676 00f8 9822     		movs	r2, #152
 677 00fa BA18     		adds	r2, r7, r2
 678 00fc 1360     		str	r3, [r2]
 679 00fe 5460     		str	r4, [r2, #4]
 153:BME280.c      **** 	var1 = ((var1 * var1 * (int64_t) bme280.calibration.dig_P3)>>8) + ((var1 * (int64_t) bme280.calibr
 680              		.loc 1 153 0
 681 0100 A023     		movs	r3, #160
 682 0102 FB18     		adds	r3, r7, r3
 683 0104 1A68     		ldr	r2, [r3]
 684 0106 5B68     		ldr	r3, [r3, #4]
 685 0108 A021     		movs	r1, #160
 686 010a 7918     		adds	r1, r7, r1
 687 010c 0868     		ldr	r0, [r1]
 688 010e 4968     		ldr	r1, [r1, #4]
 689 0110 FFF7FEFF 		bl	__aeabi_lmul
 690 0114 0300     		movs	r3, r0
 691 0116 0C00     		movs	r4, r1
 692 0118 1800     		movs	r0, r3
 693 011a 2100     		movs	r1, r4
 694 011c 384B     		ldr	r3, .L11
 695 011e 1422     		movs	r2, #20
 696 0120 9B5E     		ldrsh	r3, [r3, r2]
 697 0122 BB62     		str	r3, [r7, #40]
 698 0124 DB17     		asrs	r3, r3, #31
ARM GAS  C:\Users\d4hhm\AppData\Local\Temp\cchY4aQw.s 			page 16


 699 0126 FB62     		str	r3, [r7, #44]
 700 0128 BA6A     		ldr	r2, [r7, #40]
 701 012a FB6A     		ldr	r3, [r7, #44]
 702 012c FFF7FEFF 		bl	__aeabi_lmul
 703 0130 0300     		movs	r3, r0
 704 0132 0C00     		movs	r4, r1
 705 0134 2206     		lsls	r2, r4, #24
 706 0136 190A     		lsrs	r1, r3, #8
 707 0138 8820     		movs	r0, #136
 708 013a 3818     		adds	r0, r7, r0
 709 013c 0160     		str	r1, [r0]
 710 013e 8821     		movs	r1, #136
 711 0140 7918     		adds	r1, r7, r1
 712 0142 0968     		ldr	r1, [r1]
 713 0144 1143     		orrs	r1, r2
 714 0146 8822     		movs	r2, #136
 715 0148 BA18     		adds	r2, r7, r2
 716 014a 1160     		str	r1, [r2]
 717 014c 2312     		asrs	r3, r4, #8
 718 014e 8C22     		movs	r2, #140
 719 0150 BA18     		adds	r2, r7, r2
 720 0152 1360     		str	r3, [r2]
 721 0154 2A4B     		ldr	r3, .L11
 722 0156 1222     		movs	r2, #18
 723 0158 9B5E     		ldrsh	r3, [r3, r2]
 724 015a 3B62     		str	r3, [r7, #32]
 725 015c DB17     		asrs	r3, r3, #31
 726 015e 7B62     		str	r3, [r7, #36]
 727 0160 A023     		movs	r3, #160
 728 0162 FB18     		adds	r3, r7, r3
 729 0164 1A68     		ldr	r2, [r3]
 730 0166 5B68     		ldr	r3, [r3, #4]
 731 0168 386A     		ldr	r0, [r7, #32]
 732 016a 796A     		ldr	r1, [r7, #36]
 733 016c FFF7FEFF 		bl	__aeabi_lmul
 734 0170 0300     		movs	r3, r0
 735 0172 0C00     		movs	r4, r1
 736 0174 1A0D     		lsrs	r2, r3, #20
 737 0176 2103     		lsls	r1, r4, #12
 738 0178 8420     		movs	r0, #132
 739 017a 3818     		adds	r0, r7, r0
 740 017c 0160     		str	r1, [r0]
 741 017e 8421     		movs	r1, #132
 742 0180 7918     		adds	r1, r7, r1
 743 0182 0968     		ldr	r1, [r1]
 744 0184 1143     		orrs	r1, r2
 745 0186 8422     		movs	r2, #132
 746 0188 BA18     		adds	r2, r7, r2
 747 018a 1160     		str	r1, [r2]
 748 018c 1B03     		lsls	r3, r3, #12
 749 018e 8022     		movs	r2, #128
 750 0190 BA18     		adds	r2, r7, r2
 751 0192 1360     		str	r3, [r2]
 752 0194 8823     		movs	r3, #136
 753 0196 FB18     		adds	r3, r7, r3
 754 0198 5C68     		ldr	r4, [r3, #4]
 755 019a 1B68     		ldr	r3, [r3]
ARM GAS  C:\Users\d4hhm\AppData\Local\Temp\cchY4aQw.s 			page 17


 756 019c 8022     		movs	r2, #128
 757 019e BA18     		adds	r2, r7, r2
 758 01a0 1168     		ldr	r1, [r2]
 759 01a2 5268     		ldr	r2, [r2, #4]
 760 01a4 5B18     		adds	r3, r3, r1
 761 01a6 5441     		adcs	r4, r4, r2
 762 01a8 A022     		movs	r2, #160
 763 01aa BA18     		adds	r2, r7, r2
 764 01ac 1360     		str	r3, [r2]
 765 01ae 5460     		str	r4, [r2, #4]
 154:BME280.c      **** 	var1 = (((((int64_t)1)<<47)+var1))*((int64_t) bme280.calibration.dig_P1)>>33;
 766              		.loc 1 154 0
 767 01b0 A023     		movs	r3, #160
 768 01b2 FB18     		adds	r3, r7, r3
 769 01b4 1968     		ldr	r1, [r3]
 770 01b6 5A68     		ldr	r2, [r3, #4]
 771 01b8 0023     		movs	r3, #0
 772 01ba 8024     		movs	r4, #128
 773 01bc 2402     		lsls	r4, r4, #8
 774 01be C918     		adds	r1, r1, r3
 775 01c0 6241     		adcs	r2, r2, r4
 776 01c2 0800     		movs	r0, r1
 777 01c4 1100     		movs	r1, r2
 778 01c6 0E4B     		ldr	r3, .L11
 779 01c8 1B8A     		ldrh	r3, [r3, #16]
 780 01ca BB61     		str	r3, [r7, #24]
 781 01cc 0023     		movs	r3, #0
 782 01ce FB61     		str	r3, [r7, #28]
 783 01d0 BA69     		ldr	r2, [r7, #24]
 784 01d2 FB69     		ldr	r3, [r7, #28]
 785 01d4 FFF7FEFF 		bl	__aeabi_lmul
 786 01d8 0300     		movs	r3, r0
 787 01da 0C00     		movs	r4, r1
 788 01dc 6210     		asrs	r2, r4, #1
 789 01de A021     		movs	r1, #160
 790 01e0 7918     		adds	r1, r7, r1
 791 01e2 0A60     		str	r2, [r1]
 792 01e4 E317     		asrs	r3, r4, #31
 793 01e6 A422     		movs	r2, #164
 794 01e8 BA18     		adds	r2, r7, r2
 795 01ea 1360     		str	r3, [r2]
 155:BME280.c      **** 	if (var1 == 0)
 796              		.loc 1 155 0
 797 01ec A023     		movs	r3, #160
 798 01ee FB18     		adds	r3, r7, r3
 799 01f0 1A68     		ldr	r2, [r3]
 800 01f2 A423     		movs	r3, #164
 801 01f4 FB18     		adds	r3, r7, r3
 802 01f6 1B68     		ldr	r3, [r3]
 803 01f8 1A43     		orrs	r2, r3
 804 01fa 05D1     		bne	.L9
 156:BME280.c      **** 	{
 157:BME280.c      **** 		return 0; // avoid exception caused by division by zero
 805              		.loc 1 157 0
 806 01fc 0023     		movs	r3, #0
 807 01fe E0E0     		b	.L10
 808              	.L12:
ARM GAS  C:\Users\d4hhm\AppData\Local\Temp\cchY4aQw.s 			page 18


 809              		.align	2
 810              	.L11:
 811 0200 00000000 		.word	bme280
 812 0204 000CFEFF 		.word	-128000
 813              	.L9:
 158:BME280.c      **** 	}
 159:BME280.c      **** 	p_acc = 1048576 - adc_P;
 814              		.loc 1 159 0
 815 0208 AC23     		movs	r3, #172
 816 020a FB18     		adds	r3, r7, r3
 817 020c 1A68     		ldr	r2, [r3]
 818 020e 8023     		movs	r3, #128
 819 0210 5B03     		lsls	r3, r3, #13
 820 0212 9B1A     		subs	r3, r3, r2
 821 0214 9022     		movs	r2, #144
 822 0216 BA18     		adds	r2, r7, r2
 823 0218 1360     		str	r3, [r2]
 824 021a DB17     		asrs	r3, r3, #31
 825 021c 9422     		movs	r2, #148
 826 021e BA18     		adds	r2, r7, r2
 827 0220 1360     		str	r3, [r2]
 160:BME280.c      **** 	p_acc = (((p_acc<<31) - var2)*3125)/var1;
 828              		.loc 1 160 0
 829 0222 9023     		movs	r3, #144
 830 0224 FB18     		adds	r3, r7, r3
 831 0226 1B68     		ldr	r3, [r3]
 832 0228 5A08     		lsrs	r2, r3, #1
 833 022a 9423     		movs	r3, #148
 834 022c FB18     		adds	r3, r7, r3
 835 022e 1B68     		ldr	r3, [r3]
 836 0230 DB07     		lsls	r3, r3, #31
 837 0232 FB67     		str	r3, [r7, #124]
 838 0234 FB6F     		ldr	r3, [r7, #124]
 839 0236 1343     		orrs	r3, r2
 840 0238 FB67     		str	r3, [r7, #124]
 841 023a 9023     		movs	r3, #144
 842 023c FB18     		adds	r3, r7, r3
 843 023e 1B68     		ldr	r3, [r3]
 844 0240 DB07     		lsls	r3, r3, #31
 845 0242 BB67     		str	r3, [r7, #120]
 846 0244 9823     		movs	r3, #152
 847 0246 FB18     		adds	r3, r7, r3
 848 0248 5C68     		ldr	r4, [r3, #4]
 849 024a 1B68     		ldr	r3, [r3]
 850 024c B86F     		ldr	r0, [r7, #120]
 851 024e F96F     		ldr	r1, [r7, #124]
 852 0250 C01A     		subs	r0, r0, r3
 853 0252 A141     		sbcs	r1, r1, r4
 854 0254 5D4A     		ldr	r2, .L13
 855 0256 0023     		movs	r3, #0
 856 0258 FFF7FEFF 		bl	__aeabi_lmul
 857 025c 0300     		movs	r3, r0
 858 025e 0C00     		movs	r4, r1
 859 0260 1800     		movs	r0, r3
 860 0262 2100     		movs	r1, r4
 861 0264 A023     		movs	r3, #160
 862 0266 FB18     		adds	r3, r7, r3
ARM GAS  C:\Users\d4hhm\AppData\Local\Temp\cchY4aQw.s 			page 19


 863 0268 1A68     		ldr	r2, [r3]
 864 026a 5B68     		ldr	r3, [r3, #4]
 865 026c FFF7FEFF 		bl	__aeabi_ldivmod
 866 0270 0300     		movs	r3, r0
 867 0272 0C00     		movs	r4, r1
 868 0274 9022     		movs	r2, #144
 869 0276 BA18     		adds	r2, r7, r2
 870 0278 1360     		str	r3, [r2]
 871 027a 5460     		str	r4, [r2, #4]
 161:BME280.c      **** 	var1 = (((int64_t) bme280.calibration.dig_P9) * (p_acc>>13) * (p_acc>>13)) >> 25;
 872              		.loc 1 161 0
 873 027c 544B     		ldr	r3, .L13+4
 874 027e 2022     		movs	r2, #32
 875 0280 9B5E     		ldrsh	r3, [r3, r2]
 876 0282 3B61     		str	r3, [r7, #16]
 877 0284 DB17     		asrs	r3, r3, #31
 878 0286 7B61     		str	r3, [r7, #20]
 879 0288 9423     		movs	r3, #148
 880 028a FB18     		adds	r3, r7, r3
 881 028c 1B68     		ldr	r3, [r3]
 882 028e DA04     		lsls	r2, r3, #19
 883 0290 9023     		movs	r3, #144
 884 0292 FB18     		adds	r3, r7, r3
 885 0294 1B68     		ldr	r3, [r3]
 886 0296 5B0B     		lsrs	r3, r3, #13
 887 0298 3B67     		str	r3, [r7, #112]
 888 029a 3B6F     		ldr	r3, [r7, #112]
 889 029c 1343     		orrs	r3, r2
 890 029e 3B67     		str	r3, [r7, #112]
 891 02a0 9423     		movs	r3, #148
 892 02a2 FB18     		adds	r3, r7, r3
 893 02a4 1B68     		ldr	r3, [r3]
 894 02a6 5B13     		asrs	r3, r3, #13
 895 02a8 7B67     		str	r3, [r7, #116]
 896 02aa 3A6F     		ldr	r2, [r7, #112]
 897 02ac 7B6F     		ldr	r3, [r7, #116]
 898 02ae 3869     		ldr	r0, [r7, #16]
 899 02b0 7969     		ldr	r1, [r7, #20]
 900 02b2 FFF7FEFF 		bl	__aeabi_lmul
 901 02b6 0300     		movs	r3, r0
 902 02b8 0C00     		movs	r4, r1
 903 02ba 1800     		movs	r0, r3
 904 02bc 2100     		movs	r1, r4
 905 02be 9423     		movs	r3, #148
 906 02c0 FB18     		adds	r3, r7, r3
 907 02c2 1B68     		ldr	r3, [r3]
 908 02c4 DA04     		lsls	r2, r3, #19
 909 02c6 9023     		movs	r3, #144
 910 02c8 FB18     		adds	r3, r7, r3
 911 02ca 1B68     		ldr	r3, [r3]
 912 02cc 5B0B     		lsrs	r3, r3, #13
 913 02ce BB66     		str	r3, [r7, #104]
 914 02d0 BB6E     		ldr	r3, [r7, #104]
 915 02d2 1343     		orrs	r3, r2
 916 02d4 BB66     		str	r3, [r7, #104]
 917 02d6 9423     		movs	r3, #148
 918 02d8 FB18     		adds	r3, r7, r3
ARM GAS  C:\Users\d4hhm\AppData\Local\Temp\cchY4aQw.s 			page 20


 919 02da 1B68     		ldr	r3, [r3]
 920 02dc 5B13     		asrs	r3, r3, #13
 921 02de FB66     		str	r3, [r7, #108]
 922 02e0 BA6E     		ldr	r2, [r7, #104]
 923 02e2 FB6E     		ldr	r3, [r7, #108]
 924 02e4 FFF7FEFF 		bl	__aeabi_lmul
 925 02e8 0300     		movs	r3, r0
 926 02ea 0C00     		movs	r4, r1
 927 02ec E201     		lsls	r2, r4, #7
 928 02ee 590E     		lsrs	r1, r3, #25
 929 02f0 0A43     		orrs	r2, r1
 930 02f2 A021     		movs	r1, #160
 931 02f4 7918     		adds	r1, r7, r1
 932 02f6 0A60     		str	r2, [r1]
 933 02f8 6316     		asrs	r3, r4, #25
 934 02fa A422     		movs	r2, #164
 935 02fc BA18     		adds	r2, r7, r2
 936 02fe 1360     		str	r3, [r2]
 162:BME280.c      **** 	var2 = (((int64_t) bme280.calibration.dig_P8) * p_acc) >> 19;
 937              		.loc 1 162 0
 938 0300 334B     		ldr	r3, .L13+4
 939 0302 1E22     		movs	r2, #30
 940 0304 9B5E     		ldrsh	r3, [r3, r2]
 941 0306 BB60     		str	r3, [r7, #8]
 942 0308 DB17     		asrs	r3, r3, #31
 943 030a FB60     		str	r3, [r7, #12]
 944 030c 9023     		movs	r3, #144
 945 030e FB18     		adds	r3, r7, r3
 946 0310 1A68     		ldr	r2, [r3]
 947 0312 5B68     		ldr	r3, [r3, #4]
 948 0314 B868     		ldr	r0, [r7, #8]
 949 0316 F968     		ldr	r1, [r7, #12]
 950 0318 FFF7FEFF 		bl	__aeabi_lmul
 951 031c 0300     		movs	r3, r0
 952 031e 0C00     		movs	r4, r1
 953 0320 6203     		lsls	r2, r4, #13
 954 0322 D90C     		lsrs	r1, r3, #19
 955 0324 0A43     		orrs	r2, r1
 956 0326 9821     		movs	r1, #152
 957 0328 7918     		adds	r1, r7, r1
 958 032a 0A60     		str	r2, [r1]
 959 032c E314     		asrs	r3, r4, #19
 960 032e 9C22     		movs	r2, #156
 961 0330 BA18     		adds	r2, r7, r2
 962 0332 1360     		str	r3, [r2]
 163:BME280.c      **** 	p_acc = ((p_acc + var1 + var2) >> 8) + (((int64_t) bme280.calibration.dig_P7)<<4);
 963              		.loc 1 163 0
 964 0334 9023     		movs	r3, #144
 965 0336 FB18     		adds	r3, r7, r3
 966 0338 1968     		ldr	r1, [r3]
 967 033a 5A68     		ldr	r2, [r3, #4]
 968 033c A023     		movs	r3, #160
 969 033e FB18     		adds	r3, r7, r3
 970 0340 5C68     		ldr	r4, [r3, #4]
 971 0342 1B68     		ldr	r3, [r3]
 972 0344 C918     		adds	r1, r1, r3
 973 0346 6241     		adcs	r2, r2, r4
ARM GAS  C:\Users\d4hhm\AppData\Local\Temp\cchY4aQw.s 			page 21


 974 0348 9823     		movs	r3, #152
 975 034a FB18     		adds	r3, r7, r3
 976 034c 5C68     		ldr	r4, [r3, #4]
 977 034e 1B68     		ldr	r3, [r3]
 978 0350 5B18     		adds	r3, r3, r1
 979 0352 5441     		adcs	r4, r4, r2
 980 0354 2206     		lsls	r2, r4, #24
 981 0356 190A     		lsrs	r1, r3, #8
 982 0358 3966     		str	r1, [r7, #96]
 983 035a 396E     		ldr	r1, [r7, #96]
 984 035c 1143     		orrs	r1, r2
 985 035e 3966     		str	r1, [r7, #96]
 986 0360 2312     		asrs	r3, r4, #8
 987 0362 7B66     		str	r3, [r7, #100]
 988 0364 1A4B     		ldr	r3, .L13+4
 989 0366 1C22     		movs	r2, #28
 990 0368 9B5E     		ldrsh	r3, [r3, r2]
 991 036a 3B60     		str	r3, [r7]
 992 036c DB17     		asrs	r3, r3, #31
 993 036e 7B60     		str	r3, [r7, #4]
 994 0370 3968     		ldr	r1, [r7]
 995 0372 7A68     		ldr	r2, [r7, #4]
 996 0374 0B00     		movs	r3, r1
 997 0376 1B0F     		lsrs	r3, r3, #28
 998 0378 1000     		movs	r0, r2
 999 037a 0001     		lsls	r0, r0, #4
 1000 037c F865     		str	r0, [r7, #92]
 1001 037e F86D     		ldr	r0, [r7, #92]
 1002 0380 1843     		orrs	r0, r3
 1003 0382 F865     		str	r0, [r7, #92]
 1004 0384 0B00     		movs	r3, r1
 1005 0386 1B01     		lsls	r3, r3, #4
 1006 0388 BB65     		str	r3, [r7, #88]
 1007 038a 3B6E     		ldr	r3, [r7, #96]
 1008 038c 7C6E     		ldr	r4, [r7, #100]
 1009 038e B96D     		ldr	r1, [r7, #88]
 1010 0390 FA6D     		ldr	r2, [r7, #92]
 1011 0392 5B18     		adds	r3, r3, r1
 1012 0394 5441     		adcs	r4, r4, r2
 1013 0396 9022     		movs	r2, #144
 1014 0398 BA18     		adds	r2, r7, r2
 1015 039a 1360     		str	r3, [r2]
 1016 039c 5460     		str	r4, [r2, #4]
 164:BME280.c      **** 	
 165:BME280.c      ****     bme280.press_Pa = (float)p_acc / 256.0;
 1017              		.loc 1 165 0
 1018 039e 9023     		movs	r3, #144
 1019 03a0 FB18     		adds	r3, r7, r3
 1020 03a2 1868     		ldr	r0, [r3]
 1021 03a4 5968     		ldr	r1, [r3, #4]
 1022 03a6 FFF7FEFF 		bl	__aeabi_l2f
 1023 03aa 031C     		adds	r3, r0, #0
 1024 03ac 8721     		movs	r1, #135
 1025 03ae C905     		lsls	r1, r1, #23
 1026 03b0 181C     		adds	r0, r3, #0
 1027 03b2 FFF7FEFF 		bl	__aeabi_fdiv
 1028 03b6 031C     		adds	r3, r0, #0
ARM GAS  C:\Users\d4hhm\AppData\Local\Temp\cchY4aQw.s 			page 22


 1029 03b8 1A1C     		adds	r2, r3, #0
 1030 03ba 054B     		ldr	r3, .L13+4
 1031 03bc 9A63     		str	r2, [r3, #56]
 166:BME280.c      ****     return bme280.press_Pa;
 1032              		.loc 1 166 0
 1033 03be 044B     		ldr	r3, .L13+4
 1034 03c0 9B6B     		ldr	r3, [r3, #56]
 1035              	.L10:
 167:BME280.c      **** 	
 168:BME280.c      **** }
 1036              		.loc 1 168 0
 1037 03c2 181C     		adds	r0, r3, #0
 1038 03c4 BD46     		mov	sp, r7
 1039 03c6 2DB0     		add	sp, sp, #180
 1040              		@ sp needed
 1041 03c8 F0BD     		pop	{r4, r5, r6, r7, pc}
 1042              	.L14:
 1043 03ca C046     		.align	2
 1044              	.L13:
 1045 03cc 350C0000 		.word	3125
 1046 03d0 00000000 		.word	bme280
 1047              		.cfi_endproc
 1048              	.LFE39:
 1049              		.size	BME280_readFloatPressure, .-BME280_readFloatPressure
 1050              		.global	__aeabi_f2d
 1051              		.global	__aeabi_dsub
 1052              		.global	__aeabi_dmul
 1053              		.global	__aeabi_d2f
 1054              		.section	.text.BME280_readFloatAltitudeMeters,"ax",%progbits
 1055              		.align	2
 1056              		.global	BME280_readFloatAltitudeMeters
 1057              		.code	16
 1058              		.thumb_func
 1059              		.type	BME280_readFloatAltitudeMeters, %function
 1060              	BME280_readFloatAltitudeMeters:
 1061              	.LFB40:
 169:BME280.c      **** 
 170:BME280.c      **** float BME280_readFloatAltitudeMeters( void )
 171:BME280.c      **** {
 1062              		.loc 1 171 0
 1063              		.cfi_startproc
 1064              		@ args = 0, pretend = 0, frame = 8
 1065              		@ frame_needed = 1, uses_anonymous_args = 0
 1066 0000 90B5     		push	{r4, r7, lr}
 1067              		.cfi_def_cfa_offset 12
 1068              		.cfi_offset 4, -12
 1069              		.cfi_offset 7, -8
 1070              		.cfi_offset 14, -4
 1071 0002 83B0     		sub	sp, sp, #12
 1072              		.cfi_def_cfa_offset 24
 1073 0004 00AF     		add	r7, sp, #0
 1074              		.cfi_def_cfa_register 7
 172:BME280.c      **** 	float heightOutput = 0;
 1075              		.loc 1 172 0
 1076 0006 0023     		movs	r3, #0
 1077 0008 7B60     		str	r3, [r7, #4]
 173:BME280.c      **** 	
ARM GAS  C:\Users\d4hhm\AppData\Local\Temp\cchY4aQw.s 			page 23


 174:BME280.c      **** 	heightOutput = ((float)-45846.2)*(pow(((float) BME280_readFloatPressure()/(float) P_SURFACE), 0.19
 1078              		.loc 1 174 0
 1079 000a FFF7FEFF 		bl	BME280_readFloatPressure
 1080 000e 031C     		adds	r3, r0, #0
 1081 0010 1349     		ldr	r1, .L17
 1082 0012 181C     		adds	r0, r3, #0
 1083 0014 FFF7FEFF 		bl	__aeabi_fdiv
 1084 0018 031C     		adds	r3, r0, #0
 1085 001a 181C     		adds	r0, r3, #0
 1086 001c FFF7FEFF 		bl	__aeabi_f2d
 1087 0020 104B     		ldr	r3, .L17+4
 1088 0022 114C     		ldr	r4, .L17+8
 1089 0024 1A00     		movs	r2, r3
 1090 0026 2300     		movs	r3, r4
 1091 0028 FFF7FEFF 		bl	pow
 1092 002c 0022     		movs	r2, #0
 1093 002e 0F4B     		ldr	r3, .L17+12
 1094 0030 FFF7FEFF 		bl	__aeabi_dsub
 1095 0034 0300     		movs	r3, r0
 1096 0036 0C00     		movs	r4, r1
 1097 0038 1800     		movs	r0, r3
 1098 003a 2100     		movs	r1, r4
 1099 003c C022     		movs	r2, #192
 1100 003e D205     		lsls	r2, r2, #23
 1101 0040 0B4B     		ldr	r3, .L17+16
 1102 0042 FFF7FEFF 		bl	__aeabi_dmul
 1103 0046 0300     		movs	r3, r0
 1104 0048 0C00     		movs	r4, r1
 1105 004a 1800     		movs	r0, r3
 1106 004c 2100     		movs	r1, r4
 1107 004e FFF7FEFF 		bl	__aeabi_d2f
 1108 0052 031C     		adds	r3, r0, #0
 1109 0054 7B60     		str	r3, [r7, #4]
 175:BME280.c      **** 	return heightOutput;
 1110              		.loc 1 175 0
 1111 0056 7B68     		ldr	r3, [r7, #4]
 176:BME280.c      **** 	
 177:BME280.c      **** }
 1112              		.loc 1 177 0
 1113 0058 181C     		adds	r0, r3, #0
 1114 005a BD46     		mov	sp, r7
 1115 005c 03B0     		add	sp, sp, #12
 1116              		@ sp needed
 1117 005e 90BD     		pop	{r4, r7, pc}
 1118              	.L18:
 1119              		.align	2
 1120              	.L17:
 1121 0060 80E6C547 		.word	1204151936
 1122 0064 C5C551B9 		.word	-1185823291
 1123 0068 895AC83F 		.word	1070094985
 1124 006c 0000F03F 		.word	1072693248
 1125 0070 C662E6C0 		.word	-1058643258
 1126              		.cfi_endproc
 1127              	.LFE40:
 1128              		.size	BME280_readFloatAltitudeMeters, .-BME280_readFloatAltitudeMeters
 1129              		.section	.text.BME280_readFloatAltitudeFeet,"ax",%progbits
 1130              		.align	2
ARM GAS  C:\Users\d4hhm\AppData\Local\Temp\cchY4aQw.s 			page 24


 1131              		.global	BME280_readFloatAltitudeFeet
 1132              		.code	16
 1133              		.thumb_func
 1134              		.type	BME280_readFloatAltitudeFeet, %function
 1135              	BME280_readFloatAltitudeFeet:
 1136              	.LFB41:
 178:BME280.c      **** 
 179:BME280.c      **** float BME280_readFloatAltitudeFeet( void )
 180:BME280.c      **** {
 1137              		.loc 1 180 0
 1138              		.cfi_startproc
 1139              		@ args = 0, pretend = 0, frame = 8
 1140              		@ frame_needed = 1, uses_anonymous_args = 0
 1141 0000 90B5     		push	{r4, r7, lr}
 1142              		.cfi_def_cfa_offset 12
 1143              		.cfi_offset 4, -12
 1144              		.cfi_offset 7, -8
 1145              		.cfi_offset 14, -4
 1146 0002 83B0     		sub	sp, sp, #12
 1147              		.cfi_def_cfa_offset 24
 1148 0004 00AF     		add	r7, sp, #0
 1149              		.cfi_def_cfa_register 7
 181:BME280.c      **** 	float heightOutput = 0;
 1150              		.loc 1 181 0
 1151 0006 0023     		movs	r3, #0
 1152 0008 7B60     		str	r3, [r7, #4]
 182:BME280.c      **** 	
 183:BME280.c      **** 	heightOutput = BME280_readFloatAltitudeMeters() * 3.28084;
 1153              		.loc 1 183 0
 1154 000a FFF7FEFF 		bl	BME280_readFloatAltitudeMeters
 1155 000e 031C     		adds	r3, r0, #0
 1156 0010 181C     		adds	r0, r3, #0
 1157 0012 FFF7FEFF 		bl	__aeabi_f2d
 1158 0016 084A     		ldr	r2, .L21
 1159 0018 084B     		ldr	r3, .L21+4
 1160 001a FFF7FEFF 		bl	__aeabi_dmul
 1161 001e 0300     		movs	r3, r0
 1162 0020 0C00     		movs	r4, r1
 1163 0022 1800     		movs	r0, r3
 1164 0024 2100     		movs	r1, r4
 1165 0026 FFF7FEFF 		bl	__aeabi_d2f
 1166 002a 031C     		adds	r3, r0, #0
 1167 002c 7B60     		str	r3, [r7, #4]
 184:BME280.c      **** 	return heightOutput;
 1168              		.loc 1 184 0
 1169 002e 7B68     		ldr	r3, [r7, #4]
 185:BME280.c      **** 	
 186:BME280.c      **** }
 1170              		.loc 1 186 0
 1171 0030 181C     		adds	r0, r3, #0
 1172 0032 BD46     		mov	sp, r7
 1173 0034 03B0     		add	sp, sp, #12
 1174              		@ sp needed
 1175 0036 90BD     		pop	{r4, r7, pc}
 1176              	.L22:
 1177              		.align	2
 1178              	.L21:
ARM GAS  C:\Users\d4hhm\AppData\Local\Temp\cchY4aQw.s 			page 25


 1179 0038 E544BB0A 		.word	180045029
 1180 003c 293F0A40 		.word	1074413353
 1181              		.cfi_endproc
 1182              	.LFE41:
 1183              		.size	BME280_readFloatAltitudeFeet, .-BME280_readFloatAltitudeFeet
 1184              		.global	__aeabi_i2f
 1185              		.section	.text.BME280_readFloatHumidity,"ax",%progbits
 1186              		.align	2
 1187              		.global	BME280_readFloatHumidity
 1188              		.code	16
 1189              		.thumb_func
 1190              		.type	BME280_readFloatHumidity, %function
 1191              	BME280_readFloatHumidity:
 1192              	.LFB42:
 187:BME280.c      **** 
 188:BME280.c      **** //****************************************************************************//
 189:BME280.c      **** //
 190:BME280.c      **** //  Humidity Section
 191:BME280.c      **** //
 192:BME280.c      **** //****************************************************************************//
 193:BME280.c      **** float BME280_readFloatHumidity( void )
 194:BME280.c      **** {
 1193              		.loc 1 194 0
 1194              		.cfi_startproc
 1195              		@ args = 0, pretend = 0, frame = 8
 1196              		@ frame_needed = 1, uses_anonymous_args = 0
 1197 0000 90B5     		push	{r4, r7, lr}
 1198              		.cfi_def_cfa_offset 12
 1199              		.cfi_offset 4, -12
 1200              		.cfi_offset 7, -8
 1201              		.cfi_offset 14, -4
 1202 0002 83B0     		sub	sp, sp, #12
 1203              		.cfi_def_cfa_offset 24
 1204 0004 00AF     		add	r7, sp, #0
 1205              		.cfi_def_cfa_register 7
 195:BME280.c      **** 	
 196:BME280.c      **** 	// Returns humidity in %RH as unsigned 32 bit integer in Q22. 10 format (22 integer and 10 fractio
 197:BME280.c      **** 	// Output value of “47445” represents 47445/1024 = 46. 333 %RH
 198:BME280.c      **** 	int32_t adc_H = ((uint32_t) BME280_readRegister(BME280_HUMIDITY_MSB_REG) << 8) | ((uint32_t) BME28
 1206              		.loc 1 198 0
 1207 0006 FD20     		movs	r0, #253
 1208 0008 FFF7FEFF 		bl	BME280_readRegister
 1209 000c 0300     		movs	r3, r0
 1210 000e 1C02     		lsls	r4, r3, #8
 1211 0010 FE20     		movs	r0, #254
 1212 0012 FFF7FEFF 		bl	BME280_readRegister
 1213 0016 0300     		movs	r3, r0
 1214 0018 2343     		orrs	r3, r4
 1215 001a 7B60     		str	r3, [r7, #4]
 199:BME280.c      **** 	
 200:BME280.c      **** 	int32_t var1;
 201:BME280.c      **** 	var1 = (bme280.t_fine - ((int32_t)76800));
 1216              		.loc 1 201 0
 1217 001c 354B     		ldr	r3, .L27
 1218 001e 1B6B     		ldr	r3, [r3, #48]
 1219 0020 354A     		ldr	r2, .L27+4
 1220 0022 9446     		mov	ip, r2
ARM GAS  C:\Users\d4hhm\AppData\Local\Temp\cchY4aQw.s 			page 26


 1221 0024 6344     		add	r3, r3, ip
 1222 0026 3B60     		str	r3, [r7]
 202:BME280.c      **** 	var1 = (((((adc_H << 14) - (((int32_t)bme280.calibration.dig_H4) << 20) - (((int32_t)bme280.calibr
 1223              		.loc 1 202 0
 1224 0028 7B68     		ldr	r3, [r7, #4]
 1225 002a 9A03     		lsls	r2, r3, #14
 1226 002c 314B     		ldr	r3, .L27
 1227 002e 2821     		movs	r1, #40
 1228 0030 5B5E     		ldrsh	r3, [r3, r1]
 1229 0032 1B05     		lsls	r3, r3, #20
 1230 0034 D21A     		subs	r2, r2, r3
 1231 0036 2F4B     		ldr	r3, .L27
 1232 0038 2A21     		movs	r1, #42
 1233 003a 5B5E     		ldrsh	r3, [r3, r1]
 1234 003c 1900     		movs	r1, r3
 1235 003e 3B68     		ldr	r3, [r7]
 1236 0040 4B43     		muls	r3, r1
 1237 0042 D31A     		subs	r3, r2, r3
 1238 0044 8022     		movs	r2, #128
 1239 0046 D201     		lsls	r2, r2, #7
 1240 0048 9446     		mov	ip, r2
 1241 004a 6344     		add	r3, r3, ip
 203:BME280.c      **** 	((int32_t)16384)) >> 15) * (((((((var1 * ((int32_t)bme280.calibration.dig_H6)) >> 10) * (((var1 * 
 1242              		.loc 1 203 0
 1243 004c DB13     		asrs	r3, r3, #15
 1244 004e 294A     		ldr	r2, .L27
 1245 0050 2C21     		movs	r1, #44
 1246 0052 525C     		ldrb	r2, [r2, r1]
 1247 0054 1100     		movs	r1, r2
 1248 0056 3A68     		ldr	r2, [r7]
 1249 0058 4A43     		muls	r2, r1
 1250 005a 9212     		asrs	r2, r2, #10
 1251 005c 2549     		ldr	r1, .L27
 1252 005e 2620     		movs	r0, #38
 1253 0060 095C     		ldrb	r1, [r1, r0]
 1254 0062 0800     		movs	r0, r1
 1255 0064 3968     		ldr	r1, [r7]
 1256 0066 4143     		muls	r1, r0
 1257 0068 C912     		asrs	r1, r1, #11
 1258 006a 8020     		movs	r0, #128
 1259 006c 0002     		lsls	r0, r0, #8
 1260 006e 8446     		mov	ip, r0
 1261 0070 6144     		add	r1, r1, ip
 1262 0072 4A43     		muls	r2, r1
 1263 0074 9212     		asrs	r2, r2, #10
 1264 0076 8021     		movs	r1, #128
 1265 0078 8903     		lsls	r1, r1, #14
 1266 007a 8C46     		mov	ip, r1
 1267 007c 6244     		add	r2, r2, ip
 204:BME280.c      **** 	((int32_t)bme280.calibration.dig_H2) + 8192) >> 14));
 1268              		.loc 1 204 0
 1269 007e 1D49     		ldr	r1, .L27
 1270 0080 2420     		movs	r0, #36
 1271 0082 095E     		ldrsh	r1, [r1, r0]
 203:BME280.c      **** 	((int32_t)16384)) >> 15) * (((((((var1 * ((int32_t)bme280.calibration.dig_H6)) >> 10) * (((var1 * 
 1272              		.loc 1 203 0
 1273 0084 4A43     		muls	r2, r1
ARM GAS  C:\Users\d4hhm\AppData\Local\Temp\cchY4aQw.s 			page 27


 1274              		.loc 1 204 0
 1275 0086 8021     		movs	r1, #128
 1276 0088 8901     		lsls	r1, r1, #6
 1277 008a 8C46     		mov	ip, r1
 1278 008c 6244     		add	r2, r2, ip
 1279 008e 9213     		asrs	r2, r2, #14
 202:BME280.c      **** 	var1 = (((((adc_H << 14) - (((int32_t)bme280.calibration.dig_H4) << 20) - (((int32_t)bme280.calibr
 1280              		.loc 1 202 0
 1281 0090 5343     		muls	r3, r2
 1282 0092 3B60     		str	r3, [r7]
 205:BME280.c      **** 	var1 = (var1 - (((((var1 >> 15) * (var1 >> 15)) >> 7) * ((int32_t)bme280.calibration.dig_H1)) >> 4
 1283              		.loc 1 205 0
 1284 0094 3B68     		ldr	r3, [r7]
 1285 0096 DB13     		asrs	r3, r3, #15
 1286 0098 3A68     		ldr	r2, [r7]
 1287 009a D213     		asrs	r2, r2, #15
 1288 009c 5343     		muls	r3, r2
 1289 009e DB11     		asrs	r3, r3, #7
 1290 00a0 144A     		ldr	r2, .L27
 1291 00a2 2221     		movs	r1, #34
 1292 00a4 525C     		ldrb	r2, [r2, r1]
 1293 00a6 5343     		muls	r3, r2
 1294 00a8 1B11     		asrs	r3, r3, #4
 1295 00aa 3A68     		ldr	r2, [r7]
 1296 00ac D31A     		subs	r3, r2, r3
 1297 00ae 3B60     		str	r3, [r7]
 206:BME280.c      **** 	var1 = (var1 < 0 ? 0 : var1);
 1298              		.loc 1 206 0
 1299 00b0 3B68     		ldr	r3, [r7]
 1300 00b2 002B     		cmp	r3, #0
 1301 00b4 00DA     		bge	.L24
 1302 00b6 0023     		movs	r3, #0
 1303              	.L24:
 1304 00b8 3B60     		str	r3, [r7]
 207:BME280.c      **** 	var1 = (var1 > 419430400 ? 419430400 : var1);
 1305              		.loc 1 207 0
 1306 00ba 3B68     		ldr	r3, [r7]
 1307 00bc C822     		movs	r2, #200
 1308 00be 5205     		lsls	r2, r2, #21
 1309 00c0 9342     		cmp	r3, r2
 1310 00c2 01DD     		ble	.L25
 1311 00c4 C823     		movs	r3, #200
 1312 00c6 5B05     		lsls	r3, r3, #21
 1313              	.L25:
 1314 00c8 3B60     		str	r3, [r7]
 208:BME280.c      **** 
 209:BME280.c      ****     bme280.RH = (float) (var1>>12) / 1024.0;
 1315              		.loc 1 209 0
 1316 00ca 3B68     		ldr	r3, [r7]
 1317 00cc 1B13     		asrs	r3, r3, #12
 1318 00ce 1800     		movs	r0, r3
 1319 00d0 FFF7FEFF 		bl	__aeabi_i2f
 1320 00d4 031C     		adds	r3, r0, #0
 1321 00d6 8921     		movs	r1, #137
 1322 00d8 C905     		lsls	r1, r1, #23
 1323 00da 181C     		adds	r0, r3, #0
 1324 00dc FFF7FEFF 		bl	__aeabi_fdiv
ARM GAS  C:\Users\d4hhm\AppData\Local\Temp\cchY4aQw.s 			page 28


 1325 00e0 031C     		adds	r3, r0, #0
 1326 00e2 1A1C     		adds	r2, r3, #0
 1327 00e4 034B     		ldr	r3, .L27
 1328 00e6 DA63     		str	r2, [r3, #60]
 210:BME280.c      **** 	return bme280.RH;
 1329              		.loc 1 210 0
 1330 00e8 024B     		ldr	r3, .L27
 1331 00ea DB6B     		ldr	r3, [r3, #60]
 211:BME280.c      **** 
 212:BME280.c      **** }
 1332              		.loc 1 212 0
 1333 00ec 181C     		adds	r0, r3, #0
 1334 00ee BD46     		mov	sp, r7
 1335 00f0 03B0     		add	sp, sp, #12
 1336              		@ sp needed
 1337 00f2 90BD     		pop	{r4, r7, pc}
 1338              	.L28:
 1339              		.align	2
 1340              	.L27:
 1341 00f4 00000000 		.word	bme280
 1342 00f8 00D4FEFF 		.word	-76800
 1343              		.cfi_endproc
 1344              	.LFE42:
 1345              		.size	BME280_readFloatHumidity, .-BME280_readFloatHumidity
 1346              		.section	.text.BME280_readTempC,"ax",%progbits
 1347              		.align	2
 1348              		.global	BME280_readTempC
 1349              		.code	16
 1350              		.thumb_func
 1351              		.type	BME280_readTempC, %function
 1352              	BME280_readTempC:
 1353              	.LFB43:
 213:BME280.c      **** 
 214:BME280.c      **** 
 215:BME280.c      **** 
 216:BME280.c      **** //****************************************************************************//
 217:BME280.c      **** //
 218:BME280.c      **** //  Temperature Section
 219:BME280.c      **** //
 220:BME280.c      **** //****************************************************************************//
 221:BME280.c      **** 
 222:BME280.c      **** float BME280_readTempC( void )
 223:BME280.c      **** {
 1354              		.loc 1 223 0
 1355              		.cfi_startproc
 1356              		@ args = 0, pretend = 0, frame = 32
 1357              		@ frame_needed = 1, uses_anonymous_args = 0
 1358 0000 90B5     		push	{r4, r7, lr}
 1359              		.cfi_def_cfa_offset 12
 1360              		.cfi_offset 4, -12
 1361              		.cfi_offset 7, -8
 1362              		.cfi_offset 14, -4
 1363 0002 89B0     		sub	sp, sp, #36
 1364              		.cfi_def_cfa_offset 48
 1365 0004 00AF     		add	r7, sp, #0
 1366              		.cfi_def_cfa_register 7
 224:BME280.c      **** 	// Returns temperature in DegC, resolution is 0.01 DegC. Output value of “5123” equals 51.23 D
ARM GAS  C:\Users\d4hhm\AppData\Local\Temp\cchY4aQw.s 			page 29


 225:BME280.c      **** 	// t_fine carries fine temperature as global value
 226:BME280.c      **** 
 227:BME280.c      **** 	//get the reading (adc_T);
 228:BME280.c      **** 	int32_t adc_T = ((uint32_t)BME280_readRegister(BME280_TEMPERATURE_MSB_REG) << 12) | ((uint32_t)BME
 1367              		.loc 1 228 0
 1368 0006 FA20     		movs	r0, #250
 1369 0008 FFF7FEFF 		bl	BME280_readRegister
 1370 000c 0300     		movs	r3, r0
 1371 000e 1C03     		lsls	r4, r3, #12
 1372 0010 FB20     		movs	r0, #251
 1373 0012 FFF7FEFF 		bl	BME280_readRegister
 1374 0016 0300     		movs	r3, r0
 1375 0018 1B01     		lsls	r3, r3, #4
 1376 001a 1C43     		orrs	r4, r3
 1377 001c FC20     		movs	r0, #252
 1378 001e FFF7FEFF 		bl	BME280_readRegister
 1379 0022 0300     		movs	r3, r0
 1380 0024 1B09     		lsrs	r3, r3, #4
 1381 0026 DBB2     		uxtb	r3, r3
 1382 0028 1A00     		movs	r2, r3
 1383 002a 0F23     		movs	r3, #15
 1384 002c 1340     		ands	r3, r2
 1385 002e 2343     		orrs	r3, r4
 1386 0030 FB61     		str	r3, [r7, #28]
 229:BME280.c      **** 
 230:BME280.c      **** 	//By datasheet, calibrate
 231:BME280.c      **** 	int64_t var1, var2;
 232:BME280.c      **** 
 233:BME280.c      **** 	var1 = ((((adc_T>>3) - ((int32_t)bme280.calibration.dig_T1<<1))) * ((int32_t)bme280.calibration.di
 1387              		.loc 1 233 0
 1388 0032 FB69     		ldr	r3, [r7, #28]
 1389 0034 DA10     		asrs	r2, r3, #3
 1390 0036 204B     		ldr	r3, .L31
 1391 0038 5B89     		ldrh	r3, [r3, #10]
 1392 003a 5B00     		lsls	r3, r3, #1
 1393 003c D31A     		subs	r3, r2, r3
 1394 003e 1E4A     		ldr	r2, .L31
 1395 0040 0C21     		movs	r1, #12
 1396 0042 525E     		ldrsh	r2, [r2, r1]
 1397 0044 5343     		muls	r3, r2
 1398 0046 DB12     		asrs	r3, r3, #11
 1399 0048 3B61     		str	r3, [r7, #16]
 1400 004a DB17     		asrs	r3, r3, #31
 1401 004c 7B61     		str	r3, [r7, #20]
 234:BME280.c      **** 	var2 = (((((adc_T>>4) - ((int32_t)bme280.calibration.dig_T1)) * ((adc_T>>4) - ((int32_t)bme280.cal
 1402              		.loc 1 234 0
 1403 004e FB69     		ldr	r3, [r7, #28]
 1404 0050 1B11     		asrs	r3, r3, #4
 1405 0052 194A     		ldr	r2, .L31
 1406 0054 5289     		ldrh	r2, [r2, #10]
 1407 0056 9B1A     		subs	r3, r3, r2
 1408 0058 FA69     		ldr	r2, [r7, #28]
 1409 005a 1211     		asrs	r2, r2, #4
 1410 005c 1649     		ldr	r1, .L31
 1411 005e 4989     		ldrh	r1, [r1, #10]
 1412 0060 521A     		subs	r2, r2, r1
 1413 0062 5343     		muls	r3, r2
ARM GAS  C:\Users\d4hhm\AppData\Local\Temp\cchY4aQw.s 			page 30


 1414 0064 1B13     		asrs	r3, r3, #12
 1415 0066 144A     		ldr	r2, .L31
 1416 0068 0E21     		movs	r1, #14
 1417 006a 525E     		ldrsh	r2, [r2, r1]
 1418 006c 5343     		muls	r3, r2
 1419 006e 9B13     		asrs	r3, r3, #14
 1420 0070 BB60     		str	r3, [r7, #8]
 1421 0072 DB17     		asrs	r3, r3, #31
 1422 0074 FB60     		str	r3, [r7, #12]
 235:BME280.c      **** 	
 236:BME280.c      ****     bme280.t_fine = var1 + var2;
 1423              		.loc 1 236 0
 1424 0076 3A69     		ldr	r2, [r7, #16]
 1425 0078 BB68     		ldr	r3, [r7, #8]
 1426 007a D318     		adds	r3, r2, r3
 1427 007c 1A00     		movs	r2, r3
 1428 007e 0E4B     		ldr	r3, .L31
 1429 0080 1A63     		str	r2, [r3, #48]
 237:BME280.c      **** 	float output = (bme280.t_fine * 5 + 128) >> 8;
 1430              		.loc 1 237 0
 1431 0082 0D4B     		ldr	r3, .L31
 1432 0084 1A6B     		ldr	r2, [r3, #48]
 1433 0086 1300     		movs	r3, r2
 1434 0088 9B00     		lsls	r3, r3, #2
 1435 008a 9B18     		adds	r3, r3, r2
 1436 008c 8033     		adds	r3, r3, #128
 1437 008e 1B12     		asrs	r3, r3, #8
 1438 0090 1800     		movs	r0, r3
 1439 0092 FFF7FEFF 		bl	__aeabi_i2f
 1440 0096 031C     		adds	r3, r0, #0
 1441 0098 7B60     		str	r3, [r7, #4]
 238:BME280.c      **** 
 239:BME280.c      **** 	output = output / 100;
 1442              		.loc 1 239 0
 1443 009a 0849     		ldr	r1, .L31+4
 1444 009c 7868     		ldr	r0, [r7, #4]
 1445 009e FFF7FEFF 		bl	__aeabi_fdiv
 1446 00a2 031C     		adds	r3, r0, #0
 1447 00a4 7B60     		str	r3, [r7, #4]
 240:BME280.c      **** 	
 241:BME280.c      ****     bme280.temp_C = output;
 1448              		.loc 1 241 0
 1449 00a6 044B     		ldr	r3, .L31
 1450 00a8 7A68     		ldr	r2, [r7, #4]
 1451 00aa 5A63     		str	r2, [r3, #52]
 242:BME280.c      **** 	return bme280.temp_C;
 1452              		.loc 1 242 0
 1453 00ac 024B     		ldr	r3, .L31
 1454 00ae 5B6B     		ldr	r3, [r3, #52]
 243:BME280.c      **** }
 1455              		.loc 1 243 0
 1456 00b0 181C     		adds	r0, r3, #0
 1457 00b2 BD46     		mov	sp, r7
 1458 00b4 09B0     		add	sp, sp, #36
 1459              		@ sp needed
 1460 00b6 90BD     		pop	{r4, r7, pc}
 1461              	.L32:
ARM GAS  C:\Users\d4hhm\AppData\Local\Temp\cchY4aQw.s 			page 31


 1462              		.align	2
 1463              	.L31:
 1464 00b8 00000000 		.word	bme280
 1465 00bc 0000C842 		.word	1120403456
 1466              		.cfi_endproc
 1467              	.LFE43:
 1468              		.size	BME280_readTempC, .-BME280_readTempC
 1469              		.global	__aeabi_fmul
 1470              		.global	__aeabi_fadd
 1471              		.section	.text.BME280_readTempF,"ax",%progbits
 1472              		.align	2
 1473              		.global	BME280_readTempF
 1474              		.code	16
 1475              		.thumb_func
 1476              		.type	BME280_readTempF, %function
 1477              	BME280_readTempF:
 1478              	.LFB44:
 244:BME280.c      **** 
 245:BME280.c      **** float BME280_readTempF( void )
 246:BME280.c      **** {
 1479              		.loc 1 246 0
 1480              		.cfi_startproc
 1481              		@ args = 0, pretend = 0, frame = 8
 1482              		@ frame_needed = 1, uses_anonymous_args = 0
 1483 0000 80B5     		push	{r7, lr}
 1484              		.cfi_def_cfa_offset 8
 1485              		.cfi_offset 7, -8
 1486              		.cfi_offset 14, -4
 1487 0002 82B0     		sub	sp, sp, #8
 1488              		.cfi_def_cfa_offset 16
 1489 0004 00AF     		add	r7, sp, #0
 1490              		.cfi_def_cfa_register 7
 247:BME280.c      **** 	float output = BME280_readTempC();
 1491              		.loc 1 247 0
 1492 0006 FFF7FEFF 		bl	BME280_readTempC
 1493 000a 031C     		adds	r3, r0, #0
 1494 000c 7B60     		str	r3, [r7, #4]
 248:BME280.c      **** 	output = (output * 9) / 5 + 32;
 1495              		.loc 1 248 0
 1496 000e 0B49     		ldr	r1, .L35
 1497 0010 7868     		ldr	r0, [r7, #4]
 1498 0012 FFF7FEFF 		bl	__aeabi_fmul
 1499 0016 031C     		adds	r3, r0, #0
 1500 0018 0949     		ldr	r1, .L35+4
 1501 001a 181C     		adds	r0, r3, #0
 1502 001c FFF7FEFF 		bl	__aeabi_fdiv
 1503 0020 031C     		adds	r3, r0, #0
 1504 0022 8421     		movs	r1, #132
 1505 0024 C905     		lsls	r1, r1, #23
 1506 0026 181C     		adds	r0, r3, #0
 1507 0028 FFF7FEFF 		bl	__aeabi_fadd
 1508 002c 031C     		adds	r3, r0, #0
 1509 002e 7B60     		str	r3, [r7, #4]
 249:BME280.c      **** 
 250:BME280.c      **** 	return output;
 1510              		.loc 1 250 0
 1511 0030 7B68     		ldr	r3, [r7, #4]
ARM GAS  C:\Users\d4hhm\AppData\Local\Temp\cchY4aQw.s 			page 32


 251:BME280.c      **** }
 1512              		.loc 1 251 0
 1513 0032 181C     		adds	r0, r3, #0
 1514 0034 BD46     		mov	sp, r7
 1515 0036 02B0     		add	sp, sp, #8
 1516              		@ sp needed
 1517 0038 80BD     		pop	{r7, pc}
 1518              	.L36:
 1519 003a C046     		.align	2
 1520              	.L35:
 1521 003c 00001041 		.word	1091567616
 1522 0040 0000A040 		.word	1084227584
 1523              		.cfi_endproc
 1524              	.LFE44:
 1525              		.size	BME280_readTempF, .-BME280_readTempF
 1526              		.section	.text.BME280_readRegister,"ax",%progbits
 1527              		.align	2
 1528              		.global	BME280_readRegister
 1529              		.code	16
 1530              		.thumb_func
 1531              		.type	BME280_readRegister, %function
 1532              	BME280_readRegister:
 1533              	.LFB45:
 252:BME280.c      **** 
 253:BME280.c      **** //****************************************************************************//
 254:BME280.c      **** //
 255:BME280.c      **** //  Utility
 256:BME280.c      **** //
 257:BME280.c      **** //****************************************************************************//
 258:BME280.c      **** uint8_t BME280_readRegister(uint8_t offset)
 259:BME280.c      **** {
 1534              		.loc 1 259 0
 1535              		.cfi_startproc
 1536              		@ args = 0, pretend = 0, frame = 16
 1537              		@ frame_needed = 1, uses_anonymous_args = 0
 1538 0000 80B5     		push	{r7, lr}
 1539              		.cfi_def_cfa_offset 8
 1540              		.cfi_offset 7, -8
 1541              		.cfi_offset 14, -4
 1542 0002 84B0     		sub	sp, sp, #16
 1543              		.cfi_def_cfa_offset 24
 1544 0004 00AF     		add	r7, sp, #0
 1545              		.cfi_def_cfa_register 7
 1546 0006 0200     		movs	r2, r0
 1547 0008 FB1D     		adds	r3, r7, #7
 1548 000a 1A70     		strb	r2, [r3]
 260:BME280.c      **** 	//Return value
 261:BME280.c      **** 	uint8_t result;
 262:BME280.c      **** 	uint8_t numBytes = 1;
 1549              		.loc 1 262 0
 1550 000c 0D23     		movs	r3, #13
 1551 000e FB18     		adds	r3, r7, r3
 1552 0010 0122     		movs	r2, #1
 1553 0012 1A70     		strb	r2, [r3]
 263:BME280.c      ****     
 264:BME280.c      ****     uint16  iter;
 265:BME280.c      ****     
ARM GAS  C:\Users\d4hhm\AppData\Local\Temp\cchY4aQw.s 			page 33


 266:BME280.c      **** 	switch (bme280.settings.commInterface) {
 1554              		.loc 1 266 0
 1555 0014 2D4B     		ldr	r3, .L55
 1556 0016 1B78     		ldrb	r3, [r3]
 1557 0018 002B     		cmp	r3, #0
 1558 001a 02D0     		beq	.L39
 1559 001c 012B     		cmp	r3, #1
 1560 001e 4CD0     		beq	.L52
 267:BME280.c      **** 
 268:BME280.c      ****     	case BME280_I2C_MODE:
 269:BME280.c      ****             ///I2C_Wakeup();
 270:BME280.c      ****             SCB_1_I2CMasterClearStatus(); /* Clear any previous status */
 271:BME280.c      ****             
 272:BME280.c      ****             // Write to register
 273:BME280.c      ****             SCB_1_I2CMasterWriteBuf(bme280.settings.I2CAddress, (uint8 *) &offset, 1, SCB_1_I2C_MOD
 274:BME280.c      ****             for(iter = 0; iter < BME280_MAX_ITER; iter++)
 275:BME280.c      ****             {
 276:BME280.c      ****                 if(0u != (SCB_1_I2CMasterStatus() & SCB_1_I2C_MSTAT_WR_CMPLT))
 277:BME280.c      ****                 {
 278:BME280.c      ****                     /* Transfer complete. Check Master status to make sure that transfer
 279:BME280.c      ****                     completed without errors. */
 280:BME280.c      ****                     break;
 281:BME280.c      ****                 }
 282:BME280.c      ****             }        
 283:BME280.c      ****             
 284:BME280.c      ****             // Read Buffer        
 285:BME280.c      ****             SCB_1_I2CMasterReadBuf(bme280.settings.I2CAddress, &result, numBytes, SCB_1_I2C_MODE_CO
 286:BME280.c      ****             
 287:BME280.c      ****             for(iter = 0; iter < BME280_MAX_ITER; iter++){
 288:BME280.c      ****                 if(0u != (SCB_1_I2CMasterStatus() & SCB_1_I2C_MSTAT_RD_CMPLT))
 289:BME280.c      ****                 {
 290:BME280.c      ****                     /* Transfer complete. Check Master status to make sure that transfer
 291:BME280.c      ****                     completed without errors. */
 292:BME280.c      ****                     break;
 293:BME280.c      ****                 }
 294:BME280.c      ****                 
 295:BME280.c      ****             }
 296:BME280.c      ****             //I2C_Sleep();
 297:BME280.c      **** 
 298:BME280.c      ****     		break;
 299:BME280.c      **** 
 300:BME280.c      ****     	case BME280_SPI_MODE:
 301:BME280.c      ****     		// TODO
 302:BME280.c      ****     		break;
 303:BME280.c      **** 
 304:BME280.c      ****     	default:
 305:BME280.c      ****     		break;
 1561              		.loc 1 305 0
 1562 0020 4CE0     		b	.L49
 1563              	.L39:
 270:BME280.c      ****             
 1564              		.loc 1 270 0
 1565 0022 FFF7FEFF 		bl	SCB_1_I2CMasterClearStatus
 273:BME280.c      ****             for(iter = 0; iter < BME280_MAX_ITER; iter++)
 1566              		.loc 1 273 0
 1567 0026 294B     		ldr	r3, .L55
 1568 0028 5B78     		ldrb	r3, [r3, #1]
ARM GAS  C:\Users\d4hhm\AppData\Local\Temp\cchY4aQw.s 			page 34


 1569 002a 1800     		movs	r0, r3
 1570 002c F91D     		adds	r1, r7, #7
 1571 002e 0023     		movs	r3, #0
 1572 0030 0122     		movs	r2, #1
 1573 0032 FFF7FEFF 		bl	SCB_1_I2CMasterWriteBuf
 274:BME280.c      ****             {
 1574              		.loc 1 274 0
 1575 0036 0E23     		movs	r3, #14
 1576 0038 FB18     		adds	r3, r7, r3
 1577 003a 0022     		movs	r2, #0
 1578 003c 1A80     		strh	r2, [r3]
 1579 003e 0CE0     		b	.L41
 1580              	.L44:
 276:BME280.c      ****                 {
 1581              		.loc 1 276 0
 1582 0040 FFF7FEFF 		bl	SCB_1_I2CMasterStatus
 1583 0044 0200     		movs	r2, r0
 1584 0046 0223     		movs	r3, #2
 1585 0048 1340     		ands	r3, r2
 1586 004a 0ED1     		bne	.L53
 274:BME280.c      ****             {
 1587              		.loc 1 274 0 discriminator 2
 1588 004c 0E23     		movs	r3, #14
 1589 004e FB18     		adds	r3, r7, r3
 1590 0050 1A88     		ldrh	r2, [r3]
 1591 0052 0E23     		movs	r3, #14
 1592 0054 FB18     		adds	r3, r7, r3
 1593 0056 0132     		adds	r2, r2, #1
 1594 0058 1A80     		strh	r2, [r3]
 1595              	.L41:
 274:BME280.c      ****             {
 1596              		.loc 1 274 0 is_stmt 0 discriminator 1
 1597 005a 0E23     		movs	r3, #14
 1598 005c FB18     		adds	r3, r7, r3
 1599 005e 1A88     		ldrh	r2, [r3]
 1600 0060 2C23     		movs	r3, #44
 1601 0062 FF33     		adds	r3, r3, #255
 1602 0064 9A42     		cmp	r2, r3
 1603 0066 EBD9     		bls	.L44
 1604 0068 00E0     		b	.L43
 1605              	.L53:
 280:BME280.c      ****                 }
 1606              		.loc 1 280 0 is_stmt 1
 1607 006a C046     		nop
 1608              	.L43:
 285:BME280.c      ****             
 1609              		.loc 1 285 0
 1610 006c 174B     		ldr	r3, .L55
 1611 006e 5B78     		ldrb	r3, [r3, #1]
 1612 0070 1800     		movs	r0, r3
 1613 0072 0D23     		movs	r3, #13
 1614 0074 FB18     		adds	r3, r7, r3
 1615 0076 1A78     		ldrb	r2, [r3]
 1616 0078 0C23     		movs	r3, #12
 1617 007a F918     		adds	r1, r7, r3
 1618 007c 0023     		movs	r3, #0
 1619 007e FFF7FEFF 		bl	SCB_1_I2CMasterReadBuf
ARM GAS  C:\Users\d4hhm\AppData\Local\Temp\cchY4aQw.s 			page 35


 287:BME280.c      ****                 if(0u != (SCB_1_I2CMasterStatus() & SCB_1_I2C_MSTAT_RD_CMPLT))
 1620              		.loc 1 287 0
 1621 0082 0E23     		movs	r3, #14
 1622 0084 FB18     		adds	r3, r7, r3
 1623 0086 0022     		movs	r2, #0
 1624 0088 1A80     		strh	r2, [r3]
 1625 008a 0CE0     		b	.L45
 1626              	.L48:
 288:BME280.c      ****                 {
 1627              		.loc 1 288 0
 1628 008c FFF7FEFF 		bl	SCB_1_I2CMasterStatus
 1629 0090 0200     		movs	r2, r0
 1630 0092 0123     		movs	r3, #1
 1631 0094 1340     		ands	r3, r2
 1632 0096 0ED1     		bne	.L54
 287:BME280.c      ****                 if(0u != (SCB_1_I2CMasterStatus() & SCB_1_I2C_MSTAT_RD_CMPLT))
 1633              		.loc 1 287 0 discriminator 2
 1634 0098 0E23     		movs	r3, #14
 1635 009a FB18     		adds	r3, r7, r3
 1636 009c 1A88     		ldrh	r2, [r3]
 1637 009e 0E23     		movs	r3, #14
 1638 00a0 FB18     		adds	r3, r7, r3
 1639 00a2 0132     		adds	r2, r2, #1
 1640 00a4 1A80     		strh	r2, [r3]
 1641              	.L45:
 287:BME280.c      ****                 if(0u != (SCB_1_I2CMasterStatus() & SCB_1_I2C_MSTAT_RD_CMPLT))
 1642              		.loc 1 287 0 is_stmt 0 discriminator 1
 1643 00a6 0E23     		movs	r3, #14
 1644 00a8 FB18     		adds	r3, r7, r3
 1645 00aa 1A88     		ldrh	r2, [r3]
 1646 00ac 2C23     		movs	r3, #44
 1647 00ae FF33     		adds	r3, r3, #255
 1648 00b0 9A42     		cmp	r2, r3
 1649 00b2 EBD9     		bls	.L48
 298:BME280.c      **** 
 1650              		.loc 1 298 0 is_stmt 1
 1651 00b4 02E0     		b	.L49
 1652              	.L54:
 292:BME280.c      ****                 }
 1653              		.loc 1 292 0
 1654 00b6 C046     		nop
 298:BME280.c      **** 
 1655              		.loc 1 298 0
 1656 00b8 00E0     		b	.L49
 1657              	.L52:
 302:BME280.c      **** 
 1658              		.loc 1 302 0
 1659 00ba C046     		nop
 1660              	.L49:
 306:BME280.c      **** 	}
 307:BME280.c      **** 	return result;
 1661              		.loc 1 307 0
 1662 00bc 0C23     		movs	r3, #12
 1663 00be FB18     		adds	r3, r7, r3
 1664 00c0 1B78     		ldrb	r3, [r3]
 308:BME280.c      **** }
 1665              		.loc 1 308 0
ARM GAS  C:\Users\d4hhm\AppData\Local\Temp\cchY4aQw.s 			page 36


 1666 00c2 1800     		movs	r0, r3
 1667 00c4 BD46     		mov	sp, r7
 1668 00c6 04B0     		add	sp, sp, #16
 1669              		@ sp needed
 1670 00c8 80BD     		pop	{r7, pc}
 1671              	.L56:
 1672 00ca C046     		.align	2
 1673              	.L55:
 1674 00cc 00000000 		.word	bme280
 1675              		.cfi_endproc
 1676              	.LFE45:
 1677              		.size	BME280_readRegister, .-BME280_readRegister
 1678              		.section	.text.BME280_writeRegister,"ax",%progbits
 1679              		.align	2
 1680              		.global	BME280_writeRegister
 1681              		.code	16
 1682              		.thumb_func
 1683              		.type	BME280_writeRegister, %function
 1684              	BME280_writeRegister:
 1685              	.LFB46:
 309:BME280.c      **** 
 310:BME280.c      **** 
 311:BME280.c      **** void BME280_writeRegister(uint8_t offset, uint8_t data)
 312:BME280.c      **** {
 1686              		.loc 1 312 0
 1687              		.cfi_startproc
 1688              		@ args = 0, pretend = 0, frame = 16
 1689              		@ frame_needed = 1, uses_anonymous_args = 0
 1690 0000 80B5     		push	{r7, lr}
 1691              		.cfi_def_cfa_offset 8
 1692              		.cfi_offset 7, -8
 1693              		.cfi_offset 14, -4
 1694 0002 84B0     		sub	sp, sp, #16
 1695              		.cfi_def_cfa_offset 24
 1696 0004 00AF     		add	r7, sp, #0
 1697              		.cfi_def_cfa_register 7
 1698 0006 0200     		movs	r2, r0
 1699 0008 FB1D     		adds	r3, r7, #7
 1700 000a 1A70     		strb	r2, [r3]
 1701 000c BB1D     		adds	r3, r7, #6
 1702 000e 0A1C     		adds	r2, r1, #0
 1703 0010 1A70     		strb	r2, [r3]
 313:BME280.c      ****     uint8 packet[] = {offset, data};
 1704              		.loc 1 313 0
 1705 0012 0C23     		movs	r3, #12
 1706 0014 FB18     		adds	r3, r7, r3
 1707 0016 FA1D     		adds	r2, r7, #7
 1708 0018 1278     		ldrb	r2, [r2]
 1709 001a 1A70     		strb	r2, [r3]
 1710 001c 0C23     		movs	r3, #12
 1711 001e FB18     		adds	r3, r7, r3
 1712 0020 BA1D     		adds	r2, r7, #6
 1713 0022 1278     		ldrb	r2, [r2]
 1714 0024 5A70     		strb	r2, [r3, #1]
 314:BME280.c      ****     uint16 iter;
 315:BME280.c      ****     
 316:BME280.c      **** 	switch (bme280.settings.commInterface)
ARM GAS  C:\Users\d4hhm\AppData\Local\Temp\cchY4aQw.s 			page 37


 1715              		.loc 1 316 0
 1716 0026 194B     		ldr	r3, .L69
 1717 0028 1B78     		ldrb	r3, [r3]
 1718 002a 002B     		cmp	r3, #0
 1719 002c 02D0     		beq	.L59
 1720 002e 012B     		cmp	r3, #1
 1721 0030 27D0     		beq	.L67
 317:BME280.c      **** 	{
 318:BME280.c      ****     	case BME280_I2C_MODE:
 319:BME280.c      ****     		//Write the byte
 320:BME280.c      ****             //I2C_Wakeup();
 321:BME280.c      ****             SCB_1_I2CMasterClearStatus(); /* Clear any previous status */
 322:BME280.c      ****             
 323:BME280.c      ****             // Write to register
 324:BME280.c      ****             SCB_1_I2CMasterWriteBuf(bme280.settings.I2CAddress, (uint8 *) &packet, 2, SCB_1_I2C_MOD
 325:BME280.c      ****             for(iter = 0; iter < BME280_MAX_ITER; iter++)
 326:BME280.c      ****             {
 327:BME280.c      ****                 if(0u != (SCB_1_I2CMasterStatus() & SCB_1_I2C_MSTAT_WR_CMPLT))
 328:BME280.c      ****                 {
 329:BME280.c      ****                     // Transfer complete. Check Master status to make sure that transfer
 330:BME280.c      ****                     //completed without errors. 
 331:BME280.c      ****                     break;               
 332:BME280.c      ****                 }
 333:BME280.c      ****             }          
 334:BME280.c      ****             
 335:BME280.c      ****             //I2C_Sleep();        
 336:BME280.c      **** 
 337:BME280.c      ****     		break;
 338:BME280.c      **** 
 339:BME280.c      ****     	case BME280_SPI_MODE:
 340:BME280.c      ****     		//TODO
 341:BME280.c      ****     		break;
 342:BME280.c      **** 
 343:BME280.c      ****     	default:
 344:BME280.c      ****     		break;
 1722              		.loc 1 344 0
 1723 0032 27E0     		b	.L65
 1724              	.L59:
 321:BME280.c      ****             
 1725              		.loc 1 321 0
 1726 0034 FFF7FEFF 		bl	SCB_1_I2CMasterClearStatus
 324:BME280.c      ****             for(iter = 0; iter < BME280_MAX_ITER; iter++)
 1727              		.loc 1 324 0
 1728 0038 144B     		ldr	r3, .L69
 1729 003a 5B78     		ldrb	r3, [r3, #1]
 1730 003c 1800     		movs	r0, r3
 1731 003e 0C23     		movs	r3, #12
 1732 0040 F918     		adds	r1, r7, r3
 1733 0042 0023     		movs	r3, #0
 1734 0044 0222     		movs	r2, #2
 1735 0046 FFF7FEFF 		bl	SCB_1_I2CMasterWriteBuf
 325:BME280.c      ****             {
 1736              		.loc 1 325 0
 1737 004a 0E23     		movs	r3, #14
 1738 004c FB18     		adds	r3, r7, r3
 1739 004e 0022     		movs	r2, #0
 1740 0050 1A80     		strh	r2, [r3]
ARM GAS  C:\Users\d4hhm\AppData\Local\Temp\cchY4aQw.s 			page 38


 1741 0052 0CE0     		b	.L61
 1742              	.L64:
 327:BME280.c      ****                 {
 1743              		.loc 1 327 0
 1744 0054 FFF7FEFF 		bl	SCB_1_I2CMasterStatus
 1745 0058 0200     		movs	r2, r0
 1746 005a 0223     		movs	r3, #2
 1747 005c 1340     		ands	r3, r2
 1748 005e 0ED1     		bne	.L68
 325:BME280.c      ****             {
 1749              		.loc 1 325 0 discriminator 2
 1750 0060 0E23     		movs	r3, #14
 1751 0062 FB18     		adds	r3, r7, r3
 1752 0064 1A88     		ldrh	r2, [r3]
 1753 0066 0E23     		movs	r3, #14
 1754 0068 FB18     		adds	r3, r7, r3
 1755 006a 0132     		adds	r2, r2, #1
 1756 006c 1A80     		strh	r2, [r3]
 1757              	.L61:
 325:BME280.c      ****             {
 1758              		.loc 1 325 0 is_stmt 0 discriminator 1
 1759 006e 0E23     		movs	r3, #14
 1760 0070 FB18     		adds	r3, r7, r3
 1761 0072 1A88     		ldrh	r2, [r3]
 1762 0074 2C23     		movs	r3, #44
 1763 0076 FF33     		adds	r3, r3, #255
 1764 0078 9A42     		cmp	r2, r3
 1765 007a EBD9     		bls	.L64
 337:BME280.c      **** 
 1766              		.loc 1 337 0 is_stmt 1
 1767 007c 02E0     		b	.L65
 1768              	.L68:
 331:BME280.c      ****                 }
 1769              		.loc 1 331 0
 1770 007e C046     		nop
 337:BME280.c      **** 
 1771              		.loc 1 337 0
 1772 0080 00E0     		b	.L65
 1773              	.L67:
 341:BME280.c      **** 
 1774              		.loc 1 341 0
 1775 0082 C046     		nop
 1776              	.L65:
 345:BME280.c      **** 	}
 346:BME280.c      **** }
 1777              		.loc 1 346 0 discriminator 2
 1778 0084 C046     		nop
 1779 0086 BD46     		mov	sp, r7
 1780 0088 04B0     		add	sp, sp, #16
 1781              		@ sp needed
 1782 008a 80BD     		pop	{r7, pc}
 1783              	.L70:
 1784              		.align	2
 1785              	.L69:
 1786 008c 00000000 		.word	bme280
 1787              		.cfi_endproc
 1788              	.LFE46:
ARM GAS  C:\Users\d4hhm\AppData\Local\Temp\cchY4aQw.s 			page 39


 1789              		.size	BME280_writeRegister, .-BME280_writeRegister
 1790              		.text
 1791              	.Letext0:
 1792              		.file 2 "c:\\program files (x86)\\cypress\\psoc creator\\4.2\\psoc creator\\import\\gnu\\arm\\5.4.
 1793              		.file 3 "c:\\program files (x86)\\cypress\\psoc creator\\4.2\\psoc creator\\import\\gnu\\arm\\5.4.
 1794              		.file 4 "Generated_Source\\PSoC4/cytypes.h"
 1795              		.file 5 "BME280.h"
 1796              		.file 6 "Generated_Source\\PSoC4/BLE_1_Stack.h"