ARM GAS  C:\Users\d4hhm\AppData\Local\Temp\cchY4aQw.s 			page 1


   1              		.syntax unified
   2              		.cpu cortex-m0
   3              		.fpu softvfp
   4              		.eabi_attribute 20, 1
   5              		.eabi_attribute 21, 1
   6              		.eabi_attribute 23, 3
   7              		.eabi_attribute 24, 1
   8              		.eabi_attribute 25, 1
   9              		.eabi_attribute 26, 1
  10              		.eabi_attribute 30, 6
  11              		.eabi_attribute 34, 0
  12              		.eabi_attribute 18, 4
  13              		.thumb
  14              		.syntax unified
  15              		.file	"BME280.c"
  16              		.text
  17              	.Ltext0:
  18              		.cfi_sections	.debug_frame
  19              		.global	bme280
  20              		.data
  21              		.align	2
  22              		.type	bme280, %object
  23              		.size	bme280, 64
  24              	bme280:
  25 0000 00       		.byte	0
  26 0001 76       		.byte	118
  27 0002 0A       		.byte	10
  28 0003 03       		.byte	3
  29 0004 0000     		.space	2
  30 0006 01       		.byte	1
  31 0007 01       		.byte	1
  32 0008 01       		.byte	1
  33 0009 00       		.space	1
  34 000a 00000000 		.space	36
  34      00000000 
  34      00000000 
  34      00000000 
  34      00000000 
  35 002e 0000     		.space	2
  36 0030 00000000 		.word	0
  37 0034 003C1CC6 		.word	-971228160
  38 0038 003C1CC6 		.word	-971228160
  39 003c 003C1CC6 		.word	-971228160
  40              		.section	.text.BME280_start,"ax",%progbits
  41              		.align	2
  42              		.global	BME280_start
  43              		.code	16
  44              		.thumb_func
  45              		.type	BME280_start, %function
  46              	BME280_start:
  47              	.LFB35:
  48              		.file 1 "BME280.c"
   1:BME280.c      **** /******************************************************************************
   2:BME280.c      **** SparkFunBME280.cpp
   3:BME280.c      **** BME280 Arduino and Teensy Driver
   4:BME280.c      **** Marshall Taylor @ SparkFun Electronics
   5:BME280.c      **** May 20, 2015
ARM GAS  C:\Users\d4hhm\AppData\Local\Temp\cchY4aQw.s 			page 2


   6:BME280.c      **** https://github.com/sparkfun/BME280_Breakout
   7:BME280.c      **** 
   8:BME280.c      **** Resources:
   9:BME280.c      **** Uses Wire.h for i2c operation
  10:BME280.c      **** Uses SPI.h for SPI operation
  11:BME280.c      **** 
  12:BME280.c      **** Development environment specifics:
  13:BME280.c      **** Arduino IDE 1.6.4
  14:BME280.c      **** Teensy loader 1.23
  15:BME280.c      **** 
  16:BME280.c      **** This code is released under the [MIT License](http://opensource.org/licenses/MIT).
  17:BME280.c      **** Please review the LICENSE.md file included with this example. If you have any questions 
  18:BME280.c      **** or concerns with licensing, please contact techsupport@sparkfun.com.
  19:BME280.c      **** Distributed as-is; no warranty is given.
  20:BME280.c      **** ******************************************************************************/
  21:BME280.c      **** //See SparkFunBME280.h for additional topology notes.
  22:BME280.c      **** 
  23:BME280.c      **** #include "BME280.h"
  24:BME280.c      **** #include <math.h>
  25:BME280.c      **** 
  26:BME280.c      **** 
  27:BME280.c      **** //****************************************************************************//
  28:BME280.c      **** //
  29:BME280.c      **** //  Settings and configuration
  30:BME280.c      **** //
  31:BME280.c      **** //****************************************************************************//
  32:BME280.c      **** 
  33:BME280.c      **** //Construct with these default settings if nothing is specified
  34:BME280.c      **** BME280 bme280 = {
  35:BME280.c      ****     .settings = {
  36:BME280.c      ****         //Select interface mode
  37:BME280.c      ****         .commInterface  = BME280_I2C_MODE,
  38:BME280.c      ****     	//Select address for I2C.  Does nothing for SPI            
  39:BME280.c      ****         .I2CAddress     = 0x76,
  40:BME280.c      ****     	//Select CS pin for SPI.  Does nothing for I2C            
  41:BME280.c      ****         .chipSelectPin  = 10,
  42:BME280.c      ****         .runMode        = 3,
  43:BME280.c      ****         .tempOverSample = 1,
  44:BME280.c      ****         .pressOverSample= 1,
  45:BME280.c      ****         .humidOverSample= 1
  46:BME280.c      ****         },
  47:BME280.c      ****     .calibration = {},
  48:BME280.c      ****     .t_fine = 0,
  49:BME280.c      ****     .temp_C     = -9999,
  50:BME280.c      ****     .press_Pa   = -9999,
  51:BME280.c      ****     .RH         = -9999
  52:BME280.c      **** };
  53:BME280.c      **** 
  54:BME280.c      **** void BME280_start() {
  49              		.loc 1 54 0
  50              		.cfi_startproc
  51              		@ args = 0, pretend = 0, frame = 0
  52              		@ frame_needed = 1, uses_anonymous_args = 0
  53 0000 80B5     		push	{r7, lr}
  54              		.cfi_def_cfa_offset 8
  55              		.cfi_offset 7, -8
  56              		.cfi_offset 14, -4
ARM GAS  C:\Users\d4hhm\AppData\Local\Temp\cchY4aQw.s 			page 3


  57 0002 00AF     		add	r7, sp, #0
  58              		.cfi_def_cfa_register 7
  55:BME280.c      ****     SCB_1_Start();
  59              		.loc 1 55 0
  60 0004 FFF7FEFF 		bl	SCB_1_Start
  56:BME280.c      ****     //I2C_Sleep();
  57:BME280.c      **** }
  61              		.loc 1 57 0
  62 0008 C046     		nop
  63 000a BD46     		mov	sp, r7
  64              		@ sp needed
  65 000c 80BD     		pop	{r7, pc}
  66              		.cfi_endproc
  67              	.LFE35:
  68              		.size	BME280_start, .-BME280_start
  69 000e C046     		.section	.text.BME280_stop,"ax",%progbits
  70              		.align	2
  71              		.global	BME280_stop
  72              		.code	16
  73              		.thumb_func
  74              		.type	BME280_stop, %function
  75              	BME280_stop:
  76              	.LFB36:
  58:BME280.c      **** 
  59:BME280.c      **** void BME280_stop() {
  77              		.loc 1 59 0
  78              		.cfi_startproc
  79              		@ args = 0, pretend = 0, frame = 0
  80              		@ frame_needed = 1, uses_anonymous_args = 0
  81 0000 80B5     		push	{r7, lr}
  82              		.cfi_def_cfa_offset 8
  83              		.cfi_offset 7, -8
  84              		.cfi_offset 14, -4
  85 0002 00AF     		add	r7, sp, #0
  86              		.cfi_def_cfa_register 7
  60:BME280.c      ****     SCB_1_Stop();
  87              		.loc 1 60 0
  88 0004 FFF7FEFF 		bl	SCB_1_Stop
  61:BME280.c      **** }
  89              		.loc 1 61 0
  90 0008 C046     		nop
  91 000a BD46     		mov	sp, r7
  92              		@ sp needed
  93 000c 80BD     		pop	{r7, pc}
  94              		.cfi_endproc
  95              	.LFE36:
  96              		.size	BME280_stop, .-BME280_stop
  97 000e C046     		.section	.text.BME280_init,"ax",%progbits
  98              		.align	2
  99              		.global	BME280_init
 100              		.code	16
 101              		.thumb_func
 102              		.type	BME280_init, %function
 103              	BME280_init:
 104              	.LFB37:
  62:BME280.c      **** 
  63:BME280.c      **** //****************************************************************************//
ARM GAS  C:\Users\d4hhm\AppData\Local\Temp\cchY4aQw.s 			page 4


  64:BME280.c      **** //
  65:BME280.c      **** //  Configuration section
  66:BME280.c      **** //
  67:BME280.c      **** //  This uses the stored SensorSettings to start the IMU
  68:BME280.c      **** //  Use statements such as "mySensor.settings.commInterface = SPI_MODE;" to 
  69:BME280.c      **** //  configure before calling .begin();
  70:BME280.c      **** //
  71:BME280.c      **** //****************************************************************************//
  72:BME280.c      **** uint8_t BME280_init()
  73:BME280.c      **** {
 105              		.loc 1 73 0
 106              		.cfi_startproc
 107              		@ args = 0, pretend = 0, frame = 8
 108              		@ frame_needed = 1, uses_anonymous_args = 0
 109 0000 90B5     		push	{r4, r7, lr}
 110              		.cfi_def_cfa_offset 12
 111              		.cfi_offset 4, -12
 112              		.cfi_offset 7, -8
 113              		.cfi_offset 14, -4
 114 0002 83B0     		sub	sp, sp, #12
 115              		.cfi_def_cfa_offset 24
 116 0004 00AF     		add	r7, sp, #0
 117              		.cfi_def_cfa_register 7
  74:BME280.c      **** 	//Check the settings structure values to determine how to setup the device
  75:BME280.c      **** 	uint8_t data_to_write = 0, device_address;  //Temporary variable
 118              		.loc 1 75 0
 119 0006 FB1D     		adds	r3, r7, #7
 120 0008 0022     		movs	r2, #0
 121 000a 1A70     		strb	r2, [r3]
  76:BME280.c      **** 	//SCB_1_Start();
  77:BME280.c      ****     //I2C_Sleep();
  78:BME280.c      ****     
  79:BME280.c      **** 	//Reading all compensation data, range 0x88:A1, 0xE1:E7
  80:BME280.c      **** 	bme280.calibration.dig_T1 = ((uint16_t)((BME280_readRegister(BME280_DIG_T1_MSB_REG) << 8) + BME280
 122              		.loc 1 80 0
 123 000c 8920     		movs	r0, #137
 124 000e FFF7FEFF 		bl	BME280_readRegister
 125 0012 0300     		movs	r3, r0
 126 0014 9BB2     		uxth	r3, r3
 127 0016 1B02     		lsls	r3, r3, #8
 128 0018 9CB2     		uxth	r4, r3
 129 001a 8820     		movs	r0, #136
 130 001c FFF7FEFF 		bl	BME280_readRegister
 131 0020 0300     		movs	r3, r0
 132 0022 9BB2     		uxth	r3, r3
 133 0024 E318     		adds	r3, r4, r3
 134 0026 9AB2     		uxth	r2, r3
 135 0028 B44B     		ldr	r3, .L5
 136 002a 5A81     		strh	r2, [r3, #10]
  81:BME280.c      **** 	bme280.calibration.dig_T2 = ((int16_t)((BME280_readRegister(BME280_DIG_T2_MSB_REG) << 8) + BME280_
 137              		.loc 1 81 0
 138 002c 8B20     		movs	r0, #139
 139 002e FFF7FEFF 		bl	BME280_readRegister
 140 0032 0300     		movs	r3, r0
 141 0034 9BB2     		uxth	r3, r3
 142 0036 1B02     		lsls	r3, r3, #8
 143 0038 9CB2     		uxth	r4, r3
ARM GAS  C:\Users\d4hhm\AppData\Local\Temp\cchY4aQw.s 			page 5


 144 003a 8A20     		movs	r0, #138
 145 003c FFF7FEFF 		bl	BME280_readRegister
 146 0040 0300     		movs	r3, r0
 147 0042 9BB2     		uxth	r3, r3
 148 0044 E318     		adds	r3, r4, r3
 149 0046 9BB2     		uxth	r3, r3
 150 0048 1AB2     		sxth	r2, r3
 151 004a AC4B     		ldr	r3, .L5
 152 004c 9A81     		strh	r2, [r3, #12]
  82:BME280.c      **** 	bme280.calibration.dig_T3 = ((int16_t)((BME280_readRegister(BME280_DIG_T3_MSB_REG) << 8) + BME280_
 153              		.loc 1 82 0
 154 004e 8D20     		movs	r0, #141
 155 0050 FFF7FEFF 		bl	BME280_readRegister
 156 0054 0300     		movs	r3, r0
 157 0056 9BB2     		uxth	r3, r3
 158 0058 1B02     		lsls	r3, r3, #8
 159 005a 9CB2     		uxth	r4, r3
 160 005c 8C20     		movs	r0, #140
 161 005e FFF7FEFF 		bl	BME280_readRegister
 162 0062 0300     		movs	r3, r0
 163 0064 9BB2     		uxth	r3, r3
 164 0066 E318     		adds	r3, r4, r3
 165 0068 9BB2     		uxth	r3, r3
 166 006a 1AB2     		sxth	r2, r3
 167 006c A34B     		ldr	r3, .L5
 168 006e DA81     		strh	r2, [r3, #14]
  83:BME280.c      **** 
  84:BME280.c      **** 	bme280.calibration.dig_P1 = ((uint16_t)((BME280_readRegister(BME280_DIG_P1_MSB_REG) << 8) + BME280
 169              		.loc 1 84 0
 170 0070 8F20     		movs	r0, #143
 171 0072 FFF7FEFF 		bl	BME280_readRegister
 172 0076 0300     		movs	r3, r0
 173 0078 9BB2     		uxth	r3, r3
 174 007a 1B02     		lsls	r3, r3, #8
 175 007c 9CB2     		uxth	r4, r3
 176 007e 8E20     		movs	r0, #142
 177 0080 FFF7FEFF 		bl	BME280_readRegister
 178 0084 0300     		movs	r3, r0
 179 0086 9BB2     		uxth	r3, r3
 180 0088 E318     		adds	r3, r4, r3
 181 008a 9AB2     		uxth	r2, r3
 182 008c 9B4B     		ldr	r3, .L5
 183 008e 1A82     		strh	r2, [r3, #16]
  85:BME280.c      **** 	bme280.calibration.dig_P2 = ((int16_t)((BME280_readRegister(BME280_DIG_P2_MSB_REG) << 8) + BME280_
 184              		.loc 1 85 0
 185 0090 9120     		movs	r0, #145
 186 0092 FFF7FEFF 		bl	BME280_readRegister
 187 0096 0300     		movs	r3, r0
 188 0098 9BB2     		uxth	r3, r3
 189 009a 1B02     		lsls	r3, r3, #8
 190 009c 9CB2     		uxth	r4, r3
 191 009e 9020     		movs	r0, #144
 192 00a0 FFF7FEFF 		bl	BME280_readRegister
 193 00a4 0300     		movs	r3, r0
 194 00a6 9BB2     		uxth	r3, r3
 195 00a8 E318     		adds	r3, r4, r3
 196 00aa 9BB2     		uxth	r3, r3
ARM GAS  C:\Users\d4hhm\AppData\Local\Temp\cchY4aQw.s 			page 6


 197 00ac 1AB2     		sxth	r2, r3
 198 00ae 934B     		ldr	r3, .L5
 199 00b0 5A82     		strh	r2, [r3, #18]
  86:BME280.c      **** 	bme280.calibration.dig_P3 = ((int16_t)((BME280_readRegister(BME280_DIG_P3_MSB_REG) << 8) + BME280_
 200              		.loc 1 86 0
 201 00b2 9320     		movs	r0, #147
 202 00b4 FFF7FEFF 		bl	BME280_readRegister
 203 00b8 0300     		movs	r3, r0
 204 00ba 9BB2     		uxth	r3, r3
 205 00bc 1B02     		lsls	r3, r3, #8
 206 00be 9CB2     		uxth	r4, r3
 207 00c0 9220     		movs	r0, #146
 208 00c2 FFF7FEFF 		bl	BME280_readRegister
 209 00c6 0300     		movs	r3, r0
 210 00c8 9BB2     		uxth	r3, r3
 211 00ca E318     		adds	r3, r4, r3
 212 00cc 9BB2     		uxth	r3, r3
 213 00ce 1AB2     		sxth	r2, r3
 214 00d0 8A4B     		ldr	r3, .L5
 215 00d2 9A82     		strh	r2, [r3, #20]
  87:BME280.c      **** 	bme280.calibration.dig_P4 = ((int16_t)((BME280_readRegister(BME280_DIG_P4_MSB_REG) << 8) + BME280_
 216              		.loc 1 87 0
 217 00d4 9520     		movs	r0, #149
 218 00d6 FFF7FEFF 		bl	BME280_readRegister
 219 00da 0300     		movs	r3, r0
 220 00dc 9BB2     		uxth	r3, r3
 221 00de 1B02     		lsls	r3, r3, #8
 222 00e0 9CB2     		uxth	r4, r3
 223 00e2 9420     		movs	r0, #148
 224 00e4 FFF7FEFF 		bl	BME280_readRegister
 225 00e8 0300     		movs	r3, r0
 226 00ea 9BB2     		uxth	r3, r3
 227 00ec E318     		adds	r3, r4, r3
 228 00ee 9BB2     		uxth	r3, r3
 229 00f0 1AB2     		sxth	r2, r3
 230 00f2 824B     		ldr	r3, .L5
 231 00f4 DA82     		strh	r2, [r3, #22]
  88:BME280.c      **** 	bme280.calibration.dig_P5 = ((int16_t)((BME280_readRegister(BME280_DIG_P5_MSB_REG) << 8) + BME280_
 232              		.loc 1 88 0
 233 00f6 9720     		movs	r0, #151
 234 00f8 FFF7FEFF 		bl	BME280_readRegister
 235 00fc 0300     		movs	r3, r0
 236 00fe 9BB2     		uxth	r3, r3
 237 0100 1B02     		lsls	r3, r3, #8
 238 0102 9CB2     		uxth	r4, r3
 239 0104 9620     		movs	r0, #150
 240 0106 FFF7FEFF 		bl	BME280_readRegister
 241 010a 0300     		movs	r3, r0
 242 010c 9BB2     		uxth	r3, r3
 243 010e E318     		adds	r3, r4, r3
 244 0110 9BB2     		uxth	r3, r3
 245 0112 1AB2     		sxth	r2, r3
 246 0114 794B     		ldr	r3, .L5
 247 0116 1A83     		strh	r2, [r3, #24]
  89:BME280.c      **** 	bme280.calibration.dig_P6 = ((int16_t)((BME280_readRegister(BME280_DIG_P6_MSB_REG) << 8) + BME280_
 248              		.loc 1 89 0
 249 0118 9920     		movs	r0, #153
ARM GAS  C:\Users\d4hhm\AppData\Local\Temp\cchY4aQw.s 			page 7


 250 011a FFF7FEFF 		bl	BME280_readRegister
 251 011e 0300     		movs	r3, r0
 252 0120 9BB2     		uxth	r3, r3
 253 0122 1B02     		lsls	r3, r3, #8
 254 0124 9CB2     		uxth	r4, r3
 255 0126 9820     		movs	r0, #152
 256 0128 FFF7FEFF 		bl	BME280_readRegister
 257 012c 0300     		movs	r3, r0
 258 012e 9BB2     		uxth	r3, r3
 259 0130 E318     		adds	r3, r4, r3
 260 0132 9BB2     		uxth	r3, r3
 261 0134 1AB2     		sxth	r2, r3
 262 0136 714B     		ldr	r3, .L5
 263 0138 5A83     		strh	r2, [r3, #26]
  90:BME280.c      **** 	bme280.calibration.dig_P7 = ((int16_t)((BME280_readRegister(BME280_DIG_P7_MSB_REG) << 8) + BME280_
 264              		.loc 1 90 0
 265 013a 9B20     		movs	r0, #155
 266 013c FFF7FEFF 		bl	BME280_readRegister
 267 0140 0300     		movs	r3, r0
 268 0142 9BB2     		uxth	r3, r3
 269 0144 1B02     		lsls	r3, r3, #8
 270 0146 9CB2     		uxth	r4, r3
 271 0148 9A20     		movs	r0, #154
 272 014a FFF7FEFF 		bl	BME280_readRegister
 273 014e 0300     		movs	r3, r0
 274 0150 9BB2     		uxth	r3, r3
 275 0152 E318     		adds	r3, r4, r3
 276 0154 9BB2     		uxth	r3, r3
 277 0156 1AB2     		sxth	r2, r3
 278 0158 684B     		ldr	r3, .L5
 279 015a 9A83     		strh	r2, [r3, #28]
  91:BME280.c      **** 	bme280.calibration.dig_P8 = ((int16_t)((BME280_readRegister(BME280_DIG_P8_MSB_REG) << 8) + BME280_
 280              		.loc 1 91 0
 281 015c 9D20     		movs	r0, #157
 282 015e FFF7FEFF 		bl	BME280_readRegister
 283 0162 0300     		movs	r3, r0
 284 0164 9BB2     		uxth	r3, r3
 285 0166 1B02     		lsls	r3, r3, #8
 286 0168 9CB2     		uxth	r4, r3
 287 016a 9C20     		movs	r0, #156
 288 016c FFF7FEFF 		bl	BME280_readRegister
 289 0170 0300     		movs	r3, r0
 290 0172 9BB2     		uxth	r3, r3
 291 0174 E318     		adds	r3, r4, r3
 292 0176 9BB2     		uxth	r3, r3
 293 0178 1AB2     		sxth	r2, r3
 294 017a 604B     		ldr	r3, .L5
 295 017c DA83     		strh	r2, [r3, #30]
  92:BME280.c      **** 	bme280.calibration.dig_P9 = ((int16_t)((BME280_readRegister(BME280_DIG_P9_MSB_REG) << 8) + BME280_
 296              		.loc 1 92 0
 297 017e 9F20     		movs	r0, #159
 298 0180 FFF7FEFF 		bl	BME280_readRegister
 299 0184 0300     		movs	r3, r0
 300 0186 9BB2     		uxth	r3, r3
 301 0188 1B02     		lsls	r3, r3, #8
 302 018a 9CB2     		uxth	r4, r3
 303 018c 9E20     		movs	r0, #158
ARM GAS  C:\Users\d4hhm\AppData\Local\Temp\cchY4aQw.s 			page 8


 304 018e FFF7FEFF 		bl	BME280_readRegister
 305 0192 0300     		movs	r3, r0
 306 0194 9BB2     		uxth	r3, r3
 307 0196 E318     		adds	r3, r4, r3
 308 0198 9BB2     		uxth	r3, r3
 309 019a 1AB2     		sxth	r2, r3
 310 019c 574B     		ldr	r3, .L5
 311 019e 1A84     		strh	r2, [r3, #32]
  93:BME280.c      **** 
  94:BME280.c      **** 	bme280.calibration.dig_H1 = ((uint8_t)(BME280_readRegister(BME280_DIG_H1_REG)));
 312              		.loc 1 94 0
 313 01a0 A120     		movs	r0, #161
 314 01a2 FFF7FEFF 		bl	BME280_readRegister
 315 01a6 0300     		movs	r3, r0
 316 01a8 1900     		movs	r1, r3
 317 01aa 544B     		ldr	r3, .L5
 318 01ac 2222     		movs	r2, #34
 319 01ae 9954     		strb	r1, [r3, r2]
  95:BME280.c      **** 	bme280.calibration.dig_H2 = ((int16_t)((BME280_readRegister(BME280_DIG_H2_MSB_REG) << 8) + BME280_
 320              		.loc 1 95 0
 321 01b0 E220     		movs	r0, #226
 322 01b2 FFF7FEFF 		bl	BME280_readRegister
 323 01b6 0300     		movs	r3, r0
 324 01b8 9BB2     		uxth	r3, r3
 325 01ba 1B02     		lsls	r3, r3, #8
 326 01bc 9CB2     		uxth	r4, r3
 327 01be E120     		movs	r0, #225
 328 01c0 FFF7FEFF 		bl	BME280_readRegister
 329 01c4 0300     		movs	r3, r0
 330 01c6 9BB2     		uxth	r3, r3
 331 01c8 E318     		adds	r3, r4, r3
 332 01ca 9BB2     		uxth	r3, r3
 333 01cc 1AB2     		sxth	r2, r3
 334 01ce 4B4B     		ldr	r3, .L5
 335 01d0 9A84     		strh	r2, [r3, #36]
  96:BME280.c      **** 	bme280.calibration.dig_H3 = ((uint8_t)(BME280_readRegister(BME280_DIG_H3_REG)));
 336              		.loc 1 96 0
 337 01d2 E320     		movs	r0, #227
 338 01d4 FFF7FEFF 		bl	BME280_readRegister
 339 01d8 0300     		movs	r3, r0
 340 01da 1900     		movs	r1, r3
 341 01dc 474B     		ldr	r3, .L5
 342 01de 2622     		movs	r2, #38
 343 01e0 9954     		strb	r1, [r3, r2]
  97:BME280.c      **** 	bme280.calibration.dig_H4 = ((int16_t)((BME280_readRegister(BME280_DIG_H4_MSB_REG) << 4) + (BME280
 344              		.loc 1 97 0
 345 01e2 E420     		movs	r0, #228
 346 01e4 FFF7FEFF 		bl	BME280_readRegister
 347 01e8 0300     		movs	r3, r0
 348 01ea 9BB2     		uxth	r3, r3
 349 01ec 1B01     		lsls	r3, r3, #4
 350 01ee 9CB2     		uxth	r4, r3
 351 01f0 E520     		movs	r0, #229
 352 01f2 FFF7FEFF 		bl	BME280_readRegister
 353 01f6 0300     		movs	r3, r0
 354 01f8 9BB2     		uxth	r3, r3
 355 01fa 0F22     		movs	r2, #15
ARM GAS  C:\Users\d4hhm\AppData\Local\Temp\cchY4aQw.s 			page 9


 356 01fc 1340     		ands	r3, r2
 357 01fe 9BB2     		uxth	r3, r3
 358 0200 E318     		adds	r3, r4, r3
 359 0202 9BB2     		uxth	r3, r3
 360 0204 1AB2     		sxth	r2, r3
 361 0206 3D4B     		ldr	r3, .L5
 362 0208 1A85     		strh	r2, [r3, #40]
  98:BME280.c      **** 	bme280.calibration.dig_H5 = ((int16_t)((BME280_readRegister(BME280_DIG_H5_MSB_REG) << 4) + ((BME28
 363              		.loc 1 98 0
 364 020a E620     		movs	r0, #230
 365 020c FFF7FEFF 		bl	BME280_readRegister
 366 0210 0300     		movs	r3, r0
 367 0212 9BB2     		uxth	r3, r3
 368 0214 1B01     		lsls	r3, r3, #4
 369 0216 9CB2     		uxth	r4, r3
 370 0218 E520     		movs	r0, #229
 371 021a FFF7FEFF 		bl	BME280_readRegister
 372 021e 0300     		movs	r3, r0
 373 0220 1B09     		lsrs	r3, r3, #4
 374 0222 DBB2     		uxtb	r3, r3
 375 0224 9BB2     		uxth	r3, r3
 376 0226 0F22     		movs	r2, #15
 377 0228 1340     		ands	r3, r2
 378 022a 9BB2     		uxth	r3, r3
 379 022c E318     		adds	r3, r4, r3
 380 022e 9BB2     		uxth	r3, r3
 381 0230 1AB2     		sxth	r2, r3
 382 0232 324B     		ldr	r3, .L5
 383 0234 5A85     		strh	r2, [r3, #42]
  99:BME280.c      **** 	bme280.calibration.dig_H6 = ((uint8_t)BME280_readRegister(BME280_DIG_H6_REG));
 384              		.loc 1 99 0
 385 0236 E720     		movs	r0, #231
 386 0238 FFF7FEFF 		bl	BME280_readRegister
 387 023c 0300     		movs	r3, r0
 388 023e 1900     		movs	r1, r3
 389 0240 2E4B     		ldr	r3, .L5
 390 0242 2C22     		movs	r2, #44
 391 0244 9954     		strb	r1, [r3, r2]
 100:BME280.c      **** 
 101:BME280.c      **** 	//Set the oversampling control words.
 102:BME280.c      **** 	//config will only be writeable in sleep mode, so first insure that.
 103:BME280.c      **** 	BME280_writeRegister(BME280_CTRL_MEAS_REG, 0x00);
 392              		.loc 1 103 0
 393 0246 0021     		movs	r1, #0
 394 0248 F420     		movs	r0, #244
 395 024a FFF7FEFF 		bl	BME280_writeRegister
 104:BME280.c      **** 	
 105:BME280.c      **** 	//Set the config word
 106:BME280.c      **** 	data_to_write = (bme280.settings.tStandby << 0x5) & 0xE0;
 396              		.loc 1 106 0
 397 024e 2B4B     		ldr	r3, .L5
 398 0250 1B79     		ldrb	r3, [r3, #4]
 399 0252 5A01     		lsls	r2, r3, #5
 400 0254 FB1D     		adds	r3, r7, #7
 401 0256 1A70     		strb	r2, [r3]
 107:BME280.c      **** 	data_to_write |= (bme280.settings.filter << 0x02) & 0x1C;
 402              		.loc 1 107 0
ARM GAS  C:\Users\d4hhm\AppData\Local\Temp\cchY4aQw.s 			page 10


 403 0258 284B     		ldr	r3, .L5
 404 025a 5B79     		ldrb	r3, [r3, #5]
 405 025c 9B00     		lsls	r3, r3, #2
 406 025e 5BB2     		sxtb	r3, r3
 407 0260 1C22     		movs	r2, #28
 408 0262 1340     		ands	r3, r2
 409 0264 5AB2     		sxtb	r2, r3
 410 0266 FB1D     		adds	r3, r7, #7
 411 0268 1B78     		ldrb	r3, [r3]
 412 026a 5BB2     		sxtb	r3, r3
 413 026c 1343     		orrs	r3, r2
 414 026e 5AB2     		sxtb	r2, r3
 415 0270 FB1D     		adds	r3, r7, #7
 416 0272 1A70     		strb	r2, [r3]
 108:BME280.c      **** 	BME280_writeRegister(BME280_CONFIG_REG, data_to_write);
 417              		.loc 1 108 0
 418 0274 FB1D     		adds	r3, r7, #7
 419 0276 1B78     		ldrb	r3, [r3]
 420 0278 1900     		movs	r1, r3
 421 027a F520     		movs	r0, #245
 422 027c FFF7FEFF 		bl	BME280_writeRegister
 109:BME280.c      **** 	
 110:BME280.c      **** 	//Set ctrl_hum first, then ctrl_meas to activate ctrl_hum
 111:BME280.c      **** 	data_to_write = bme280.settings.humidOverSample & 0x07; //all other bits can be ignored
 423              		.loc 1 111 0
 424 0280 1E4B     		ldr	r3, .L5
 425 0282 1A7A     		ldrb	r2, [r3, #8]
 426 0284 FB1D     		adds	r3, r7, #7
 427 0286 0721     		movs	r1, #7
 428 0288 0A40     		ands	r2, r1
 429 028a 1A70     		strb	r2, [r3]
 112:BME280.c      **** 	BME280_writeRegister(BME280_CTRL_HUMIDITY_REG, data_to_write);
 430              		.loc 1 112 0
 431 028c FB1D     		adds	r3, r7, #7
 432 028e 1B78     		ldrb	r3, [r3]
 433 0290 1900     		movs	r1, r3
 434 0292 F220     		movs	r0, #242
 435 0294 FFF7FEFF 		bl	BME280_writeRegister
 113:BME280.c      **** 	
 114:BME280.c      **** 	//set ctrl_meas
 115:BME280.c      **** 	//First, set temp oversampling
 116:BME280.c      **** 	data_to_write = (bme280.settings.tempOverSample << 0x05) & 0xE0;
 436              		.loc 1 116 0
 437 0298 184B     		ldr	r3, .L5
 438 029a 9B79     		ldrb	r3, [r3, #6]
 439 029c 5A01     		lsls	r2, r3, #5
 440 029e FB1D     		adds	r3, r7, #7
 441 02a0 1A70     		strb	r2, [r3]
 117:BME280.c      **** 	//Next, pressure oversampling
 118:BME280.c      **** 	data_to_write |= (bme280.settings.pressOverSample << 0x02) & 0x1C;
 442              		.loc 1 118 0
 443 02a2 164B     		ldr	r3, .L5
 444 02a4 DB79     		ldrb	r3, [r3, #7]
 445 02a6 9B00     		lsls	r3, r3, #2
 446 02a8 5BB2     		sxtb	r3, r3
 447 02aa 1C22     		movs	r2, #28
 448 02ac 1340     		ands	r3, r2
ARM GAS  C:\Users\d4hhm\AppData\Local\Temp\cchY4aQw.s 			page 11


 449 02ae 5AB2     		sxtb	r2, r3
 450 02b0 FB1D     		adds	r3, r7, #7
 451 02b2 1B78     		ldrb	r3, [r3]
 452 02b4 5BB2     		sxtb	r3, r3
 453 02b6 1343     		orrs	r3, r2
 454 02b8 5AB2     		sxtb	r2, r3
 455 02ba FB1D     		adds	r3, r7, #7
 456 02bc 1A70     		strb	r2, [r3]
 119:BME280.c      **** 	//Last, set mode
 120:BME280.c      **** 	data_to_write |= (bme280.settings.runMode) & 0x03;
 457              		.loc 1 120 0
 458 02be 0F4B     		ldr	r3, .L5
 459 02c0 DB78     		ldrb	r3, [r3, #3]
 460 02c2 5BB2     		sxtb	r3, r3
 461 02c4 0322     		movs	r2, #3
 462 02c6 1340     		ands	r3, r2
 463 02c8 5AB2     		sxtb	r2, r3
 464 02ca FB1D     		adds	r3, r7, #7
 465 02cc 1B78     		ldrb	r3, [r3]
 466 02ce 5BB2     		sxtb	r3, r3
 467 02d0 1343     		orrs	r3, r2
 468 02d2 5AB2     		sxtb	r2, r3
 469 02d4 FB1D     		adds	r3, r7, #7
 470 02d6 1A70     		strb	r2, [r3]
 121:BME280.c      **** 	//Load the byte
 122:BME280.c      **** 	BME280_writeRegister(BME280_CTRL_MEAS_REG, data_to_write);
 471              		.loc 1 122 0
 472 02d8 FB1D     		adds	r3, r7, #7
 473 02da 1B78     		ldrb	r3, [r3]
 474 02dc 1900     		movs	r1, r3
 475 02de F420     		movs	r0, #244
 476 02e0 FFF7FEFF 		bl	BME280_writeRegister
 123:BME280.c      **** 	
 124:BME280.c      ****     // dataToWrite is a placeholder for the value we will return
 125:BME280.c      **** 	device_address = BME280_readRegister(0xD0);
 477              		.loc 1 125 0
 478 02e4 BC1D     		adds	r4, r7, #6
 479 02e6 D020     		movs	r0, #208
 480 02e8 FFF7FEFF 		bl	BME280_readRegister
 481 02ec 0300     		movs	r3, r0
 482 02ee 2370     		strb	r3, [r4]
 126:BME280.c      ****     return device_address;
 483              		.loc 1 126 0
 484 02f0 BB1D     		adds	r3, r7, #6
 485 02f2 1B78     		ldrb	r3, [r3]
 127:BME280.c      **** }
 486              		.loc 1 127 0
 487 02f4 1800     		movs	r0, r3
 488 02f6 BD46     		mov	sp, r7
 489 02f8 03B0     		add	sp, sp, #12
 490              		@ sp needed
 491 02fa 90BD     		pop	{r4, r7, pc}
 492              	.L6:
 493              		.align	2
 494              	.L5:
 495 02fc 00000000 		.word	bme280
 496              		.cfi_endproc
ARM GAS  C:\Users\d4hhm\AppData\Local\Temp\cchY4aQw.s 			page 12


 497              	.LFE37:
 498              		.size	BME280_init, .-BME280_init
 499              		.section	.text.BME280_reset,"ax",%progbits
 500              		.align	2
 501              		.global	BME280_reset
 502              		.code	16
 503              		.thumb_func
 504              		.type	BME280_reset, %function
 505              	BME280_reset:
 506              	.LFB38:
 128:BME280.c      **** 
 129:BME280.c      **** //Strictly resets.  Run BME280_init() afterwards
 130:BME280.c      **** void BME280_reset()
 131:BME280.c      **** {
 507              		.loc 1 131 0
 508              		.cfi_startproc
 509              		@ args = 0, pretend = 0, frame = 0
 510              		@ frame_needed = 1, uses_anonymous_args = 0
 511 0000 80B5     		push	{r7, lr}
 512              		.cfi_def_cfa_offset 8
 513              		.cfi_offset 7, -8
 514              		.cfi_offset 14, -4
 515 0002 00AF     		add	r7, sp, #0
 516              		.cfi_def_cfa_register 7
 132:BME280.c      **** 	BME280_writeRegister(BME280_RST_REG, 0xB6);
 517              		.loc 1 132 0
 518 0004 B621     		movs	r1, #182
 519 0006 E020     		movs	r0, #224
 520 0008 FFF7FEFF 		bl	BME280_writeRegister
 133:BME280.c      **** 	
 134:BME280.c      **** }
 521              		.loc 1 134 0
 522 000c C046     		nop
 523 000e BD46     		mov	sp, r7
 524              		@ sp needed
 525 0010 80BD     		pop	{r7, pc}
 526              		.cfi_endproc
 527              	.LFE38:
 528              		.size	BME280_reset, .-BME280_reset
 529              		.global	__aeabi_lmul
 530              		.global	__aeabi_ldivmod
 531              		.global	__aeabi_l2f
 532              		.global	__aeabi_fdiv
 533 0012 C046     		.section	.text.BME280_readFloatPressure,"ax",%progbits
 534              		.align	2
 535              		.global	BME280_readFloatPressure
 536              		.code	16
 537              		.thumb_func
 538              		.type	BME280_readFloatPressure, %function
 539              	BME280_readFloatPressure:
 540              	.LFB39:
 135:BME280.c      **** 
 136:BME280.c      **** //****************************************************************************//
 137:BME280.c      **** //
 138:BME280.c      **** //  Pressure Section
 139:BME280.c      **** //
 140:BME280.c      **** //****************************************************************************//
ARM GAS  C:\Users\d4hhm\AppData\Local\Temp\cchY4aQw.s 			page 13


 141:BME280.c      **** float BME280_readFloatPressure( void )
 142:BME280.c      **** {
 541              		.loc 1 142 0
 542              		.cfi_startproc
 543              		@ args = 0, pretend = 0, frame = 176
 544              		@ frame_needed = 1, uses_anonymous_args = 0
 545 0000 F0B5     		push	{r4, r5, r6, r7, lr}
 546              		.cfi_def_cfa_offset 20
 547              		.cfi_offset 4, -20
 548              		.cfi_offset 5, -16
 549              		.cfi_offset 6, -12
 550              		.cfi_offset 7, -8
 551              		.cfi_offset 14, -4
 552 0002 ADB0     		sub	sp, sp, #180
 553              		.cfi_def_cfa_offset 200
 554 0004 00AF     		add	r7, sp, #0
 555              		.cfi_def_cfa_register 7
 143:BME280.c      **** 
 144:BME280.c      **** 	// Returns pressure in Pa as unsigned 32 bit integer in Q24.8 format (24 integer bits and 8 fracti
 145:BME280.c      **** 	// Output value of “24674867” represents 24674867/256 = 96386.2 Pa = 963.862 hPa
 146:BME280.c      **** 	int32_t adc_P = ((uint32_t)BME280_readRegister(BME280_PRESSURE_MSB_REG) << 12) | ((uint32_t)BME280
 556              		.loc 1 146 0
 557 0006 F720     		movs	r0, #247
 558 0008 FFF7FEFF 		bl	BME280_readRegister
 559 000c 0300     		movs	r3, r0
 560 000e 1C03     		lsls	r4, r3, #12
 561 0010 F820     		movs	r0, #248
 562 0012 FFF7FEFF 		bl	BME280_readRegister
 563 0016 0300     		movs	r3, r0
 564 0018 1B01     		lsls	r3, r3, #4
 565 001a 1C43     		orrs	r4, r3
 566 001c F920     		movs	r0, #249
 567 001e FFF7FEFF 		bl	BME280_readRegister
 568 0022 0300     		movs	r3, r0
 569 0024 1B09     		lsrs	r3, r3, #4
 570 0026 DBB2     		uxtb	r3, r3
 571 0028 1A00     		movs	r2, r3
 572 002a 0F23     		movs	r3, #15
 573 002c 1340     		ands	r3, r2
 574 002e 2343     		orrs	r3, r4
 575 0030 AC22     		movs	r2, #172
 576 0032 BA18     		adds	r2, r7, r2
 577 0034 1360     		str	r3, [r2]
 147:BME280.c      **** 	
 148:BME280.c      **** 	int64_t var1, var2, p_acc;
 149:BME280.c      **** 	var1 = ((int64_t) bme280.t_fine) - 128000;
 578              		.loc 1 149 0
 579 0036 724B     		ldr	r3, .L11
 580 0038 1B6B     		ldr	r3, [r3, #48]
 581 003a 3B65     		str	r3, [r7, #80]
 582 003c DB17     		asrs	r3, r3, #31
 583 003e 7B65     		str	r3, [r7, #84]
 584 0040 704B     		ldr	r3, .L11+4
 585 0042 0124     		movs	r4, #1
 586 0044 6442     		rsbs	r4, r4, #0
 587 0046 396D     		ldr	r1, [r7, #80]
 588 0048 7A6D     		ldr	r2, [r7, #84]
ARM GAS  C:\Users\d4hhm\AppData\Local\Temp\cchY4aQw.s 			page 14


 589 004a C918     		adds	r1, r1, r3
 590 004c 6241     		adcs	r2, r2, r4
 591 004e 0B00     		movs	r3, r1
 592 0050 1400     		movs	r4, r2
 593 0052 A022     		movs	r2, #160
 594 0054 BA18     		adds	r2, r7, r2
 595 0056 1360     		str	r3, [r2]
 596 0058 5460     		str	r4, [r2, #4]
 150:BME280.c      **** 	var2 = var1 * var1 * (int64_t) bme280.calibration.dig_P6;
 597              		.loc 1 150 0
 598 005a A023     		movs	r3, #160
 599 005c FB18     		adds	r3, r7, r3
 600 005e 1A68     		ldr	r2, [r3]
 601 0060 5B68     		ldr	r3, [r3, #4]
 602 0062 A021     		movs	r1, #160
 603 0064 7918     		adds	r1, r7, r1
 604 0066 0868     		ldr	r0, [r1]
 605 0068 4968     		ldr	r1, [r1, #4]
 606 006a FFF7FEFF 		bl	__aeabi_lmul
 607 006e 0300     		movs	r3, r0
 608 0070 0C00     		movs	r4, r1
 609 0072 1800     		movs	r0, r3
 610 0074 2100     		movs	r1, r4
 611 0076 624B     		ldr	r3, .L11
 612 0078 1A22     		movs	r2, #26
 613 007a 9B5E     		ldrsh	r3, [r3, r2]
 614 007c BB64     		str	r3, [r7, #72]
 615 007e DB17     		asrs	r3, r3, #31
 616 0080 FB64     		str	r3, [r7, #76]
 617 0082 BA6C     		ldr	r2, [r7, #72]
 618 0084 FB6C     		ldr	r3, [r7, #76]
 619 0086 FFF7FEFF 		bl	__aeabi_lmul
 620 008a 0300     		movs	r3, r0
 621 008c 0C00     		movs	r4, r1
 622 008e 9822     		movs	r2, #152
 623 0090 BA18     		adds	r2, r7, r2
 624 0092 1360     		str	r3, [r2]
 625 0094 5460     		str	r4, [r2, #4]
 151:BME280.c      **** 	var2 = var2 + ((var1 * (int64_t) bme280.calibration.dig_P5)<<17);
 626              		.loc 1 151 0
 627 0096 5A4B     		ldr	r3, .L11
 628 0098 1822     		movs	r2, #24
 629 009a 9B5E     		ldrsh	r3, [r3, r2]
 630 009c 3B64     		str	r3, [r7, #64]
 631 009e DB17     		asrs	r3, r3, #31
 632 00a0 7B64     		str	r3, [r7, #68]
 633 00a2 A023     		movs	r3, #160
 634 00a4 FB18     		adds	r3, r7, r3
 635 00a6 1A68     		ldr	r2, [r3]
 636 00a8 5B68     		ldr	r3, [r3, #4]
 637 00aa 386C     		ldr	r0, [r7, #64]
 638 00ac 796C     		ldr	r1, [r7, #68]
 639 00ae FFF7FEFF 		bl	__aeabi_lmul
 640 00b2 0300     		movs	r3, r0
 641 00b4 0C00     		movs	r4, r1
 642 00b6 DA0B     		lsrs	r2, r3, #15
 643 00b8 6604     		lsls	r6, r4, #17
ARM GAS  C:\Users\d4hhm\AppData\Local\Temp\cchY4aQw.s 			page 15


 644 00ba 1643     		orrs	r6, r2
 645 00bc 5D04     		lsls	r5, r3, #17
 646 00be 9823     		movs	r3, #152
 647 00c0 FB18     		adds	r3, r7, r3
 648 00c2 5C68     		ldr	r4, [r3, #4]
 649 00c4 1B68     		ldr	r3, [r3]
 650 00c6 5B19     		adds	r3, r3, r5
 651 00c8 7441     		adcs	r4, r4, r6
 652 00ca 9822     		movs	r2, #152
 653 00cc BA18     		adds	r2, r7, r2
 654 00ce 1360     		str	r3, [r2]
 655 00d0 5460     		str	r4, [r2, #4]
 152:BME280.c      **** 	var2 = var2 + (((int64_t) bme280.calibration.dig_P4)<<35);
 656              		.loc 1 152 0
 657 00d2 4B4B     		ldr	r3, .L11
 658 00d4 1622     		movs	r2, #22
 659 00d6 9B5E     		ldrsh	r3, [r3, r2]
 660 00d8 BB63     		str	r3, [r7, #56]
 661 00da DB17     		asrs	r3, r3, #31
 662 00dc FB63     		str	r3, [r7, #60]
 663 00de BB6B     		ldr	r3, [r7, #56]
 664 00e0 DB00     		lsls	r3, r3, #3
 665 00e2 7B63     		str	r3, [r7, #52]
 666 00e4 0023     		movs	r3, #0
 667 00e6 3B63     		str	r3, [r7, #48]
 668 00e8 9823     		movs	r3, #152
 669 00ea FB18     		adds	r3, r7, r3
 670 00ec 5C68     		ldr	r4, [r3, #4]
 671 00ee 1B68     		ldr	r3, [r3]
 672 00f0 396B     		ldr	r1, [r7, #48]
 673 00f2 7A6B     		ldr	r2, [r7, #52]
 674 00f4 5B18     		adds	r3, r3, r1
 675 00f6 5441     		adcs	r4, r4, r2
 676 00f8 9822     		movs	r2, #152
 677 00fa BA18     		adds	r2, r7, r2
 678 00fc 1360     		str	r3, [r2]
 679 00fe 5460     		str	r4, [r2, #4]
 153:BME280.c      **** 	var1 = ((var1 * var1 * (int64_t) bme280.calibration.dig_P3)>>8) + ((var1 * (int64_t) bme280.calibr
 680              		.loc 1 153 0
 681 0100 A023     		movs	r3, #160
 682 0102 FB18     		adds	r3, r7, r3
 683 0104 1A68     		ldr	r2, [r3]
 684 0106 5B68     		ldr	r3, [r3, #4]
 685 0108 A021     		movs	r1, #160
 686 010a 7918     		adds	r1, r7, r1
 687 010c 0868     		ldr	r0, [r1]
 688 010e 4968     		ldr	r1, [r1, #4]
 689 0110 FFF7FEFF 		bl	__aeabi_lmul
 690 0114 0300     		movs	r3, r0
 691 0116 0C00     		movs	r4, r1
 692 0118 1800     		movs	r0, r3
 693 011a 2100     		movs	r1, r4
 694 011c 384B     		ldr	r3, .L11
 695 011e 1422     		movs	r2, #20
 696 0120 9B5E     		ldrsh	r3, [r3, r2]
 697 0122 BB62     		str	r3, [r7, #40]
 698 0124 DB17     		asrs	r3, r3, #31
ARM GAS  C:\Users\d4hhm\AppData\Local\Temp\cchY4aQw.s 			page 16


 699 0126 FB62     		str	r3, [r7, #44]
 700 0128 BA6A     		ldr	r2, [r7, #40]
 701 012a FB6A     		ldr	r3, [r7, #44]
 702 012c FFF7FEFF 		bl	__aeabi_lmul
 703 0130 0300     		movs	r3, r0
 704 0132 0C00     		movs	r4, r1
 705 0134 2206     		lsls	r2, r4, #24
 706 0136 190A     		lsrs	r1, r3, #8
 707 0138 8820     		movs	r0, #136
 708 013a 3818     		adds	r0, r7, r0
 709 013c 0160     		str	r1, [r0]
 710 013e 8821     		movs	r1, #136
 711 0140 7918     		adds	r1, r7, r1
 712 0142 0968     		ldr	r1, [r1]
 713 0144 1143     		orrs	r1, r2
 714 0146 8822     		movs	r2, #136
 715 0148 BA18     		adds	r2, r7, r2
 716 014a 1160     		str	r1, [r2]
 717 014c 2312     		asrs	r3, r4, #8
 718 014e 8C22     		movs	r2, #140
 719 0150 BA18     		adds	r2, r7, r2
 720 0152 1360     		str	r3, [r2]
 721 0154 2A4B     		ldr	r3, .L11
 722 0156 1222     		movs	r2, #18
 723 0158 9B5E     		ldrsh	r3, [r3, r2]
 724 015a 3B62     		str	r3, [r7, #32]
 725 015c DB17     		asrs	r3, r3, #31
 726 015e 7B62     		str	r3, [r7, #36]
 727 0160 A023     		movs	r3, #160
 728 0162 FB18     		adds	r3, r7, r3
 729 0164 1A68     		ldr	r2, [r3]
 730 0166 5B68     		ldr	r3, [r3, #4]
 731 0168 386A     		ldr	r0, [r7, #32]
 732 016a 796A     		ldr	r1, [r7, #36]
 733 016c FFF7FEFF 		bl	__aeabi_lmul
 734 0170 0300     		movs	r3, r0
 735 0172 0C00     		movs	r4, r1
 736 0174 1A0D     		lsrs	r2, r3, #20
 737 0176 2103     		lsls	r1, r4, #12
 738 0178 8420     		movs	r0, #132
 739 017a 3818     		adds	r0, r7, r0
 740 017c 0160     		str	r1, [r0]
 741 017e 8421     		movs	r1, #132
 742 0180 7918     		adds	r1, r7, r1
 743 0182 0968     		ldr	r1, [r1]
 744 0184 1143     		orrs	r1, r2
 745 0186 8422     		movs	r2, #132
 746 0188 BA18     		adds	r2, r7, r2
 747 018a 1160     		str	r1, [r2]
 748 018c 1B03     		lsls	r3, r3, #12
 749 018e 8022     		movs	r2, #128
 750 0190 BA18     		adds	r2, r7, r2
 751 0192 1360     		str	r3, [r2]
 752 0194 8823     		movs	r3, #136
 753 0196 FB18     		adds	r3, r7, r3
 754 0198 5C68     		ldr	r4, [r3, #4]
 755 019a 1B68     		ldr	r3, [r3]
ARM GAS  C:\Users\d4hhm\AppData\Local\Temp\cchY4aQw.s 			page 17


 756 019c 8022     		movs	r2, #128
 757 019e BA18     		adds	r2, r7, r2
 758 01a0 1168     		ldr	r1, [r2]
 759 01a2 5268     		ldr	r2, [r2, #4]
 760 01a4 5B18     		adds	r3, r3, r1
 761 01a6 5441     		adcs	r4, r4, r2
 762 01a8 A022     		movs	r2, #160
 763 01aa BA18     		adds	r2, r7, r2
 764 01ac 1360     		str	r3, [r2]
 765 01ae 5460     		str	r4, [r2, #4]
 154:BME280.c      **** 	var1 = (((((int64_t)1)<<47)+var1))*((int64_t) bme280.calibration.dig_P1)>>33;
 766              		.loc 1 154 0
 767 01b0 A023     		movs	r3, #160
 768 01b2 FB18     		adds	r3, r7, r3
 769 01b4 1968     		ldr	r1, [r3]
 770 01b6 5A68     		ldr	r2, [r3, #4]
 771 01b8 0023     		movs	r3, #0
 772 01ba 8024     		movs	r4, #128
 773 01bc 2402     		lsls	r4, r4, #8
 774 01be C918     		adds	r1, r1, r3
 775 01c0 6241     		adcs	r2, r2, r4
 776 01c2 0800     		movs	r0, r1
 777 01c4 1100     		movs	r1, r2
 778 01c6 0E4B     		ldr	r3, .L11
 779 01c8 1B8A     		ldrh	r3, [r3, #16]
 780 01ca BB61     		str	r3, [r7, #24]
 781 01cc 0023     		movs	r3, #0
 782 01ce FB61     		str	r3, [r7, #28]
 783 01d0 BA69     		ldr	r2, [r7, #24]
 784 01d2 FB69     		ldr	r3, [r7, #28]
 785 01d4 FFF7FEFF 		bl	__aeabi_lmul
 786 01d8 0300     		movs	r3, r0
 787 01da 0C00     		movs	r4, r1
 788 01dc 6210     		asrs	r2, r4, #1
 789 01de A021     		movs	r1, #160
 790 01e0 7918     		adds	r1, r7, r1
 791 01e2 0A60     		str	r2, [r1]
 792 01e4 E317     		asrs	r3, r4, #31
 793 01e6 A422     		movs	r2, #164
 794 01e8 BA18     		adds	r2, r7, r2
 795 01ea 1360     		str	r3, [r2]
 155:BME280.c      **** 	if (var1 == 0)
 796              		.loc 1 155 0
 797 01ec A023     		movs	r3, #160
 798 01ee FB18     		adds	r3, r7, r3
 799 01f0 1A68     		ldr	r2, [r3]
 800 01f2 A423     		movs	r3, #164
 801 01f4 FB18     		adds	r3, r7, r3
 802 01f6 1B68     		ldr	r3, [r3]
 803 01f8 1A43     		orrs	r2, r3
 804 01fa 05D1     		bne	.L9
 156:BME280.c      **** 	{
 157:BME280.c      **** 		return 0; // avoid exception caused by division by zero
 805              		.loc 1 157 0
 806 01fc 0023     		movs	r3, #0
 807 01fe E0E0     		b	.L10
 808              	.L12:
ARM GAS  C:\Users\d4hhm\AppData\Local\Temp\cchY4aQw.s 			page 18


 809              		.align	2
 810              	.L11:
 811 0200 00000000 		.word	bme280
 812 0204 000CFEFF 		.word	-128000
 813              	.L9:
 158:BME280.c      **** 	}
 159:BME280.c      **** 	p_acc = 1048576 - adc_P;
 814              		.loc 1 159 0
 815 0208 AC23     		movs	r3, #172
 816 020a FB18     		adds	r3, r7, r3
 817 020c 1A68     		ldr	r2, [r3]
 818 020e 8023     		movs	r3, #128
 819 0210 5B03     		lsls	r3, r3, #13
 820 0212 9B1A     		subs	r3, r3, r2
 821 0214 9022     		movs	r2, #144
 822 0216 BA18     		adds	r2, r7, r2
 823 0218 1360     		str	r3, [r2]
 824 021a DB17     		asrs	r3, r3, #31
 825 021c 9422     		movs	r2, #148
 826 021e BA18     		adds	r2, r7, r2
 827 0220 1360     		str	r3, [r2]
 160:BME280.c      **** 	p_acc = (((p_acc<<31) - var2)*3125)/var1;
 828              		.loc 1 160 0
 829 0222 9023     		movs	r3, #144
 830 0224 FB18     		adds	r3, r7, r3
 831 0226 1B68     		ldr	r3, [r3]
 832 0228 5A08     		lsrs	r2, r3, #1
 833 022a 9423     		movs	r3, #148
 834 022c FB18     		adds	r3, r7, r3
 835 022e 1B68     		ldr	r3, [r3]
 836 0230 DB07     		lsls	r3, r3, #31
 837 0232 FB67     		str	r3, [r7, #124]
 838 0234 FB6F     		ldr	r3, [r7, #124]
 839 0236 1343     		orrs	r3, r2
 840 0238 FB67     		str	r3, [r7, #124]
 841 023a 9023     		movs	r3, #144
 842 023c FB18     		adds	r3, r7, r3
 843 023e 1B68     		ldr	r3, [r3]
 844 0240 DB07     		lsls	r3, r3, #31
 845 0242 BB67     		str	r3, [r7, #120]
 846 0244 9823     		movs	r3, #152
 847 0246 FB18     		adds	r3, r7, r3
 848 0248 5C68     		ldr	r4, [r3, #4]
 849 024a 1B68     		ldr	r3, [r3]
 850 024c B86F     		ldr	r0, [r7, #120]
 851 024e F96F     		ldr	r1, [r7, #124]
 852 0250 C01A     		subs	r0, r0, r3
 853 0252 A141     		sbcs	r1, r1, r4
 854 0254 5D4A     		ldr	r2, .L13
 855 0256 0023     		movs	r3, #0
 856 0258 FFF7FEFF 		bl	__aeabi_lmul
 857 025c 0300     		movs	r3, r0
 858 025e 0C00     		movs	r4, r1
 859 0260 1800     		movs	r0, r3
 860 0262 2100     		movs	r1, r4
 861 0264 A023     		movs	r3, #160
 862 0266 FB18     		adds	r3, r7, r3
ARM GAS  C:\Users\d4hhm\AppData\Local\Temp\cchY4aQw.s 			page 19


 863 0268 1A68     		ldr	r2, [r3]
 864 026a 5B68     		ldr	r3, [r3, #4]
 865 026c FFF7FEFF 		bl	__aeabi_ldivmod
 866 0270 0300     		movs	r3, r0
 867 0272 0C00     		movs	r4, r1
 868 0274 9022     		movs	r2, #144
 869 0276 BA18     		adds	r2, r7, r2
 870 0278 1360     		str	r3, [r2]
 871 027a 5460     		str	r4, [r2, #4]
 161:BME280.c      **** 	var1 = (((int64_t) bme280.calibration.dig_P9) * (p_acc>>13) * (p_acc>>13)) >> 25;
 872              		.loc 1 161 0
 873 027c 544B     		ldr	r3, .L13+4
 874 027e 2022     		movs	r2, #32
 875 0280 9B5E     		ldrsh	r3, [r3, r2]
 876 0282 3B61     		str	r3, [r7, #16]
 877 0284 DB17     		asrs	r3, r3, #31
 878 0286 7B61     		str	r3, [r7, #20]
 879 0288 9423     		movs	r3, #148
 880 028a FB18     		adds	r3, r7, r3
 881 028c 1B68     		ldr	r3, [r3]
 882 028e DA04     		lsls	r2, r3, #19
 883 0290 9023     		movs	r3, #144
 884 0292 FB18     		adds	r3, r7, r3
 885 0294 1B68     		ldr	r3, [r3]
 886 0296 5B0B     		lsrs	r3, r3, #13
 887 0298 3B67     		str	r3, [r7, #112]
 888 029a 3B6F     		ldr	r3, [r7, #112]
 889 029c 1343     		orrs	r3, r2
 890 029e 3B67     		str	r3, [r7, #112]
 891 02a0 9423     		movs	r3, #148
 892 02a2 FB18     		adds	r3, r7, r3
 893 02a4 1B68     		ldr	r3, [r3]
 894 02a6 5B13     		asrs	r3, r3, #13
 895 02a8 7B67     		str	r3, [r7, #116]
 896 02aa 3A6F     		ldr	r2, [r7, #112]
 897 02ac 7B6F     		ldr	r3, [r7, #116]
 898 02ae 3869     		ldr	r0, [r7, #16]
 899 02b0 7969     		ldr	r1, [r7, #20]
 900 02b2 FFF7FEFF 		bl	__aeabi_lmul
 901 02b6 0300     		movs	r3, r0
 902 02b8 0C00     		movs	r4, r1
 903 02ba 1800     		movs	r0, r3
 904 02bc 2100     		movs	r1, r4
 905 02be 9423     		movs	r3, #148
 906 02c0 FB18     		adds	r3, r7, r3
 907 02c2 1B68     		ldr	r3, [r3]
 908 02c4 DA04     		lsls	r2, r3, #19
 909 02c6 9023     		movs	r3, #144
 910 02c8 FB18     		adds	r3, r7, r3
 911 02ca 1B68     		ldr	r3, [r3]
 912 02cc 5B0B     		lsrs	r3, r3, #13
 913 02ce BB66     		str	r3, [r7, #104]
 914 02d0 BB6E     		ldr	r3, [r7, #104]
 915 02d2 1343     		orrs	r3, r2
 916 02d4 BB66     		str	r3, [r7, #104]
 917 02d6 9423     		movs	r3, #148
 918 02d8 FB18     		adds	r3, r7, r3
ARM GAS  C:\Users\d4hhm\AppData\Local\Temp\cchY4aQw.s 			page 20


 919 02da 1B68     		ldr	r3, [r3]
 920 02dc 5B13     		asrs	r3, r3, #13
 921 02de FB66     		str	r3, [r7, #108]
 922 02e0 BA6E     		ldr	r2, [r7, #104]
 923 02e2 FB6E     		ldr	r3, [r7, #108]
 924 02e4 FFF7FEFF 		bl	__aeabi_lmul
 925 02e8 0300     		movs	r3, r0
 926 02ea 0C00     		movs	r4, r1
 927 02ec E201     		lsls	r2, r4, #7
 928 02ee 590E     		lsrs	r1, r3, #25
 929 02f0 0A43     		orrs	r2, r1
 930 02f2 A021     		movs	r1, #160
 931 02f4 7918     		adds	r1, r7, r1
 932 02f6 0A60     		str	r2, [r1]
 933 02f8 6316     		asrs	r3, r4, #25
 934 02fa A422     		movs	r2, #164
 935 02fc BA18     		adds	r2, r7, r2
 936 02fe 1360     		str	r3, [r2]
 162:BME280.c      **** 	var2 = (((int64_t) bme280.calibration.dig_P8) * p_acc) >> 19;
 937              		.loc 1 162 0
 938 0300 334B     		ldr	r3, .L13+4
 939 0302 1E22     		movs	r2, #30
 940 0304 9B5E     		ldrsh	r3, [r3, r2]
 941 0306 BB60     		str	r3, [r7, #8]
 942 0308 DB17     		asrs	r3, r3, #31
 943 030a FB60     		str	r3, [r7, #12]
 944 030c 9023     		movs	r3, #144
 945 030e FB18     		adds	r3, r7, r3
 946 0310 1A68     		ldr	r2, [r3]
 947 0312 5B68     		ldr	r3, [r3, #4]
 948 0314 B868     		ldr	r0, [r7, #8]
 949 0316 F968     		ldr	r1, [r7, #12]
 950 0318 FFF7FEFF 		bl	__aeabi_lmul
 951 031c 0300     		movs	r3, r0
 952 031e 0C00     		movs	r4, r1
 953 0320 6203     		lsls	r2, r4, #13
 954 0322 D90C     		lsrs	r1, r3, #19
 955 0324 0A43     		orrs	r2, r1
 956 0326 9821     		movs	r1, #152
 957 0328 7918     		adds	r1, r7, r1
 958 032a 0A60     		str	r2, [r1]
 959 032c E314     		asrs	r3, r4, #19
 960 032e 9C22     		movs	r2, #156
 961 0330 BA18     		adds	r2, r7, r2
 962 0332 1360     		str	r3, [r2]
 163:BME280.c      **** 	p_acc = ((p_acc + var1 + var2) >> 8) + (((int64_t) bme280.calibration.dig_P7)<<4);
 963              		.loc 1 163 0
 964 0334 9023     		movs	r3, #144
 965 0336 FB18     		adds	r3, r7, r3
 966 0338 1968     		ldr	r1, [r3]
 967 033a 5A68     		ldr	r2, [r3, #4]
 968 033c A023     		movs	r3, #160
 969 033e FB18     		adds	r3, r7, r3
 970 0340 5C68     		ldr	r4, [r3, #4]
 971 0342 1B68     		ldr	r3, [r3]
 972 0344 C918     		adds	r1, r1, r3
 973 0346 6241     		adcs	r2, r2, r4
ARM GAS  C:\Users\d4hhm\AppData\Local\Temp\cchY4aQw.s 			page 21


 974 0348 9823     		movs	r3, #152
 975 034a FB18     		adds	r3, r7, r3
 976 034c 5C68     		ldr	r4, [r3, #4]
 977 034e 1B68     		ldr	r3, [r3]
 978 0350 5B18     		adds	r3, r3, r1
 979 0352 5441     		adcs	r4, r4, r2
 980 0354 2206     		lsls	r2, r4, #24
 981 0356 190A     		lsrs	r1, r3, #8
 982 0358 3966     		str	r1, [r7, #96]
 983 035a 396E     		ldr	r1, [r7, #96]
 984 035c 1143     		orrs	r1, r2
 985 035e 3966     		str	r1, [r7, #96]
 986 0360 2312     		asrs	r3, r4, #8
 987 0362 7B66     		str	r3, [r7, #100]
 988 0364 1A4B     		ldr	r3, .L13+4
 989 0366 1C22     		movs	r2, #28
 990 0368 9B5E     		ldrsh	r3, [r3, r2]
 991 036a 3B60     		str	r3, [r7]
 992 036c DB17     		asrs	r3, r3, #31
 993 036e 7B60     		str	r3, [r7, #4]
 994 0370 3968     		ldr	r1, [r7]
 995 0372 7A68     		ldr	r2, [r7, #4]
 996 0374 0B00     		movs	r3, r1
 997 0376 1B0F     		lsrs	r3, r3, #28
 998 0378 1000     		movs	r0, r2
 999 037a 0001     		lsls	r0, r0, #4
 1000 037c F865     		str	r0, [r7, #92]
 1001 037e F86D     		ldr	r0, [r7, #92]
 1002 0380 1843     		orrs	r0, r3
 1003 0382 F865     		str	r0, [r7, #92]
 1004 0384 0B00     		movs	r3, r1
 1005 0386 1B01     		lsls	r3, r3, #4
 1006 0388 BB65     		str	r3, [r7, #88]
 1007 038a 3B6E     		ldr	r3, [r7, #96]
 1008 038c 7C6E     		ldr	r4, [r7, #100]
 1009 038e B96D     		ldr	r1, [r7, #88]
 1010 0390 FA6D     		ldr	r2, [r7, #92]
 1011 0392 5B18     		adds	r3, r3, r1
 1012 0394 5441     		adcs	r4, r4, r2
 1013 0396 9022     		movs	r2, #144
 1014 0398 BA18     		adds	r2, r7, r2
 1015 039a 1360     		str	r3, [r2]
 1016 039c 5460     		str	r4, [r2, #4]
 164:BME280.c      **** 	
 165:BME280.c      ****     bme280.press_Pa = (float)p_acc / 256.0;
 1017              		.loc 1 165 0
 1018 039e 9023     		movs	r3, #144
 1019 03a0 FB18     		adds	r3, r7, r3
 1020 03a2 1868     		ldr	r0, [r3]
 1021 03a4 5968     		ldr	r1, [r3, #4]
 1022 03a6 FFF7FEFF 		bl	__aeabi_l2f
 1023 03aa 031C     		adds	r3, r0, #0
 1024 03ac 8721     		movs	r1, #135
 1025 03ae C905     		lsls	r1, r1, #23
 1026 03b0 181C     		adds	r0, r3, #0
 1027 03b2 FFF7FEFF 		bl	__aeabi_fdiv
 1028 03b6 031C     		adds	r3, r0, #0
ARM GAS  C:\Users\d4hhm\AppData\Local\Temp\cchY4aQw.s 			page 22


 1029 03b8 1A1C     		adds	r2, r3, #0
 1030 03ba 054B     		ldr	r3, .L13+4
 1031 03bc 9A63     		str	r2, [r3, #56]
 166:BME280.c      ****     return bme280.press_Pa;
 1032              		.loc 1 166 0
 1033 03be 044B     		ldr	r3, .L13+4
 1034 03c0 9B6B     		ldr	r3, [r3, #56]
 1035              	.L10:
 167:BME280.c      **** 	
 168:BME280.c      **** }
 1036              		.loc 1 168 0
 1037 03c2 181C     		adds	r0, r3, #0
 1038 03c4 BD46     		mov	sp, r7
 1039 03c6 2DB0     		add	sp, sp, #180
 1040              		@ sp needed
 1041 03c8 F0BD     		pop	{r4, r5, r6, r7, pc}
 1042              	.L14:
 1043 03ca C046     		.align	2
 1044              	.L13:
 1045 03cc 350C0000 		.word	3125
 1046 03d0 00000000 		.word	bme280
 1047              		.cfi_endproc
 1048              	.LFE39:
 1049              		.size	BME280_readFloatPressure, .-BME280_readFloatPressure
 1050              		.global	__aeabi_f2d
 1051              		.global	__aeabi_dsub
 1052              		.global	__aeabi_dmul
 1053              		.global	__aeabi_d2f
 1054              		.section	.text.BME280_readFloatAltitudeMeters,"ax",%progbits
 1055              		.align	2
 1056              		.global	BME280_readFloatAltitudeMeters
 1057              		.code	16
 1058              		.thumb_func
 1059              		.type	BME280_readFloatAltitudeMeters, %function
 1060              	BME280_readFloatAltitudeMeters:
 1061              	.LFB40:
 169:BME280.c      **** 
 170:BME280.c      **** float BME280_readFloatAltitudeMeters( void )
 171:BME280.c      **** {
 1062              		.loc 1 171 0
 1063              		.cfi_startproc
 1064              		@ args = 0, pretend = 0, frame = 8
 1065              		@ frame_needed = 1, uses_anonymous_args = 0
 1066 0000 90B5     		push	{r4, r7, lr}
 1067              		.cfi_def_cfa_offset 12
 1068              		.cfi_offset 4, -12
 1069              		.cfi_offset 7, -8
 1070              		.cfi_offset 14, -4
 1071 0002 83B0     		sub	sp, sp, #12
 1072              		.cfi_def_cfa_offset 24
 1073 0004 00AF     		add	r7, sp, #0
 1074              		.cfi_def_cfa_register 7
 172:BME280.c      **** 	float heightOutput = 0;
 1075              		.loc 1 172 0
 1076 0006 0023     		movs	r3, #0
 1077 0008 7B60     		str	r3, [r7, #4]
 173:BME280.c      **** 	
ARM GAS  C:\Users\d4hhm\AppData\Local\Temp\cchY4aQw.s 			page 23


 174:BME280.c      **** 	heightOutput = ((float)-45846.2)*(pow(((float) BME280_readFloatPressure()/(float) P_SURFACE), 0.19
 1078              		.loc 1 174 0
 1079 000a FFF7FEFF 		bl	BME280_readFloatPressure
 1080 000e 031C     		adds	r3, r0, #0
 1081 0010 1349     		ldr	r1, .L17
 1082 0012 181C     		adds	r0, r3, #0
 1083 0014 FFF7FEFF 		bl	__aeabi_fdiv
 1084 0018 031C     		adds	r3, r0, #0
 1085 001a 181C     		adds	r0, r3, #0
 1086 001c FFF7FEFF 		bl	__aeabi_f2d
 1087 0020 104B     		ldr	r3, .L17+4
 1088 0022 114C     		ldr	r4, .L17+8
 1089 0024 1A00     		movs	r2, r3
 1090 0026 2300     		movs	r3, r4
 1091 0028 FFF7FEFF 		bl	pow
 1092 002c 0022     		movs	r2, #0
 1093 002e 0F4B     		ldr	r3, .L17+12
 1094 0030 FFF7FEFF 		bl	__aeabi_dsub
 1095 0034 0300     		movs	r3, r0
 1096 0036 0C00     		movs	r4, r1
 1097 0038 1800     		movs	r0, r3
 1098 003a 2100     		movs	r1, r4
 1099 003c C022     		movs	r2, #192
 1100 003e D205     		lsls	r2, r2, #23
 1101 0040 0B4B     		ldr	r3, .L17+16
 1102 0042 FFF7FEFF 		bl	__aeabi_dmul
 1103 0046 0300     		movs	r3, r0
 1104 0048 0C00     		movs	r4, r1
 1105 004a 1800     		movs	r0, r3
 1106 004c 2100     		movs	r1, r4
 1107 004e FFF7FEFF 		bl	__aeabi_d2f
 1108 0052 031C     		adds	r3, r0, #0
 1109 0054 7B60     		str	r3, [r7, #4]
 175:BME280.c      **** 	return heightOutput;
 1110              		.loc 1 175 0
 1111 0056 7B68     		ldr	r3, [r7, #4]
 176:BME280.c      **** 	
 177:BME280.c      **** }
 1112              		.loc 1 177 0
 1113 0058 181C     		adds	r0, r3, #0
 1114 005a BD46     		mov	sp, r7
 1115 005c 03B0     		add	sp, sp, #12
 1116              		@ sp needed
 1117 005e 90BD     		pop	{r4, r7, pc}
 1118              	.L18:
 1119              		.align	2
 1120              	.L17:
 1121 0060 80E6C547 		.word	1204151936
 1122 0064 C5C551B9 		.word	-1185823291
 1123 0068 895AC83F 		.word	1070094985
 1124 006c 0000F03F 		.word	1072693248
 1125 0070 C662E6C0 		.word	-1058643258
 1126              		.cfi_endproc
 1127              	.LFE40:
 1128              		.size	BME280_readFloatAltitudeMeters, .-BME280_readFloatAltitudeMeters
 1129              		.section	.text.BME280_readFloatAltitudeFeet,"ax",%progbits
 1130              		.align	2
ARM GAS  C:\Users\d4hhm\AppData\Local\Temp\cchY4aQw.s 			page 24


 1131              		.global	BME280_readFloatAltitudeFeet
 1132              		.code	16
 1133              		.thumb_func
 1134              		.type	BME280_readFloatAltitudeFeet, %function
 1135              	BME280_readFloatAltitudeFeet:
 1136              	.LFB41:
 178:BME280.c      **** 
 179:BME280.c      **** float BME280_readFloatAltitudeFeet( void )
 180:BME280.c      **** {
 1137              		.loc 1 180 0
 1138              		.cfi_startproc
 1139              		@ args = 0, pretend = 0, frame = 8
 1140              		@ frame_needed = 1, uses_anonymous_args = 0
 1141 0000 90B5     		push	{r4, r7, lr}
 1142              		.cfi_def_cfa_offset 12
 1143              		.cfi_offset 4, -12
 1144              		.cfi_offset 7, -8
 1145              		.cfi_offset 14, -4
 1146 0002 83B0     		sub	sp, sp, #12
 1147              		.cfi_def_cfa_offset 24
 1148 0004 00AF     		add	r7, sp, #0
 1149              		.cfi_def_cfa_register 7
 181:BME280.c      **** 	float heightOutput = 0;
 1150              		.loc 1 181 0
 1151 0006 0023     		movs	r3, #0
 1152 0008 7B60     		str	r3, [r7, #4]
 182:BME280.c      **** 	
 183:BME280.c      **** 	heightOutput = BME280_readFloatAltitudeMeters() * 3.28084;
 1153              		.loc 1 183 0
 1154 000a FFF7FEFF 		bl	BME280_readFloatAltitudeMeters
 1155 000e 031C     		adds	r3, r0, #0
 1156 0010 181C     		adds	r0, r3, #0
 1157 0012 FFF7FEFF 		bl	__aeabi_f2d
 1158 0016 084A     		ldr	r2, .L21
 1159 0018 084B     		ldr	r3, .L21+4
 1160 001a FFF7FEFF 		bl	__aeabi_dmul
 1161 001e 0300     		movs	r3, r0
 1162 0020 0C00     		movs	r4, r1
 1163 0022 1800     		movs	r0, r3
 1164 0024 2100     		movs	r1, r4
 1165 0026 FFF7FEFF 		bl	__aeabi_d2f
 1166 002a 031C     		adds	r3, r0, #0
 1167 002c 7B60     		str	r3, [r7, #4]
 184:BME280.c      **** 	return heightOutput;
 1168              		.loc 1 184 0
 1169 002e 7B68     		ldr	r3, [r7, #4]
 185:BME280.c      **** 	
 186:BME280.c      **** }
 1170              		.loc 1 186 0
 1171 0030 181C     		adds	r0, r3, #0
 1172 0032 BD46     		mov	sp, r7
 1173 0034 03B0     		add	sp, sp, #12
 1174              		@ sp needed
 1175 0036 90BD     		pop	{r4, r7, pc}
 1176              	.L22:
 1177              		.align	2
 1178              	.L21:
ARM GAS  C:\Users\d4hhm\AppData\Local\Temp\cchY4aQw.s 			page 25


 1179 0038 E544BB0A 		.word	180045029
 1180 003c 293F0A40 		.word	1074413353
 1181              		.cfi_endproc
 1182              	.LFE41:
 1183              		.size	BME280_readFloatAltitudeFeet, .-BME280_readFloatAltitudeFeet
 1184              		.global	__aeabi_i2f
 1185              		.section	.text.BME280_readFloatHumidity,"ax",%progbits
 1186              		.align	2
 1187              		.global	BME280_readFloatHumidity
 1188              		.code	16
 1189              		.thumb_func
 1190              		.type	BME280_readFloatHumidity, %function
 1191              	BME280_readFloatHumidity:
 1192              	.LFB42:
 187:BME280.c      **** 
 188:BME280.c      **** //****************************************************************************//
 189:BME280.c      **** //
 190:BME280.c      **** //  Humidity Section
 191:BME280.c      **** //
 192:BME280.c      **** //****************************************************************************//
 193:BME280.c      **** float BME280_readFloatHumidity( void )
 194:BME280.c      **** {
 1193              		.loc 1 194 0
 1194              		.cfi_startproc
 1195              		@ args = 0, pretend = 0, frame = 8
 1196              		@ frame_needed = 1, uses_anonymous_args = 0
 1197 0000 90B5     		push	{r4, r7, lr}
 1198              		.cfi_def_cfa_offset 12
 1199              		.cfi_offset 4, -12
 1200              		.cfi_offset 7, -8
 1201              		.cfi_offset 14, -4
 1202 0002 83B0     		sub	sp, sp, #12
 1203              		.cfi_def_cfa_offset 24
 1204 0004 00AF     		add	r7, sp, #0
 1205              		.cfi_def_cfa_register 7
 195:BME280.c      **** 	
 196:BME280.c      **** 	// Returns humidity in %RH as unsigned 32 bit integer in Q22. 10 format (22 integer and 10 fractio
 197:BME280.c      **** 	// Output value of “47445” represents 47445/1024 = 46. 333 %RH
 198:BME280.c      **** 	int32_t adc_H = ((uint32_t) BME280_readRegister(BME280_HUMIDITY_MSB_REG) << 8) | ((uint32_t) BME28
 1206              		.loc 1 198 0
 1207 0006 FD20     		movs	r0, #253
 1208 0008 FFF7FEFF 		bl	BME280_readRegister
 1209 000c 0300     		movs	r3, r0
 1210 000e 1C02     		lsls	r4, r3, #8
 1211 0010 FE20     		movs	r0, #254
 1212 0012 FFF7FEFF 		bl	BME280_readRegister
 1213 0016 0300     		movs	r3, r0
 1214 0018 2343     		orrs	r3, r4
 1215 001a 7B60     		str	r3, [r7, #4]
 199:BME280.c      **** 	
 200:BME280.c      **** 	int32_t var1;
 201:BME280.c      **** 	var1 = (bme280.t_fine - ((int32_t)76800));
 1216              		.loc 1 201 0
 1217 001c 354B     		ldr	r3, .L27
 1218 001e 1B6B     		ldr	r3, [r3, #48]
 1219 0020 354A     		ldr	r2, .L27+4
 1220 0022 9446     		mov	ip, r2
ARM GAS  C:\Users\d4hhm\AppData\Local\Temp\cchY4aQw.s 			page 26


 1221 0024 6344     		add	r3, r3, ip
 1222 0026 3B60     		str	r3, [r7]
 202:BME280.c      **** 	var1 = (((((adc_H << 14) - (((int32_t)bme280.calibration.dig_H4) << 20) - (((int32_t)bme280.calibr
 1223              		.loc 1 202 0
 1224 0028 7B68     		ldr	r3, [r7, #4]
 1225 002a 9A03     		lsls	r2, r3, #14
 1226 002c 314B     		ldr	r3, .L27
 1227 002e 2821     		movs	r1, #40
 1228 0030 5B5E     		ldrsh	r3, [r3, r1]
 1229 0032 1B05     		lsls	r3, r3, #20
 1230 0034 D21A     		subs	r2, r2, r3
 1231 0036 2F4B     		ldr	r3, .L27
 1232 0038 2A21     		movs	r1, #42
 1233 003a 5B5E     		ldrsh	r3, [r3, r1]
 1234 003c 1900     		movs	r1, r3
 1235 003e 3B68     		ldr	r3, [r7]
 1236 0040 4B43     		muls	r3, r1
 1237 0042 D31A     		subs	r3, r2, r3
 1238 0044 8022     		movs	r2, #128
 1239 0046 D201     		lsls	r2, r2, #7
 1240 0048 9446     		mov	ip, r2
 1241 004a 6344     		add	r3, r3, ip
 203:BME280.c      **** 	((int32_t)16384)) >> 15) * (((((((var1 * ((int32_t)bme280.calibration.dig_H6)) >> 10) * (((var1 * 
 1242              		.loc 1 203 0
 1243 004c DB13     		asrs	r3, r3, #15
 1244 004e 294A     		ldr	r2, .L27
 1245 0050 2C21     		movs	r1, #44
 1246 0052 525C     		ldrb	r2, [r2, r1]
 1247 0054 1100     		movs	r1, r2
 1248 0056 3A68     		ldr	r2, [r7]
 1249 0058 4A43     		muls	r2, r1
 1250 005a 9212     		asrs	r2, r2, #10
 1251 005c 2549     		ldr	r1, .L27
 1252 005e 2620     		movs	r0, #38
 1253 0060 095C     		ldrb	r1, [r1, r0]
 1254 0062 0800     		movs	r0, r1
 1255 0064 3968     		ldr	r1, [r7]
 1256 0066 4143     		muls	r1, r0
 1257 0068 C912     		asrs	r1, r1, #11
 1258 006a 8020     		movs	r0, #128
 1259 006c 0002     		lsls	r0, r0, #8
 1260 006e 8446     		mov	ip, r0
 1261 0070 6144     		add	r1, r1, ip
 1262 0072 4A43     		muls	r2, r1
 1263 0074 9212     		asrs	r2, r2, #10
 1264 0076 8021     		movs	r1, #128
 1265 0078 8903     		lsls	r1, r1, #14
 1266 007a 8C46     		mov	ip, r1
 1267 007c 6244     		add	r2, r2, ip
 204:BME280.c      **** 	((int32_t)bme280.calibration.dig_H2) + 8192) >> 14));
 1268              		.loc 1 204 0
 1269 007e 1D49     		ldr	r1, .L27
 1270 0080 2420     		movs	r0, #36
 1271 0082 095E     		ldrsh	r1, [r1, r0]
 203:BME280.c      **** 	((int32_t)16384)) >> 15) * (((((((var1 * ((int32_t)bme280.calibration.dig_H6)) >> 10) * (((var1 * 
 1272              		.loc 1 203 0
 1273 0084 4A43     		muls	r2, r1
ARM GAS  C:\Users\d4hhm\AppData\Local\Temp\cchY4aQw.s 			page 27


 1274              		.loc 1 204 0
 1275 0086 8021     		movs	r1, #128
 1276 0088 8901     		lsls	r1, r1, #6
 1277 008a 8C46     		mov	ip, r1
 1278 008c 6244     		add	r2, r2, ip
 1279 008e 9213     		asrs	r2, r2, #14
 202:BME280.c      **** 	var1 = (((((adc_H << 14) - (((int32_t)bme280.calibration.dig_H4) << 20) - (((int32_t)bme280.calibr
 1280              		.loc 1 202 0
 1281 0090 5343     		muls	r3, r2
 1282 0092 3B60     		str	r3, [r7]
 205:BME280.c      **** 	var1 = (var1 - (((((var1 >> 15) * (var1 >> 15)) >> 7) * ((int32_t)bme280.calibration.dig_H1)) >> 4
 1283              		.loc 1 205 0
 1284 0094 3B68     		ldr	r3, [r7]
 1285 0096 DB13     		asrs	r3, r3, #15
 1286 0098 3A68     		ldr	r2, [r7]
 1287 009a D213     		asrs	r2, r2, #15
 1288 009c 5343     		muls	r3, r2
 1289 009e DB11     		asrs	r3, r3, #7
 1290 00a0 144A     		ldr	r2, .L27
 1291 00a2 2221     		movs	r1, #34
 1292 00a4 525C     		ldrb	r2, [r2, r1]
 1293 00a6 5343     		muls	r3, r2
 1294 00a8 1B11     		asrs	r3, r3, #4
 1295 00aa 3A68     		ldr	r2, [r7]
 1296 00ac D31A     		subs	r3, r2, r3
 1297 00ae 3B60     		str	r3, [r7]
 206:BME280.c      **** 	var1 = (var1 < 0 ? 0 : var1);
 1298              		.loc 1 206 0
 1299 00b0 3B68     		ldr	r3, [r7]
 1300 00b2 002B     		cmp	r3, #0
 1301 00b4 00DA     		bge	.L24
 1302 00b6 0023     		movs	r3, #0
 1303              	.L24:
 1304 00b8 3B60     		str	r3, [r7]
 207:BME280.c      **** 	var1 = (var1 > 419430400 ? 419430400 : var1);
 1305              		.loc 1 207 0
 1306 00ba 3B68     		ldr	r3, [r7]
 1307 00bc C822     		movs	r2, #200
 1308 00be 5205     		lsls	r2, r2, #21
 1309 00c0 9342     		cmp	r3, r2
 1310 00c2 01DD     		ble	.L25
 1311 00c4 C823     		movs	r3, #200
 1312 00c6 5B05     		lsls	r3, r3, #21
 1313              	.L25:
 1314 00c8 3B60     		str	r3, [r7]
 208:BME280.c      **** 
 209:BME280.c      ****     bme280.RH = (float) (var1>>12) / 1024.0;
 1315              		.loc 1 209 0
 1316 00ca 3B68     		ldr	r3, [r7]
 1317 00cc 1B13     		asrs	r3, r3, #12
 1318 00ce 1800     		movs	r0, r3
 1319 00d0 FFF7FEFF 		bl	__aeabi_i2f
 1320 00d4 031C     		adds	r3, r0, #0
 1321 00d6 8921     		movs	r1, #137
 1322 00d8 C905     		lsls	r1, r1, #23
 1323 00da 181C     		adds	r0, r3, #0
 1324 00dc FFF7FEFF 		bl	__aeabi_fdiv
ARM GAS  C:\Users\d4hhm\AppData\Local\Temp\cchY4aQw.s 			page 28


 1325 00e0 031C     		adds	r3, r0, #0
 1326 00e2 1A1C     		adds	r2, r3, #0
 1327 00e4 034B     		ldr	r3, .L27
 1328 00e6 DA63     		str	r2, [r3, #60]
 210:BME280.c      **** 	return bme280.RH;
 1329              		.loc 1 210 0
 1330 00e8 024B     		ldr	r3, .L27
 1331 00ea DB6B     		ldr	r3, [r3, #60]
 211:BME280.c      **** 
 212:BME280.c      **** }
 1332              		.loc 1 212 0
 1333 00ec 181C     		adds	r0, r3, #0
 1334 00ee BD46     		mov	sp, r7
 1335 00f0 03B0     		add	sp, sp, #12
 1336              		@ sp needed
 1337 00f2 90BD     		pop	{r4, r7, pc}
 1338              	.L28:
 1339              		.align	2
 1340              	.L27:
 1341 00f4 00000000 		.word	bme280
 1342 00f8 00D4FEFF 		.word	-76800
 1343              		.cfi_endproc
 1344              	.LFE42:
 1345              		.size	BME280_readFloatHumidity, .-BME280_readFloatHumidity
 1346              		.section	.text.BME280_readTempC,"ax",%progbits
 1347              		.align	2
 1348              		.global	BME280_readTempC
 1349              		.code	16
 1350              		.thumb_func
 1351              		.type	BME280_readTempC, %function
 1352              	BME280_readTempC:
 1353              	.LFB43:
 213:BME280.c      **** 
 214:BME280.c      **** 
 215:BME280.c      **** 
 216:BME280.c      **** //****************************************************************************//
 217:BME280.c      **** //
 218:BME280.c      **** //  Temperature Section
 219:BME280.c      **** //
 220:BME280.c      **** //****************************************************************************//
 221:BME280.c      **** 
 222:BME280.c      **** float BME280_readTempC( void )
 223:BME280.c      **** {
 1354              		.loc 1 223 0
 1355              		.cfi_startproc
 1356              		@ args = 0, pretend = 0, frame = 32
 1357              		@ frame_needed = 1, uses_anonymous_args = 0
 1358 0000 90B5     		push	{r4, r7, lr}
 1359              		.cfi_def_cfa_offset 12
 1360              		.cfi_offset 4, -12
 1361              		.cfi_offset 7, -8
 1362              		.cfi_offset 14, -4
 1363 0002 89B0     		sub	sp, sp, #36
 1364              		.cfi_def_cfa_offset 48
 1365 0004 00AF     		add	r7, sp, #0
 1366              		.cfi_def_cfa_register 7
 224:BME280.c      **** 	// Returns temperature in DegC, resolution is 0.01 DegC. Output value of “5123” equals 51.23 D
ARM GAS  C:\Users\d4hhm\AppData\Local\Temp\cchY4aQw.s 			page 29


 225:BME280.c      **** 	// t_fine carries fine temperature as global value
 226:BME280.c      **** 
 227:BME280.c      **** 	//get the reading (adc_T);
 228:BME280.c      **** 	int32_t adc_T = ((uint32_t)BME280_readRegister(BME280_TEMPERATURE_MSB_REG) << 12) | ((uint32_t)BME
 1367              		.loc 1 228 0
 1368 0006 FA20     		movs	r0, #250
 1369 0008 FFF7FEFF 		bl	BME280_readRegister
 1370 000c 0300     		movs	r3, r0
 1371 000e 1C03     		lsls	r4, r3, #12
 1372 0010 FB20     		movs	r0, #251
 1373 0012 FFF7FEFF 		bl	BME280_readRegister
 1374 0016 0300     		movs	r3, r0
 1375 0018 1B01     		lsls	r3, r3, #4
 1376 001a 1C43     		orrs	r4, r3
 1377 001c FC20     		movs	r0, #252
 1378 001e FFF7FEFF 		bl	BME280_readRegister
 1379 0022 0300     		movs	r3, r0
 1380 0024 1B09     		lsrs	r3, r3, #4
 1381 0026 DBB2     		uxtb	r3, r3
 1382 0028 1A00     		movs	r2, r3
 1383 002a 0F23     		movs	r3, #15
 1384 002c 1340     		ands	r3, r2
 1385 002e 2343     		orrs	r3, r4
 1386 0030 FB61     		str	r3, [r7, #28]
 229:BME280.c      **** 
 230:BME280.c      **** 	//By datasheet, calibrate
 231:BME280.c      **** 	int64_t var1, var2;
 232:BME280.c      **** 
 233:BME280.c      **** 	var1 = ((((adc_T>>3) - ((int32_t)bme280.calibration.dig_T1<<1))) * ((int32_t)bme280.calibration.di
 1387              		.loc 1 233 0
 1388 0032 FB69     		ldr	r3, [r7, #28]
 1389 0034 DA10     		asrs	r2, r3, #3
 1390 0036 204B     		ldr	r3, .L31
 1391 0038 5B89     		ldrh	r3, [r3, #10]
 1392 003a 5B00     		lsls	r3, r3, #1
 1393 003c D31A     		subs	r3, r2, r3
 1394 003e 1E4A     		ldr	r2, .L31
 1395 0040 0C21     		movs	r1, #12
 1396 0042 525E     		ldrsh	r2, [r2, r1]
 1397 0044 5343     		muls	r3, r2
 1398 0046 DB12     		asrs	r3, r3, #11
 1399 0048 3B61     		str	r3, [r7, #16]
 1400 004a DB17     		asrs	r3, r3, #31
 1401 004c 7B61     		str	r3, [r7, #20]
 234:BME280.c      **** 	var2 = (((((adc_T>>4) - ((int32_t)bme280.calibration.dig_T1)) * ((adc_T>>4) - ((int32_t)bme280.cal
 1402              		.loc 1 234 0
 1403 004e FB69     		ldr	r3, [r7, #28]
 1404 0050 1B11     		asrs	r3, r3, #4
 1405 0052 194A     		ldr	r2, .L31
 1406 0054 5289     		ldrh	r2, [r2, #10]
 1407 0056 9B1A     		subs	r3, r3, r2
 1408 0058 FA69     		ldr	r2, [r7, #28]
 1409 005a 1211     		asrs	r2, r2, #4
 1410 005c 1649     		ldr	r1, .L31
 1411 005e 4989     		ldrh	r1, [r1, #10]
 1412 0060 521A     		subs	r2, r2, r1
 1413 0062 5343     		muls	r3, r2
ARM GAS  C:\Users\d4hhm\AppData\Local\Temp\cchY4aQw.s 			page 30


 1414 0064 1B13     		asrs	r3, r3, #12
 1415 0066 144A     		ldr	r2, .L31
 1416 0068 0E21     		movs	r1, #14
 1417 006a 525E     		ldrsh	r2, [r2, r1]
 1418 006c 5343     		muls	r3, r2
 1419 006e 9B13     		asrs	r3, r3, #14
 1420 0070 BB60     		str	r3, [r7, #8]
 1421 0072 DB17     		asrs	r3, r3, #31
 1422 0074 FB60     		str	r3, [r7, #12]
 235:BME280.c      **** 	
 236:BME280.c      ****     bme280.t_fine = var1 + var2;
 1423              		.loc 1 236 0
 1424 0076 3A69     		ldr	r2, [r7, #16]
 1425 0078 BB68     		ldr	r3, [r7, #8]
 1426 007a D318     		adds	r3, r2, r3
 1427 007c 1A00     		movs	r2, r3
 1428 007e 0E4B     		ldr	r3, .L31
 1429 0080 1A63     		str	r2, [r3, #48]
 237:BME280.c      **** 	float output = (bme280.t_fine * 5 + 128) >> 8;
 1430              		.loc 1 237 0
 1431 0082 0D4B     		ldr	r3, .L31
 1432 0084 1A6B     		ldr	r2, [r3, #48]
 1433 0086 1300     		movs	r3, r2
 1434 0088 9B00     		lsls	r3, r3, #2
 1435 008a 9B18     		adds	r3, r3, r2
 1436 008c 8033     		adds	r3, r3, #128
 1437 008e 1B12     		asrs	r3, r3, #8
 1438 0090 1800     		movs	r0, r3
 1439 0092 FFF7FEFF 		bl	__aeabi_i2f
 1440 0096 031C     		adds	r3, r0, #0
 1441 0098 7B60     		str	r3, [r7, #4]
 238:BME280.c      **** 
 239:BME280.c      **** 	output = output / 100;
 1442              		.loc 1 239 0
 1443 009a 0849     		ldr	r1, .L31+4
 1444 009c 7868     		ldr	r0, [r7, #4]
 1445 009e FFF7FEFF 		bl	__aeabi_fdiv
 1446 00a2 031C     		adds	r3, r0, #0
 1447 00a4 7B60     		str	r3, [r7, #4]
 240:BME280.c      **** 	
 241:BME280.c      ****     bme280.temp_C = output;
 1448              		.loc 1 241 0
 1449 00a6 044B     		ldr	r3, .L31
 1450 00a8 7A68     		ldr	r2, [r7, #4]
 1451 00aa 5A63     		str	r2, [r3, #52]
 242:BME280.c      **** 	return bme280.temp_C;
 1452              		.loc 1 242 0
 1453 00ac 024B     		ldr	r3, .L31
 1454 00ae 5B6B     		ldr	r3, [r3, #52]
 243:BME280.c      **** }
 1455              		.loc 1 243 0
 1456 00b0 181C     		adds	r0, r3, #0
 1457 00b2 BD46     		mov	sp, r7
 1458 00b4 09B0     		add	sp, sp, #36
 1459              		@ sp needed
 1460 00b6 90BD     		pop	{r4, r7, pc}
 1461              	.L32:
ARM GAS  C:\Users\d4hhm\AppData\Local\Temp\cchY4aQw.s 			page 31


 1462              		.align	2
 1463              	.L31:
 1464 00b8 00000000 		.word	bme280
 1465 00bc 0000C842 		.word	1120403456
 1466              		.cfi_endproc
 1467              	.LFE43:
 1468              		.size	BME280_readTempC, .-BME280_readTempC
 1469              		.global	__aeabi_fmul
 1470              		.global	__aeabi_fadd
 1471              		.section	.text.BME280_readTempF,"ax",%progbits
 1472              		.align	2
 1473              		.global	BME280_readTempF
 1474              		.code	16
 1475              		.thumb_func
 1476              		.type	BME280_readTempF, %function
 1477              	BME280_readTempF:
 1478              	.LFB44:
 244:BME280.c      **** 
 245:BME280.c      **** float BME280_readTempF( void )
 246:BME280.c      **** {
 1479              		.loc 1 246 0
 1480              		.cfi_startproc
 1481              		@ args = 0, pretend = 0, frame = 8
 1482              		@ frame_needed = 1, uses_anonymous_args = 0
 1483 0000 80B5     		push	{r7, lr}
 1484              		.cfi_def_cfa_offset 8
 1485              		.cfi_offset 7, -8
 1486              		.cfi_offset 14, -4
 1487 0002 82B0     		sub	sp, sp, #8
 1488              		.cfi_def_cfa_offset 16
 1489 0004 00AF     		add	r7, sp, #0
 1490              		.cfi_def_cfa_register 7
 247:BME280.c      **** 	float output = BME280_readTempC();
 1491              		.loc 1 247 0
 1492 0006 FFF7FEFF 		bl	BME280_readTempC
 1493 000a 031C     		adds	r3, r0, #0
 1494 000c 7B60     		str	r3, [r7, #4]
 248:BME280.c      **** 	output = (output * 9) / 5 + 32;
 1495              		.loc 1 248 0
 1496 000e 0B49     		ldr	r1, .L35
 1497 0010 7868     		ldr	r0, [r7, #4]
 1498 0012 FFF7FEFF 		bl	__aeabi_fmul
 1499 0016 031C     		adds	r3, r0, #0
 1500 0018 0949     		ldr	r1, .L35+4
 1501 001a 181C     		adds	r0, r3, #0
 1502 001c FFF7FEFF 		bl	__aeabi_fdiv
 1503 0020 031C     		adds	r3, r0, #0
 1504 0022 8421     		movs	r1, #132
 1505 0024 C905     		lsls	r1, r1, #23
 1506 0026 181C     		adds	r0, r3, #0
 1507 0028 FFF7FEFF 		bl	__aeabi_fadd
 1508 002c 031C     		adds	r3, r0, #0
 1509 002e 7B60     		str	r3, [r7, #4]
 249:BME280.c      **** 
 250:BME280.c      **** 	return output;
 1510              		.loc 1 250 0
 1511 0030 7B68     		ldr	r3, [r7, #4]
ARM GAS  C:\Users\d4hhm\AppData\Local\Temp\cchY4aQw.s 			page 32


 251:BME280.c      **** }
 1512              		.loc 1 251 0
 1513 0032 181C     		adds	r0, r3, #0
 1514 0034 BD46     		mov	sp, r7
 1515 0036 02B0     		add	sp, sp, #8
 1516              		@ sp needed
 1517 0038 80BD     		pop	{r7, pc}
 1518              	.L36:
 1519 003a C046     		.align	2
 1520              	.L35:
 1521 003c 00001041 		.word	1091567616
 1522 0040 0000A040 		.word	1084227584
 1523              		.cfi_endproc
 1524              	.LFE44:
 1525              		.size	BME280_readTempF, .-BME280_readTempF
 1526              		.section	.text.BME280_readRegister,"ax",%progbits
 1527              		.align	2
 1528              		.global	BME280_readRegister
 1529              		.code	16
 1530              		.thumb_func
 1531              		.type	BME280_readRegister, %function
 1532              	BME280_readRegister:
 1533              	.LFB45:
 252:BME280.c      **** 
 253:BME280.c      **** //****************************************************************************//
 254:BME280.c      **** //
 255:BME280.c      **** //  Utility
 256:BME280.c      **** //
 257:BME280.c      **** //****************************************************************************//
 258:BME280.c      **** uint8_t BME280_readRegister(uint8_t offset)
 259:BME280.c      **** {
 1534              		.loc 1 259 0
 1535              		.cfi_startproc
 1536              		@ args = 0, pretend = 0, frame = 16
 1537              		@ frame_needed = 1, uses_anonymous_args = 0
 1538 0000 80B5     		push	{r7, lr}
 1539              		.cfi_def_cfa_offset 8
 1540              		.cfi_offset 7, -8
 1541              		.cfi_offset 14, -4
 1542 0002 84B0     		sub	sp, sp, #16
 1543              		.cfi_def_cfa_offset 24
 1544 0004 00AF     		add	r7, sp, #0
 1545              		.cfi_def_cfa_register 7
 1546 0006 0200     		movs	r2, r0
 1547 0008 FB1D     		adds	r3, r7, #7
 1548 000a 1A70     		strb	r2, [r3]
 260:BME280.c      **** 	//Return value
 261:BME280.c      **** 	uint8_t result;
 262:BME280.c      **** 	uint8_t numBytes = 1;
 1549              		.loc 1 262 0
 1550 000c 0D23     		movs	r3, #13
 1551 000e FB18     		adds	r3, r7, r3
 1552 0010 0122     		movs	r2, #1
 1553 0012 1A70     		strb	r2, [r3]
 263:BME280.c      ****     
 264:BME280.c      ****     uint16  iter;
 265:BME280.c      ****     
ARM GAS  C:\Users\d4hhm\AppData\Local\Temp\cchY4aQw.s 			page 33


 266:BME280.c      **** 	switch (bme280.settings.commInterface) {
 1554              		.loc 1 266 0
 1555 0014 2D4B     		ldr	r3, .L55
 1556 0016 1B78     		ldrb	r3, [r3]
 1557 0018 002B     		cmp	r3, #0
 1558 001a 02D0     		beq	.L39
 1559 001c 012B     		cmp	r3, #1
 1560 001e 4CD0     		beq	.L52
 267:BME280.c      **** 
 268:BME280.c      ****     	case BME280_I2C_MODE:
 269:BME280.c      ****             ///I2C_Wakeup();
 270:BME280.c      ****             SCB_1_I2CMasterClearStatus(); /* Clear any previous status */
 271:BME280.c      ****             
 272:BME280.c      ****             // Write to register
 273:BME280.c      ****             SCB_1_I2CMasterWriteBuf(bme280.settings.I2CAddress, (uint8 *) &offset, 1, SCB_1_I2C_MOD
 274:BME280.c      ****             for(iter = 0; iter < BME280_MAX_ITER; iter++)
 275:BME280.c      ****             {
 276:BME280.c      ****                 if(0u != (SCB_1_I2CMasterStatus() & SCB_1_I2C_MSTAT_WR_CMPLT))
 277:BME280.c      ****                 {
 278:BME280.c      ****                     /* Transfer complete. Check Master status to make sure that transfer
 279:BME280.c      ****                     completed without errors. */
 280:BME280.c      ****                     break;
 281:BME280.c      ****                 }
 282:BME280.c      ****             }        
 283:BME280.c      ****             
 284:BME280.c      ****             // Read Buffer        
 285:BME280.c      ****             SCB_1_I2CMasterReadBuf(bme280.settings.I2CAddress, &result, numBytes, SCB_1_I2C_MODE_CO
 286:BME280.c      ****             
 287:BME280.c      ****             for(iter = 0; iter < BME280_MAX_ITER; iter++){
 288:BME280.c      ****                 if(0u != (SCB_1_I2CMasterStatus() & SCB_1_I2C_MSTAT_RD_CMPLT))
 289:BME280.c      ****                 {
 290:BME280.c      ****                     /* Transfer complete. Check Master status to make sure that transfer
 291:BME280.c      ****                     completed without errors. */
 292:BME280.c      ****                     break;
 293:BME280.c      ****                 }
 294:BME280.c      ****                 
 295:BME280.c      ****             }
 296:BME280.c      ****             //I2C_Sleep();
 297:BME280.c      **** 
 298:BME280.c      ****     		break;
 299:BME280.c      **** 
 300:BME280.c      ****     	case BME280_SPI_MODE:
 301:BME280.c      ****     		// TODO
 302:BME280.c      ****     		break;
 303:BME280.c      **** 
 304:BME280.c      ****     	default:
 305:BME280.c      ****     		break;
 1561              		.loc 1 305 0
 1562 0020 4CE0     		b	.L49
 1563              	.L39:
 270:BME280.c      ****             
 1564              		.loc 1 270 0
 1565 0022 FFF7FEFF 		bl	SCB_1_I2CMasterClearStatus
 273:BME280.c      ****             for(iter = 0; iter < BME280_MAX_ITER; iter++)
 1566              		.loc 1 273 0
 1567 0026 294B     		ldr	r3, .L55
 1568 0028 5B78     		ldrb	r3, [r3, #1]
ARM GAS  C:\Users\d4hhm\AppData\Local\Temp\cchY4aQw.s 			page 34


 1569 002a 1800     		movs	r0, r3
 1570 002c F91D     		adds	r1, r7, #7
 1571 002e 0023     		movs	r3, #0
 1572 0030 0122     		movs	r2, #1
 1573 0032 FFF7FEFF 		bl	SCB_1_I2CMasterWriteBuf
 274:BME280.c      ****             {
 1574              		.loc 1 274 0
 1575 0036 0E23     		movs	r3, #14
 1576 0038 FB18     		adds	r3, r7, r3
 1577 003a 0022     		movs	r2, #0
 1578 003c 1A80     		strh	r2, [r3]
 1579 003e 0CE0     		b	.L41
 1580              	.L44:
 276:BME280.c      ****                 {
 1581              		.loc 1 276 0
 1582 0040 FFF7FEFF 		bl	SCB_1_I2CMasterStatus
 1583 0044 0200     		movs	r2, r0
 1584 0046 0223     		movs	r3, #2
 1585 0048 1340     		ands	r3, r2
 1586 004a 0ED1     		bne	.L53
 274:BME280.c      ****             {
 1587              		.loc 1 274 0 discriminator 2
 1588 004c 0E23     		movs	r3, #14
 1589 004e FB18     		adds	r3, r7, r3
 1590 0050 1A88     		ldrh	r2, [r3]
 1591 0052 0E23     		movs	r3, #14
 1592 0054 FB18     		adds	r3, r7, r3
 1593 0056 0132     		adds	r2, r2, #1
 1594 0058 1A80     		strh	r2, [r3]
 1595              	.L41:
 274:BME280.c      ****             {
 1596              		.loc 1 274 0 is_stmt 0 discriminator 1
 1597 005a 0E23     		movs	r3, #14
 1598 005c FB18     		adds	r3, r7, r3
 1599 005e 1A88     		ldrh	r2, [r3]
 1600 0060 2C23     		movs	r3, #44
 1601 0062 FF33     		adds	r3, r3, #255
 1602 0064 9A42     		cmp	r2, r3
 1603 0066 EBD9     		bls	.L44
 1604 0068 00E0     		b	.L43
 1605              	.L53:
 280:BME280.c      ****                 }
 1606              		.loc 1 280 0 is_stmt 1
 1607 006a C046     		nop
 1608              	.L43:
 285:BME280.c      ****             
 1609              		.loc 1 285 0
 1610 006c 174B     		ldr	r3, .L55
 1611 006e 5B78     		ldrb	r3, [r3, #1]
 1612 0070 1800     		movs	r0, r3
 1613 0072 0D23     		movs	r3, #13
 1614 0074 FB18     		adds	r3, r7, r3
 1615 0076 1A78     		ldrb	r2, [r3]
 1616 0078 0C23     		movs	r3, #12
 1617 007a F918     		adds	r1, r7, r3
 1618 007c 0023     		movs	r3, #0
 1619 007e FFF7FEFF 		bl	SCB_1_I2CMasterReadBuf
ARM GAS  C:\Users\d4hhm\AppData\Local\Temp\cchY4aQw.s 			page 35


 287:BME280.c      ****                 if(0u != (SCB_1_I2CMasterStatus() & SCB_1_I2C_MSTAT_RD_CMPLT))
 1620              		.loc 1 287 0
 1621 0082 0E23     		movs	r3, #14
 1622 0084 FB18     		adds	r3, r7, r3
 1623 0086 0022     		movs	r2, #0
 1624 0088 1A80     		strh	r2, [r3]
 1625 008a 0CE0     		b	.L45
 1626              	.L48:
 288:BME280.c      ****                 {
 1627              		.loc 1 288 0
 1628 008c FFF7FEFF 		bl	SCB_1_I2CMasterStatus
 1629 0090 0200     		movs	r2, r0
 1630 0092 0123     		movs	r3, #1
 1631 0094 1340     		ands	r3, r2
 1632 0096 0ED1     		bne	.L54
 287:BME280.c      ****                 if(0u != (SCB_1_I2CMasterStatus() & SCB_1_I2C_MSTAT_RD_CMPLT))
 1633              		.loc 1 287 0 discriminator 2
 1634 0098 0E23     		movs	r3, #14
 1635 009a FB18     		adds	r3, r7, r3
 1636 009c 1A88     		ldrh	r2, [r3]
 1637 009e 0E23     		movs	r3, #14
 1638 00a0 FB18     		adds	r3, r7, r3
 1639 00a2 0132     		adds	r2, r2, #1
 1640 00a4 1A80     		strh	r2, [r3]
 1641              	.L45:
 287:BME280.c      ****                 if(0u != (SCB_1_I2CMasterStatus() & SCB_1_I2C_MSTAT_RD_CMPLT))
 1642              		.loc 1 287 0 is_stmt 0 discriminator 1
 1643 00a6 0E23     		movs	r3, #14
 1644 00a8 FB18     		adds	r3, r7, r3
 1645 00aa 1A88     		ldrh	r2, [r3]
 1646 00ac 2C23     		movs	r3, #44
 1647 00ae FF33     		adds	r3, r3, #255
 1648 00b0 9A42     		cmp	r2, r3
 1649 00b2 EBD9     		bls	.L48
 298:BME280.c      **** 
 1650              		.loc 1 298 0 is_stmt 1
 1651 00b4 02E0     		b	.L49
 1652              	.L54:
 292:BME280.c      ****                 }
 1653              		.loc 1 292 0
 1654 00b6 C046     		nop
 298:BME280.c      **** 
 1655              		.loc 1 298 0
 1656 00b8 00E0     		b	.L49
 1657              	.L52:
 302:BME280.c      **** 
 1658              		.loc 1 302 0
 1659 00ba C046     		nop
 1660              	.L49:
 306:BME280.c      **** 	}
 307:BME280.c      **** 	return result;
 1661              		.loc 1 307 0
 1662 00bc 0C23     		movs	r3, #12
 1663 00be FB18     		adds	r3, r7, r3
 1664 00c0 1B78     		ldrb	r3, [r3]
 308:BME280.c      **** }
 1665              		.loc 1 308 0
ARM GAS  C:\Users\d4hhm\AppData\Local\Temp\cchY4aQw.s 			page 36


 1666 00c2 1800     		movs	r0, r3
 1667 00c4 BD46     		mov	sp, r7
 1668 00c6 04B0     		add	sp, sp, #16
 1669              		@ sp needed
 1670 00c8 80BD     		pop	{r7, pc}
 1671              	.L56:
 1672 00ca C046     		.align	2
 1673              	.L55:
 1674 00cc 00000000 		.word	bme280
 1675              		.cfi_endproc
 1676              	.LFE45:
 1677              		.size	BME280_readRegister, .-BME280_readRegister
 1678              		.section	.text.BME280_writeRegister,"ax",%progbits
 1679              		.align	2
 1680              		.global	BME280_writeRegister
 1681              		.code	16
 1682              		.thumb_func
 1683              		.type	BME280_writeRegister, %function
 1684              	BME280_writeRegister:
 1685              	.LFB46:
 309:BME280.c      **** 
 310:BME280.c      **** 
 311:BME280.c      **** void BME280_writeRegister(uint8_t offset, uint8_t data)
 312:BME280.c      **** {
 1686              		.loc 1 312 0
 1687              		.cfi_startproc
 1688              		@ args = 0, pretend = 0, frame = 16
 1689              		@ frame_needed = 1, uses_anonymous_args = 0
 1690 0000 80B5     		push	{r7, lr}
 1691              		.cfi_def_cfa_offset 8
 1692              		.cfi_offset 7, -8
 1693              		.cfi_offset 14, -4
 1694 0002 84B0     		sub	sp, sp, #16
 1695              		.cfi_def_cfa_offset 24
 1696 0004 00AF     		add	r7, sp, #0
 1697              		.cfi_def_cfa_register 7
 1698 0006 0200     		movs	r2, r0
 1699 0008 FB1D     		adds	r3, r7, #7
 1700 000a 1A70     		strb	r2, [r3]
 1701 000c BB1D     		adds	r3, r7, #6
 1702 000e 0A1C     		adds	r2, r1, #0
 1703 0010 1A70     		strb	r2, [r3]
 313:BME280.c      ****     uint8 packet[] = {offset, data};
 1704              		.loc 1 313 0
 1705 0012 0C23     		movs	r3, #12
 1706 0014 FB18     		adds	r3, r7, r3
 1707 0016 FA1D     		adds	r2, r7, #7
 1708 0018 1278     		ldrb	r2, [r2]
 1709 001a 1A70     		strb	r2, [r3]
 1710 001c 0C23     		movs	r3, #12
 1711 001e FB18     		adds	r3, r7, r3
 1712 0020 BA1D     		adds	r2, r7, #6
 1713 0022 1278     		ldrb	r2, [r2]
 1714 0024 5A70     		strb	r2, [r3, #1]
 314:BME280.c      ****     uint16 iter;
 315:BME280.c      ****     
 316:BME280.c      **** 	switch (bme280.settings.commInterface)
ARM GAS  C:\Users\d4hhm\AppData\Local\Temp\cchY4aQw.s 			page 37


 1715              		.loc 1 316 0
 1716 0026 194B     		ldr	r3, .L69
 1717 0028 1B78     		ldrb	r3, [r3]
 1718 002a 002B     		cmp	r3, #0
 1719 002c 02D0     		beq	.L59
 1720 002e 012B     		cmp	r3, #1
 1721 0030 27D0     		beq	.L67
 317:BME280.c      **** 	{
 318:BME280.c      ****     	case BME280_I2C_MODE:
 319:BME280.c      ****     		//Write the byte
 320:BME280.c      ****             //I2C_Wakeup();
 321:BME280.c      ****             SCB_1_I2CMasterClearStatus(); /* Clear any previous status */
 322:BME280.c      ****             
 323:BME280.c      ****             // Write to register
 324:BME280.c      ****             SCB_1_I2CMasterWriteBuf(bme280.settings.I2CAddress, (uint8 *) &packet, 2, SCB_1_I2C_MOD
 325:BME280.c      ****             for(iter = 0; iter < BME280_MAX_ITER; iter++)
 326:BME280.c      ****             {
 327:BME280.c      ****                 if(0u != (SCB_1_I2CMasterStatus() & SCB_1_I2C_MSTAT_WR_CMPLT))
 328:BME280.c      ****                 {
 329:BME280.c      ****                     // Transfer complete. Check Master status to make sure that transfer
 330:BME280.c      ****                     //completed without errors. 
 331:BME280.c      ****                     break;               
 332:BME280.c      ****                 }
 333:BME280.c      ****             }          
 334:BME280.c      ****             
 335:BME280.c      ****             //I2C_Sleep();        
 336:BME280.c      **** 
 337:BME280.c      ****     		break;
 338:BME280.c      **** 
 339:BME280.c      ****     	case BME280_SPI_MODE:
 340:BME280.c      ****     		//TODO
 341:BME280.c      ****     		break;
 342:BME280.c      **** 
 343:BME280.c      ****     	default:
 344:BME280.c      ****     		break;
 1722              		.loc 1 344 0
 1723 0032 27E0     		b	.L65
 1724              	.L59:
 321:BME280.c      ****             
 1725              		.loc 1 321 0
 1726 0034 FFF7FEFF 		bl	SCB_1_I2CMasterClearStatus
 324:BME280.c      ****             for(iter = 0; iter < BME280_MAX_ITER; iter++)
 1727              		.loc 1 324 0
 1728 0038 144B     		ldr	r3, .L69
 1729 003a 5B78     		ldrb	r3, [r3, #1]
 1730 003c 1800     		movs	r0, r3
 1731 003e 0C23     		movs	r3, #12
 1732 0040 F918     		adds	r1, r7, r3
 1733 0042 0023     		movs	r3, #0
 1734 0044 0222     		movs	r2, #2
 1735 0046 FFF7FEFF 		bl	SCB_1_I2CMasterWriteBuf
 325:BME280.c      ****             {
 1736              		.loc 1 325 0
 1737 004a 0E23     		movs	r3, #14
 1738 004c FB18     		adds	r3, r7, r3
 1739 004e 0022     		movs	r2, #0
 1740 0050 1A80     		strh	r2, [r3]
ARM GAS  C:\Users\d4hhm\AppData\Local\Temp\cchY4aQw.s 			page 38


 1741 0052 0CE0     		b	.L61
 1742              	.L64:
 327:BME280.c      ****                 {
 1743              		.loc 1 327 0
 1744 0054 FFF7FEFF 		bl	SCB_1_I2CMasterStatus
 1745 0058 0200     		movs	r2, r0
 1746 005a 0223     		movs	r3, #2
 1747 005c 1340     		ands	r3, r2
 1748 005e 0ED1     		bne	.L68
 325:BME280.c      ****             {
 1749              		.loc 1 325 0 discriminator 2
 1750 0060 0E23     		movs	r3, #14
 1751 0062 FB18     		adds	r3, r7, r3
 1752 0064 1A88     		ldrh	r2, [r3]
 1753 0066 0E23     		movs	r3, #14
 1754 0068 FB18     		adds	r3, r7, r3
 1755 006a 0132     		adds	r2, r2, #1
 1756 006c 1A80     		strh	r2, [r3]
 1757              	.L61:
 325:BME280.c      ****             {
 1758              		.loc 1 325 0 is_stmt 0 discriminator 1
 1759 006e 0E23     		movs	r3, #14
 1760 0070 FB18     		adds	r3, r7, r3
 1761 0072 1A88     		ldrh	r2, [r3]
 1762 0074 2C23     		movs	r3, #44
 1763 0076 FF33     		adds	r3, r3, #255
 1764 0078 9A42     		cmp	r2, r3
 1765 007a EBD9     		bls	.L64
 337:BME280.c      **** 
 1766              		.loc 1 337 0 is_stmt 1
 1767 007c 02E0     		b	.L65
 1768              	.L68:
 331:BME280.c      ****                 }
 1769              		.loc 1 331 0
 1770 007e C046     		nop
 337:BME280.c      **** 
 1771              		.loc 1 337 0
 1772 0080 00E0     		b	.L65
 1773              	.L67:
 341:BME280.c      **** 
 1774              		.loc 1 341 0
 1775 0082 C046     		nop
 1776              	.L65:
 345:BME280.c      **** 	}
 346:BME280.c      **** }
 1777              		.loc 1 346 0 discriminator 2
 1778 0084 C046     		nop
 1779 0086 BD46     		mov	sp, r7
 1780 0088 04B0     		add	sp, sp, #16
 1781              		@ sp needed
 1782 008a 80BD     		pop	{r7, pc}
 1783              	.L70:
 1784              		.align	2
 1785              	.L69:
 1786 008c 00000000 		.word	bme280
 1787              		.cfi_endproc
 1788              	.LFE46:
ARM GAS  C:\Users\d4hhm\AppData\Local\Temp\cchY4aQw.s 			page 39


 1789              		.size	BME280_writeRegister, .-BME280_writeRegister
 1790              		.text
 1791              	.Letext0:
 1792              		.file 2 "c:\\program files (x86)\\cypress\\psoc creator\\4.2\\psoc creator\\import\\gnu\\arm\\5.4.
 1793              		.file 3 "c:\\program files (x86)\\cypress\\psoc creator\\4.2\\psoc creator\\import\\gnu\\arm\\5.4.
 1794              		.file 4 "Generated_Source\\PSoC4/cytypes.h"
 1795              		.file 5 "BME280.h"
 1796              		.file 6 "Generated_Source\\PSoC4/BLE_1_Stack.h"
 1797              		.section	.debug_info,"",%progbits
 1798              	.Ldebug_info0:
 1799 0000 32070000 		.4byte	0x732
 1800 0004 0400     		.2byte	0x4
 1801 0006 00000000 		.4byte	.Ldebug_abbrev0
 1802 000a 04       		.byte	0x4
 1803 000b 01       		.uleb128 0x1
 1804 000c 8D060000 		.4byte	.LASF163
 1805 0010 0C       		.byte	0xc
 1806 0011 60030000 		.4byte	.LASF164
 1807 0015 21040000 		.4byte	.LASF165
 1808 0019 00000000 		.4byte	.Ldebug_ranges0+0
 1809 001d 00000000 		.4byte	0
 1810 0021 00000000 		.4byte	.Ldebug_line0
 1811 0025 02       		.uleb128 0x2
 1812 0026 01       		.byte	0x1
 1813 0027 06       		.byte	0x6
 1814 0028 6F020000 		.4byte	.LASF0
 1815 002c 03       		.uleb128 0x3
 1816 002d 34010000 		.4byte	.LASF2
 1817 0031 02       		.byte	0x2
 1818 0032 1D       		.byte	0x1d
 1819 0033 37000000 		.4byte	0x37
 1820 0037 02       		.uleb128 0x2
 1821 0038 01       		.byte	0x1
 1822 0039 08       		.byte	0x8
 1823 003a 6A090000 		.4byte	.LASF1
 1824 003e 03       		.uleb128 0x3
 1825 003f C0030000 		.4byte	.LASF3
 1826 0043 02       		.byte	0x2
 1827 0044 29       		.byte	0x29
 1828 0045 49000000 		.4byte	0x49
 1829 0049 02       		.uleb128 0x2
 1830 004a 02       		.byte	0x2
 1831 004b 05       		.byte	0x5
 1832 004c 9C090000 		.4byte	.LASF4
 1833 0050 03       		.uleb128 0x3
 1834 0051 240B0000 		.4byte	.LASF5
 1835 0055 02       		.byte	0x2
 1836 0056 2B       		.byte	0x2b
 1837 0057 5B000000 		.4byte	0x5b
 1838 005b 02       		.uleb128 0x2
 1839 005c 02       		.byte	0x2
 1840 005d 07       		.byte	0x7
 1841 005e A9050000 		.4byte	.LASF6
 1842 0062 03       		.uleb128 0x3
 1843 0063 640B0000 		.4byte	.LASF7
 1844 0067 02       		.byte	0x2
 1845 0068 3F       		.byte	0x3f
ARM GAS  C:\Users\d4hhm\AppData\Local\Temp\cchY4aQw.s 			page 40


 1846 0069 6D000000 		.4byte	0x6d
 1847 006d 02       		.uleb128 0x2
 1848 006e 04       		.byte	0x4
 1849 006f 05       		.byte	0x5
 1850 0070 6F010000 		.4byte	.LASF8
 1851 0074 03       		.uleb128 0x3
 1852 0075 A0030000 		.4byte	.LASF9
 1853 0079 02       		.byte	0x2
 1854 007a 41       		.byte	0x41
 1855 007b 7F000000 		.4byte	0x7f
 1856 007f 02       		.uleb128 0x2
 1857 0080 04       		.byte	0x4
 1858 0081 07       		.byte	0x7
 1859 0082 BD0A0000 		.4byte	.LASF10
 1860 0086 03       		.uleb128 0x3
 1861 0087 81020000 		.4byte	.LASF11
 1862 008b 02       		.byte	0x2
 1863 008c 59       		.byte	0x59
 1864 008d 91000000 		.4byte	0x91
 1865 0091 02       		.uleb128 0x2
 1866 0092 08       		.byte	0x8
 1867 0093 05       		.byte	0x5
 1868 0094 61020000 		.4byte	.LASF12
 1869 0098 02       		.uleb128 0x2
 1870 0099 08       		.byte	0x8
 1871 009a 07       		.byte	0x7
 1872 009b 78010000 		.4byte	.LASF13
 1873 009f 04       		.uleb128 0x4
 1874 00a0 04       		.byte	0x4
 1875 00a1 05       		.byte	0x5
 1876 00a2 696E7400 		.ascii	"int\000"
 1877 00a6 02       		.uleb128 0x2
 1878 00a7 04       		.byte	0x4
 1879 00a8 07       		.byte	0x7
 1880 00a9 A0040000 		.4byte	.LASF14
 1881 00ad 03       		.uleb128 0x3
 1882 00ae 860C0000 		.4byte	.LASF15
 1883 00b2 03       		.byte	0x3
 1884 00b3 18       		.byte	0x18
 1885 00b4 2C000000 		.4byte	0x2c
 1886 00b8 03       		.uleb128 0x3
 1887 00b9 59020000 		.4byte	.LASF16
 1888 00bd 03       		.byte	0x3
 1889 00be 20       		.byte	0x20
 1890 00bf 3E000000 		.4byte	0x3e
 1891 00c3 03       		.uleb128 0x3
 1892 00c4 D5040000 		.4byte	.LASF17
 1893 00c8 03       		.byte	0x3
 1894 00c9 24       		.byte	0x24
 1895 00ca 50000000 		.4byte	0x50
 1896 00ce 03       		.uleb128 0x3
 1897 00cf 62090000 		.4byte	.LASF18
 1898 00d3 03       		.byte	0x3
 1899 00d4 2C       		.byte	0x2c
 1900 00d5 62000000 		.4byte	0x62
 1901 00d9 03       		.uleb128 0x3
 1902 00da 520C0000 		.4byte	.LASF19
ARM GAS  C:\Users\d4hhm\AppData\Local\Temp\cchY4aQw.s 			page 41


 1903 00de 03       		.byte	0x3
 1904 00df 30       		.byte	0x30
 1905 00e0 74000000 		.4byte	0x74
 1906 00e4 03       		.uleb128 0x3
 1907 00e5 C2020000 		.4byte	.LASF20
 1908 00e9 03       		.byte	0x3
 1909 00ea 38       		.byte	0x38
 1910 00eb 86000000 		.4byte	0x86
 1911 00ef 05       		.uleb128 0x5
 1912 00f0 2D030000 		.4byte	.LASF21
 1913 00f4 04       		.byte	0x4
 1914 00f5 E601     		.2byte	0x1e6
 1915 00f7 37000000 		.4byte	0x37
 1916 00fb 05       		.uleb128 0x5
 1917 00fc 47000000 		.4byte	.LASF22
 1918 0100 04       		.byte	0x4
 1919 0101 E701     		.2byte	0x1e7
 1920 0103 5B000000 		.4byte	0x5b
 1921 0107 02       		.uleb128 0x2
 1922 0108 04       		.byte	0x4
 1923 0109 04       		.byte	0x4
 1924 010a 3A090000 		.4byte	.LASF23
 1925 010e 02       		.uleb128 0x2
 1926 010f 08       		.byte	0x8
 1927 0110 04       		.byte	0x4
 1928 0111 59030000 		.4byte	.LASF24
 1929 0115 02       		.uleb128 0x2
 1930 0116 01       		.byte	0x1
 1931 0117 08       		.byte	0x8
 1932 0118 EE0A0000 		.4byte	.LASF25
 1933 011c 02       		.uleb128 0x2
 1934 011d 08       		.byte	0x8
 1935 011e 04       		.byte	0x4
 1936 011f 05080000 		.4byte	.LASF26
 1937 0123 02       		.uleb128 0x2
 1938 0124 04       		.byte	0x4
 1939 0125 07       		.byte	0x7
 1940 0126 FC070000 		.4byte	.LASF27
 1941 012a 06       		.uleb128 0x6
 1942 012b 01       		.byte	0x1
 1943 012c 37000000 		.4byte	0x37
 1944 0130 06       		.byte	0x6
 1945 0131 3201     		.2byte	0x132
 1946 0133 E8020000 		.4byte	0x2e8
 1947 0137 07       		.uleb128 0x7
 1948 0138 BC050000 		.4byte	.LASF28
 1949 013c 00       		.byte	0
 1950 013d 07       		.uleb128 0x7
 1951 013e 40090000 		.4byte	.LASF29
 1952 0142 01       		.byte	0x1
 1953 0143 07       		.uleb128 0x7
 1954 0144 5D010000 		.4byte	.LASF30
 1955 0148 02       		.byte	0x2
 1956 0149 07       		.uleb128 0x7
 1957 014a E30B0000 		.4byte	.LASF31
 1958 014e 03       		.byte	0x3
 1959 014f 07       		.uleb128 0x7
ARM GAS  C:\Users\d4hhm\AppData\Local\Temp\cchY4aQw.s 			page 42


 1960 0150 8F010000 		.4byte	.LASF32
 1961 0154 04       		.byte	0x4
 1962 0155 07       		.uleb128 0x7
 1963 0156 23000000 		.4byte	.LASF33
 1964 015a 05       		.byte	0x5
 1965 015b 07       		.uleb128 0x7
 1966 015c F1050000 		.4byte	.LASF34
 1967 0160 06       		.byte	0x6
 1968 0161 07       		.uleb128 0x7
 1969 0162 57070000 		.4byte	.LASF35
 1970 0166 20       		.byte	0x20
 1971 0167 07       		.uleb128 0x7
 1972 0168 91020000 		.4byte	.LASF36
 1973 016c 21       		.byte	0x21
 1974 016d 07       		.uleb128 0x7
 1975 016e 29060000 		.4byte	.LASF37
 1976 0172 22       		.byte	0x22
 1977 0173 07       		.uleb128 0x7
 1978 0174 B60B0000 		.4byte	.LASF38
 1979 0178 23       		.byte	0x23
 1980 0179 07       		.uleb128 0x7
 1981 017a 87080000 		.4byte	.LASF39
 1982 017e 24       		.byte	0x24
 1983 017f 07       		.uleb128 0x7
 1984 0180 11080000 		.4byte	.LASF40
 1985 0184 25       		.byte	0x25
 1986 0185 07       		.uleb128 0x7
 1987 0186 05030000 		.4byte	.LASF41
 1988 018a 26       		.byte	0x26
 1989 018b 07       		.uleb128 0x7
 1990 018c 4D060000 		.4byte	.LASF42
 1991 0190 27       		.byte	0x27
 1992 0191 07       		.uleb128 0x7
 1993 0192 FC0B0000 		.4byte	.LASF43
 1994 0196 28       		.byte	0x28
 1995 0197 07       		.uleb128 0x7
 1996 0198 13020000 		.4byte	.LASF44
 1997 019c 29       		.byte	0x29
 1998 019d 07       		.uleb128 0x7
 1999 019e A2000000 		.4byte	.LASF45
 2000 01a2 2A       		.byte	0x2a
 2001 01a3 07       		.uleb128 0x7
 2002 01a4 A9010000 		.4byte	.LASF46
 2003 01a8 2B       		.byte	0x2b
 2004 01a9 07       		.uleb128 0x7
 2005 01aa E90C0000 		.4byte	.LASF47
 2006 01ae 2C       		.byte	0x2c
 2007 01af 07       		.uleb128 0x7
 2008 01b0 30020000 		.4byte	.LASF48
 2009 01b4 2D       		.byte	0x2d
 2010 01b5 07       		.uleb128 0x7
 2011 01b6 78090000 		.4byte	.LASF49
 2012 01ba 2E       		.byte	0x2e
 2013 01bb 07       		.uleb128 0x7
 2014 01bc EC000000 		.4byte	.LASF50
 2015 01c0 2F       		.byte	0x2f
 2016 01c1 07       		.uleb128 0x7
ARM GAS  C:\Users\d4hhm\AppData\Local\Temp\cchY4aQw.s 			page 43


 2017 01c2 66080000 		.4byte	.LASF51
 2018 01c6 30       		.byte	0x30
 2019 01c7 07       		.uleb128 0x7
 2020 01c8 540D0000 		.4byte	.LASF52
 2021 01cc 31       		.byte	0x31
 2022 01cd 07       		.uleb128 0x7
 2023 01ce 45080000 		.4byte	.LASF53
 2024 01d2 32       		.byte	0x32
 2025 01d3 07       		.uleb128 0x7
 2026 01d4 810A0000 		.4byte	.LASF54
 2027 01d8 33       		.byte	0x33
 2028 01d9 07       		.uleb128 0x7
 2029 01da EF040000 		.4byte	.LASF55
 2030 01de 34       		.byte	0x34
 2031 01df 07       		.uleb128 0x7
 2032 01e0 04040000 		.4byte	.LASF56
 2033 01e4 35       		.byte	0x35
 2034 01e5 07       		.uleb128 0x7
 2035 01e6 6C060000 		.4byte	.LASF57
 2036 01ea 36       		.byte	0x36
 2037 01eb 07       		.uleb128 0x7
 2038 01ec 7B070000 		.4byte	.LASF58
 2039 01f0 37       		.byte	0x37
 2040 01f1 07       		.uleb128 0x7
 2041 01f2 670A0000 		.4byte	.LASF59
 2042 01f6 40       		.byte	0x40
 2043 01f7 07       		.uleb128 0x7
 2044 01f8 1B070000 		.4byte	.LASF60
 2045 01fc 41       		.byte	0x41
 2046 01fd 07       		.uleb128 0x7
 2047 01fe 7F0D0000 		.4byte	.LASF61
 2048 0202 42       		.byte	0x42
 2049 0203 07       		.uleb128 0x7
 2050 0204 5B0C0000 		.4byte	.LASF62
 2051 0208 43       		.byte	0x43
 2052 0209 07       		.uleb128 0x7
 2053 020a 21050000 		.4byte	.LASF63
 2054 020e 44       		.byte	0x44
 2055 020f 07       		.uleb128 0x7
 2056 0210 13090000 		.4byte	.LASF64
 2057 0214 45       		.byte	0x45
 2058 0215 07       		.uleb128 0x7
 2059 0216 DB070000 		.4byte	.LASF65
 2060 021a 46       		.byte	0x46
 2061 021b 07       		.uleb128 0x7
 2062 021c D3050000 		.4byte	.LASF66
 2063 0220 47       		.byte	0x47
 2064 0221 07       		.uleb128 0x7
 2065 0222 C20C0000 		.4byte	.LASF67
 2066 0226 48       		.byte	0x48
 2067 0227 07       		.uleb128 0x7
 2068 0228 4E000000 		.4byte	.LASF68
 2069 022c 49       		.byte	0x49
 2070 022d 07       		.uleb128 0x7
 2071 022e 910B0000 		.4byte	.LASF69
 2072 0232 4A       		.byte	0x4a
 2073 0233 07       		.uleb128 0x7
ARM GAS  C:\Users\d4hhm\AppData\Local\Temp\cchY4aQw.s 			page 44


 2074 0234 15010000 		.4byte	.LASF70
 2075 0238 4B       		.byte	0x4b
 2076 0239 07       		.uleb128 0x7
 2077 023a 07050000 		.4byte	.LASF71
 2078 023e 4C       		.byte	0x4c
 2079 023f 07       		.uleb128 0x7
 2080 0240 2B080000 		.4byte	.LASF72
 2081 0244 4D       		.byte	0x4d
 2082 0245 07       		.uleb128 0x7
 2083 0246 D5020000 		.4byte	.LASF73
 2084 024a 4E       		.byte	0x4e
 2085 024b 07       		.uleb128 0x7
 2086 024c F6090000 		.4byte	.LASF74
 2087 0250 4F       		.byte	0x4f
 2088 0251 07       		.uleb128 0x7
 2089 0252 0A060000 		.4byte	.LASF75
 2090 0256 50       		.byte	0x50
 2091 0257 07       		.uleb128 0x7
 2092 0258 3A030000 		.4byte	.LASF76
 2093 025c 51       		.byte	0x51
 2094 025d 07       		.uleb128 0x7
 2095 025e BC080000 		.4byte	.LASF77
 2096 0262 52       		.byte	0x52
 2097 0263 07       		.uleb128 0x7
 2098 0264 A6090000 		.4byte	.LASF78
 2099 0268 53       		.byte	0x53
 2100 0269 07       		.uleb128 0x7
 2101 026a 460A0000 		.4byte	.LASF79
 2102 026e 54       		.byte	0x54
 2103 026f 07       		.uleb128 0x7
 2104 0270 3F050000 		.4byte	.LASF80
 2105 0274 55       		.byte	0x55
 2106 0275 07       		.uleb128 0x7
 2107 0276 7E040000 		.4byte	.LASF81
 2108 027a 56       		.byte	0x56
 2109 027b 07       		.uleb128 0x7
 2110 027c 2F0B0000 		.4byte	.LASF82
 2111 0280 57       		.byte	0x57
 2112 0281 07       		.uleb128 0x7
 2113 0282 71050000 		.4byte	.LASF83
 2114 0286 58       		.byte	0x58
 2115 0287 07       		.uleb128 0x7
 2116 0288 E6010000 		.4byte	.LASF84
 2117 028c 70       		.byte	0x70
 2118 028d 07       		.uleb128 0x7
 2119 028e 2E0D0000 		.4byte	.LASF85
 2120 0292 71       		.byte	0x71
 2121 0293 07       		.uleb128 0x7
 2122 0294 3B070000 		.4byte	.LASF86
 2123 0298 72       		.byte	0x72
 2124 0299 07       		.uleb128 0x7
 2125 029a BD070000 		.4byte	.LASF87
 2126 029e 73       		.byte	0x73
 2127 029f 07       		.uleb128 0x7
 2128 02a0 EC080000 		.4byte	.LASF88
 2129 02a4 74       		.byte	0x74
 2130 02a5 07       		.uleb128 0x7
ARM GAS  C:\Users\d4hhm\AppData\Local\Temp\cchY4aQw.s 			page 45


 2131 02a6 0D0D0000 		.4byte	.LASF89
 2132 02aa 75       		.byte	0x75
 2133 02ab 07       		.uleb128 0x7
 2134 02ac CB000000 		.4byte	.LASF90
 2135 02b0 76       		.byte	0x76
 2136 02b1 07       		.uleb128 0x7
 2137 02b2 67000000 		.4byte	.LASF91
 2138 02b6 77       		.byte	0x77
 2139 02b7 07       		.uleb128 0x7
 2140 02b8 00000000 		.4byte	.LASF92
 2141 02bc 78       		.byte	0x78
 2142 02bd 07       		.uleb128 0x7
 2143 02be 6E0B0000 		.4byte	.LASF93
 2144 02c2 79       		.byte	0x79
 2145 02c3 07       		.uleb128 0x7
 2146 02c4 CA030000 		.4byte	.LASF94
 2147 02c8 7A       		.byte	0x7a
 2148 02c9 07       		.uleb128 0x7
 2149 02ca C8010000 		.4byte	.LASF95
 2150 02ce FA       		.byte	0xfa
 2151 02cf 07       		.uleb128 0x7
 2152 02d0 B6040000 		.4byte	.LASF96
 2153 02d4 FB       		.byte	0xfb
 2154 02d5 07       		.uleb128 0x7
 2155 02d6 E4090000 		.4byte	.LASF97
 2156 02da FC       		.byte	0xfc
 2157 02db 07       		.uleb128 0x7
 2158 02dc CF0A0000 		.4byte	.LASF98
 2159 02e0 FD       		.byte	0xfd
 2160 02e1 07       		.uleb128 0x7
 2161 02e2 92030000 		.4byte	.LASF99
 2162 02e6 FF       		.byte	0xff
 2163 02e7 00       		.byte	0
 2164 02e8 08       		.uleb128 0x8
 2165 02e9 09       		.byte	0x9
 2166 02ea 05       		.byte	0x5
 2167 02eb 5E       		.byte	0x5e
 2168 02ec 5D030000 		.4byte	0x35d
 2169 02f0 09       		.uleb128 0x9
 2170 02f1 250C0000 		.4byte	.LASF100
 2171 02f5 05       		.byte	0x5
 2172 02f6 60       		.byte	0x60
 2173 02f7 AD000000 		.4byte	0xad
 2174 02fb 00       		.byte	0
 2175 02fc 09       		.uleb128 0x9
 2176 02fd CA020000 		.4byte	.LASF101
 2177 0301 05       		.byte	0x5
 2178 0302 61       		.byte	0x61
 2179 0303 AD000000 		.4byte	0xad
 2180 0307 01       		.byte	0x1
 2181 0308 09       		.uleb128 0x9
 2182 0309 9B0C0000 		.4byte	.LASF102
 2183 030d 05       		.byte	0x5
 2184 030e 62       		.byte	0x62
 2185 030f AD000000 		.4byte	0xad
 2186 0313 02       		.byte	0x2
 2187 0314 09       		.uleb128 0x9
ARM GAS  C:\Users\d4hhm\AppData\Local\Temp\cchY4aQw.s 			page 46


 2188 0315 3F000000 		.4byte	.LASF103
 2189 0319 05       		.byte	0x5
 2190 031a 64       		.byte	0x64
 2191 031b AD000000 		.4byte	0xad
 2192 031f 03       		.byte	0x3
 2193 0320 09       		.uleb128 0x9
 2194 0321 94050000 		.4byte	.LASF104
 2195 0325 05       		.byte	0x5
 2196 0326 65       		.byte	0x65
 2197 0327 AD000000 		.4byte	0xad
 2198 032b 04       		.byte	0x4
 2199 032c 09       		.uleb128 0x9
 2200 032d 1E0C0000 		.4byte	.LASF105
 2201 0331 05       		.byte	0x5
 2202 0332 66       		.byte	0x66
 2203 0333 AD000000 		.4byte	0xad
 2204 0337 05       		.byte	0x5
 2205 0338 09       		.uleb128 0x9
 2206 0339 53090000 		.4byte	.LASF106
 2207 033d 05       		.byte	0x5
 2208 033e 67       		.byte	0x67
 2209 033f AD000000 		.4byte	0xad
 2210 0343 06       		.byte	0x6
 2211 0344 09       		.uleb128 0x9
 2212 0345 3E010000 		.4byte	.LASF107
 2213 0349 05       		.byte	0x5
 2214 034a 68       		.byte	0x68
 2215 034b AD000000 		.4byte	0xad
 2216 034f 07       		.byte	0x7
 2217 0350 09       		.uleb128 0x9
 2218 0351 92000000 		.4byte	.LASF108
 2219 0355 05       		.byte	0x5
 2220 0356 69       		.byte	0x69
 2221 0357 AD000000 		.4byte	0xad
 2222 035b 08       		.byte	0x8
 2223 035c 00       		.byte	0
 2224 035d 03       		.uleb128 0x3
 2225 035e EE030000 		.4byte	.LASF109
 2226 0362 05       		.byte	0x5
 2227 0363 6B       		.byte	0x6b
 2228 0364 E8020000 		.4byte	0x2e8
 2229 0368 08       		.uleb128 0x8
 2230 0369 24       		.byte	0x24
 2231 036a 05       		.byte	0x5
 2232 036b 6F       		.byte	0x6f
 2233 036c 49040000 		.4byte	0x449
 2234 0370 09       		.uleb128 0x9
 2235 0371 AB030000 		.4byte	.LASF110
 2236 0375 05       		.byte	0x5
 2237 0376 70       		.byte	0x70
 2238 0377 C3000000 		.4byte	0xc3
 2239 037b 00       		.byte	0
 2240 037c 09       		.uleb128 0x9
 2241 037d FD030000 		.4byte	.LASF111
 2242 0381 05       		.byte	0x5
 2243 0382 71       		.byte	0x71
 2244 0383 B8000000 		.4byte	0xb8
ARM GAS  C:\Users\d4hhm\AppData\Local\Temp\cchY4aQw.s 			page 47


 2245 0387 02       		.byte	0x2
 2246 0388 09       		.uleb128 0x9
 2247 0389 B9030000 		.4byte	.LASF112
 2248 038d 05       		.byte	0x5
 2249 038e 72       		.byte	0x72
 2250 038f B8000000 		.4byte	0xb8
 2251 0393 04       		.byte	0x4
 2252 0394 09       		.uleb128 0x9
 2253 0395 E70A0000 		.4byte	.LASF113
 2254 0399 05       		.byte	0x5
 2255 039a 74       		.byte	0x74
 2256 039b C3000000 		.4byte	0xc3
 2257 039f 06       		.byte	0x6
 2258 03a0 09       		.uleb128 0x9
 2259 03a1 69030000 		.4byte	.LASF114
 2260 03a5 05       		.byte	0x5
 2261 03a6 75       		.byte	0x75
 2262 03a7 B8000000 		.4byte	0xb8
 2263 03ab 08       		.byte	0x8
 2264 03ac 09       		.uleb128 0x9
 2265 03ad F30A0000 		.4byte	.LASF115
 2266 03b1 05       		.byte	0x5
 2267 03b2 76       		.byte	0x76
 2268 03b3 B8000000 		.4byte	0xb8
 2269 03b7 0A       		.byte	0xa
 2270 03b8 09       		.uleb128 0x9
 2271 03b9 FA0A0000 		.4byte	.LASF116
 2272 03bd 05       		.byte	0x5
 2273 03be 77       		.byte	0x77
 2274 03bf B8000000 		.4byte	0xb8
 2275 03c3 0C       		.byte	0xc
 2276 03c4 09       		.uleb128 0x9
 2277 03c5 010B0000 		.4byte	.LASF117
 2278 03c9 05       		.byte	0x5
 2279 03ca 78       		.byte	0x78
 2280 03cb B8000000 		.4byte	0xb8
 2281 03cf 0E       		.byte	0xe
 2282 03d0 09       		.uleb128 0x9
 2283 03d1 080B0000 		.4byte	.LASF118
 2284 03d5 05       		.byte	0x5
 2285 03d6 79       		.byte	0x79
 2286 03d7 B8000000 		.4byte	0xb8
 2287 03db 10       		.byte	0x10
 2288 03dc 09       		.uleb128 0x9
 2289 03dd 0F0B0000 		.4byte	.LASF119
 2290 03e1 05       		.byte	0x5
 2291 03e2 7A       		.byte	0x7a
 2292 03e3 B8000000 		.4byte	0xb8
 2293 03e7 12       		.byte	0x12
 2294 03e8 09       		.uleb128 0x9
 2295 03e9 160B0000 		.4byte	.LASF120
 2296 03ed 05       		.byte	0x5
 2297 03ee 7B       		.byte	0x7b
 2298 03ef B8000000 		.4byte	0xb8
 2299 03f3 14       		.byte	0x14
 2300 03f4 09       		.uleb128 0x9
 2301 03f5 1D0B0000 		.4byte	.LASF121
ARM GAS  C:\Users\d4hhm\AppData\Local\Temp\cchY4aQw.s 			page 48


 2302 03f9 05       		.byte	0x5
 2303 03fa 7C       		.byte	0x7c
 2304 03fb B8000000 		.4byte	0xb8
 2305 03ff 16       		.byte	0x16
 2306 0400 09       		.uleb128 0x9
 2307 0401 1C0A0000 		.4byte	.LASF122
 2308 0405 05       		.byte	0x5
 2309 0406 7E       		.byte	0x7e
 2310 0407 AD000000 		.4byte	0xad
 2311 040b 18       		.byte	0x18
 2312 040c 09       		.uleb128 0x9
 2313 040d 230A0000 		.4byte	.LASF123
 2314 0411 05       		.byte	0x5
 2315 0412 7F       		.byte	0x7f
 2316 0413 B8000000 		.4byte	0xb8
 2317 0417 1A       		.byte	0x1a
 2318 0418 09       		.uleb128 0x9
 2319 0419 2A0A0000 		.4byte	.LASF124
 2320 041d 05       		.byte	0x5
 2321 041e 80       		.byte	0x80
 2322 041f AD000000 		.4byte	0xad
 2323 0423 1C       		.byte	0x1c
 2324 0424 09       		.uleb128 0x9
 2325 0425 310A0000 		.4byte	.LASF125
 2326 0429 05       		.byte	0x5
 2327 042a 81       		.byte	0x81
 2328 042b B8000000 		.4byte	0xb8
 2329 042f 1E       		.byte	0x1e
 2330 0430 09       		.uleb128 0x9
 2331 0431 380A0000 		.4byte	.LASF126
 2332 0435 05       		.byte	0x5
 2333 0436 82       		.byte	0x82
 2334 0437 B8000000 		.4byte	0xb8
 2335 043b 20       		.byte	0x20
 2336 043c 09       		.uleb128 0x9
 2337 043d 3F0A0000 		.4byte	.LASF127
 2338 0441 05       		.byte	0x5
 2339 0442 83       		.byte	0x83
 2340 0443 AD000000 		.4byte	0xad
 2341 0447 22       		.byte	0x22
 2342 0448 00       		.byte	0
 2343 0449 03       		.uleb128 0x3
 2344 044a F3020000 		.4byte	.LASF128
 2345 044e 05       		.byte	0x5
 2346 044f 85       		.byte	0x85
 2347 0450 68030000 		.4byte	0x368
 2348 0454 08       		.uleb128 0x8
 2349 0455 40       		.byte	0x40
 2350 0456 05       		.byte	0x5
 2351 0457 89       		.byte	0x89
 2352 0458 A4040000 		.4byte	0x4a4
 2353 045c 09       		.uleb128 0x9
 2354 045d 0A090000 		.4byte	.LASF129
 2355 0461 05       		.byte	0x5
 2356 0462 8B       		.byte	0x8b
 2357 0463 5D030000 		.4byte	0x35d
 2358 0467 00       		.byte	0
ARM GAS  C:\Users\d4hhm\AppData\Local\Temp\cchY4aQw.s 			page 49


 2359 0468 09       		.uleb128 0x9
 2360 0469 86000000 		.4byte	.LASF130
 2361 046d 05       		.byte	0x5
 2362 046e 8C       		.byte	0x8c
 2363 046f 49040000 		.4byte	0x449
 2364 0473 0A       		.byte	0xa
 2365 0474 09       		.uleb128 0x9
 2366 0475 B2030000 		.4byte	.LASF131
 2367 0479 05       		.byte	0x5
 2368 047a 8D       		.byte	0x8d
 2369 047b CE000000 		.4byte	0xce
 2370 047f 30       		.byte	0x30
 2371 0480 09       		.uleb128 0x9
 2372 0481 0C020000 		.4byte	.LASF132
 2373 0485 05       		.byte	0x5
 2374 0486 8E       		.byte	0x8e
 2375 0487 07010000 		.4byte	0x107
 2376 048b 34       		.byte	0x34
 2377 048c 09       		.uleb128 0x9
 2378 048d 4E010000 		.4byte	.LASF133
 2379 0491 05       		.byte	0x5
 2380 0492 8F       		.byte	0x8f
 2381 0493 07010000 		.4byte	0x107
 2382 0497 38       		.byte	0x38
 2383 0498 0A       		.uleb128 0xa
 2384 0499 524800   		.ascii	"RH\000"
 2385 049c 05       		.byte	0x5
 2386 049d 90       		.byte	0x90
 2387 049e 07010000 		.4byte	0x107
 2388 04a2 3C       		.byte	0x3c
 2389 04a3 00       		.byte	0
 2390 04a4 03       		.uleb128 0x3
 2391 04a5 150A0000 		.4byte	.LASF134
 2392 04a9 05       		.byte	0x5
 2393 04aa 91       		.byte	0x91
 2394 04ab 54040000 		.4byte	0x454
 2395 04af 0B       		.uleb128 0xb
 2396 04b0 790C0000 		.4byte	.LASF135
 2397 04b4 01       		.byte	0x1
 2398 04b5 36       		.byte	0x36
 2399 04b6 00000000 		.4byte	.LFB35
 2400 04ba 0E000000 		.4byte	.LFE35-.LFB35
 2401 04be 01       		.uleb128 0x1
 2402 04bf 9C       		.byte	0x9c
 2403 04c0 0B       		.uleb128 0xb
 2404 04c1 9D050000 		.4byte	.LASF136
 2405 04c5 01       		.byte	0x1
 2406 04c6 3B       		.byte	0x3b
 2407 04c7 00000000 		.4byte	.LFB36
 2408 04cb 0E000000 		.4byte	.LFE36-.LFB36
 2409 04cf 01       		.uleb128 0x1
 2410 04d0 9C       		.byte	0x9c
 2411 04d1 0C       		.uleb128 0xc
 2412 04d2 580B0000 		.4byte	.LASF158
 2413 04d6 01       		.byte	0x1
 2414 04d7 48       		.byte	0x48
 2415 04d8 AD000000 		.4byte	0xad
ARM GAS  C:\Users\d4hhm\AppData\Local\Temp\cchY4aQw.s 			page 50


 2416 04dc 00000000 		.4byte	.LFB37
 2417 04e0 00030000 		.4byte	.LFE37-.LFB37
 2418 04e4 01       		.uleb128 0x1
 2419 04e5 9C       		.byte	0x9c
 2420 04e6 07050000 		.4byte	0x507
 2421 04ea 0D       		.uleb128 0xd
 2422 04eb 63050000 		.4byte	.LASF137
 2423 04ef 01       		.byte	0x1
 2424 04f0 4B       		.byte	0x4b
 2425 04f1 AD000000 		.4byte	0xad
 2426 04f5 02       		.uleb128 0x2
 2427 04f6 91       		.byte	0x91
 2428 04f7 6F       		.sleb128 -17
 2429 04f8 0D       		.uleb128 0xd
 2430 04f9 DD080000 		.4byte	.LASF138
 2431 04fd 01       		.byte	0x1
 2432 04fe 4B       		.byte	0x4b
 2433 04ff AD000000 		.4byte	0xad
 2434 0503 02       		.uleb128 0x2
 2435 0504 91       		.byte	0x91
 2436 0505 6E       		.sleb128 -18
 2437 0506 00       		.byte	0
 2438 0507 0B       		.uleb128 0xb
 2439 0508 B0070000 		.4byte	.LASF139
 2440 050c 01       		.byte	0x1
 2441 050d 82       		.byte	0x82
 2442 050e 00000000 		.4byte	.LFB38
 2443 0512 12000000 		.4byte	.LFE38-.LFB38
 2444 0516 01       		.uleb128 0x1
 2445 0517 9C       		.byte	0x9c
 2446 0518 0E       		.uleb128 0xe
 2447 0519 A3080000 		.4byte	.LASF144
 2448 051d 01       		.byte	0x1
 2449 051e 8D       		.byte	0x8d
 2450 051f 07010000 		.4byte	0x107
 2451 0523 00000000 		.4byte	.LFB39
 2452 0527 D4030000 		.4byte	.LFE39-.LFB39
 2453 052b 01       		.uleb128 0x1
 2454 052c 9C       		.byte	0x9c
 2455 052d 6A050000 		.4byte	0x56a
 2456 0531 0D       		.uleb128 0xd
 2457 0532 8B020000 		.4byte	.LASF140
 2458 0536 01       		.byte	0x1
 2459 0537 92       		.byte	0x92
 2460 0538 CE000000 		.4byte	0xce
 2461 053c 02       		.uleb128 0x2
 2462 053d 91       		.byte	0x91
 2463 053e 64       		.sleb128 -28
 2464 053f 0D       		.uleb128 0xd
 2465 0540 DE040000 		.4byte	.LASF141
 2466 0544 01       		.byte	0x1
 2467 0545 94       		.byte	0x94
 2468 0546 E4000000 		.4byte	0xe4
 2469 054a 02       		.uleb128 0x2
 2470 054b 91       		.byte	0x91
 2471 054c 58       		.sleb128 -40
 2472 054d 0D       		.uleb128 0xd
ARM GAS  C:\Users\d4hhm\AppData\Local\Temp\cchY4aQw.s 			page 51


 2473 054e E3040000 		.4byte	.LASF142
 2474 0552 01       		.byte	0x1
 2475 0553 94       		.byte	0x94
 2476 0554 E4000000 		.4byte	0xe4
 2477 0558 02       		.uleb128 0x2
 2478 0559 91       		.byte	0x91
 2479 055a 50       		.sleb128 -48
 2480 055b 0D       		.uleb128 0xd
 2481 055c 57010000 		.4byte	.LASF143
 2482 0560 01       		.byte	0x1
 2483 0561 94       		.byte	0x94
 2484 0562 E4000000 		.4byte	0xe4
 2485 0566 02       		.uleb128 0x2
 2486 0567 91       		.byte	0x91
 2487 0568 48       		.sleb128 -56
 2488 0569 00       		.byte	0
 2489 056a 0E       		.uleb128 0xe
 2490 056b 330C0000 		.4byte	.LASF145
 2491 056f 01       		.byte	0x1
 2492 0570 AA       		.byte	0xaa
 2493 0571 07010000 		.4byte	0x107
 2494 0575 00000000 		.4byte	.LFB40
 2495 0579 74000000 		.4byte	.LFE40-.LFB40
 2496 057d 01       		.uleb128 0x1
 2497 057e 9C       		.byte	0x9c
 2498 057f 92050000 		.4byte	0x592
 2499 0583 0D       		.uleb128 0xd
 2500 0584 8E0C0000 		.4byte	.LASF146
 2501 0588 01       		.byte	0x1
 2502 0589 AC       		.byte	0xac
 2503 058a 07010000 		.4byte	0x107
 2504 058e 02       		.uleb128 0x2
 2505 058f 91       		.byte	0x91
 2506 0590 6C       		.sleb128 -20
 2507 0591 00       		.byte	0
 2508 0592 0E       		.uleb128 0xe
 2509 0593 C7090000 		.4byte	.LASF147
 2510 0597 01       		.byte	0x1
 2511 0598 B3       		.byte	0xb3
 2512 0599 07010000 		.4byte	0x107
 2513 059d 00000000 		.4byte	.LFB41
 2514 05a1 40000000 		.4byte	.LFE41-.LFB41
 2515 05a5 01       		.uleb128 0x1
 2516 05a6 9C       		.byte	0x9c
 2517 05a7 BA050000 		.4byte	0x5ba
 2518 05ab 0D       		.uleb128 0xd
 2519 05ac 8E0C0000 		.4byte	.LASF146
 2520 05b0 01       		.byte	0x1
 2521 05b1 B5       		.byte	0xb5
 2522 05b2 07010000 		.4byte	0x107
 2523 05b6 02       		.uleb128 0x2
 2524 05b7 91       		.byte	0x91
 2525 05b8 6C       		.sleb128 -20
 2526 05b9 00       		.byte	0
 2527 05ba 0E       		.uleb128 0xe
 2528 05bb A90C0000 		.4byte	.LASF148
 2529 05bf 01       		.byte	0x1
ARM GAS  C:\Users\d4hhm\AppData\Local\Temp\cchY4aQw.s 			page 52


 2530 05c0 C1       		.byte	0xc1
 2531 05c1 07010000 		.4byte	0x107
 2532 05c5 00000000 		.4byte	.LFB42
 2533 05c9 FC000000 		.4byte	.LFE42-.LFB42
 2534 05cd 01       		.uleb128 0x1
 2535 05ce 9C       		.byte	0x9c
 2536 05cf F0050000 		.4byte	0x5f0
 2537 05d3 0D       		.uleb128 0xd
 2538 05d4 7B020000 		.4byte	.LASF149
 2539 05d8 01       		.byte	0x1
 2540 05d9 C6       		.byte	0xc6
 2541 05da CE000000 		.4byte	0xce
 2542 05de 02       		.uleb128 0x2
 2543 05df 91       		.byte	0x91
 2544 05e0 6C       		.sleb128 -20
 2545 05e1 0D       		.uleb128 0xd
 2546 05e2 DE040000 		.4byte	.LASF141
 2547 05e6 01       		.byte	0x1
 2548 05e7 C8       		.byte	0xc8
 2549 05e8 CE000000 		.4byte	0xce
 2550 05ec 02       		.uleb128 0x2
 2551 05ed 91       		.byte	0x91
 2552 05ee 68       		.sleb128 -24
 2553 05ef 00       		.byte	0
 2554 05f0 0E       		.uleb128 0xe
 2555 05f1 70030000 		.4byte	.LASF150
 2556 05f5 01       		.byte	0x1
 2557 05f6 DE       		.byte	0xde
 2558 05f7 07010000 		.4byte	0x107
 2559 05fb 00000000 		.4byte	.LFB43
 2560 05ff C0000000 		.4byte	.LFE43-.LFB43
 2561 0603 01       		.uleb128 0x1
 2562 0604 9C       		.byte	0x9c
 2563 0605 42060000 		.4byte	0x642
 2564 0609 0D       		.uleb128 0xd
 2565 060a A8020000 		.4byte	.LASF151
 2566 060e 01       		.byte	0x1
 2567 060f E4       		.byte	0xe4
 2568 0610 CE000000 		.4byte	0xce
 2569 0614 02       		.uleb128 0x2
 2570 0615 91       		.byte	0x91
 2571 0616 6C       		.sleb128 -20
 2572 0617 0D       		.uleb128 0xd
 2573 0618 DE040000 		.4byte	.LASF141
 2574 061c 01       		.byte	0x1
 2575 061d E7       		.byte	0xe7
 2576 061e E4000000 		.4byte	0xe4
 2577 0622 02       		.uleb128 0x2
 2578 0623 91       		.byte	0x91
 2579 0624 60       		.sleb128 -32
 2580 0625 0D       		.uleb128 0xd
 2581 0626 E3040000 		.4byte	.LASF142
 2582 062a 01       		.byte	0x1
 2583 062b E7       		.byte	0xe7
 2584 062c E4000000 		.4byte	0xe4
 2585 0630 02       		.uleb128 0x2
 2586 0631 91       		.byte	0x91
ARM GAS  C:\Users\d4hhm\AppData\Local\Temp\cchY4aQw.s 			page 53


 2587 0632 58       		.sleb128 -40
 2588 0633 0D       		.uleb128 0xd
 2589 0634 E8040000 		.4byte	.LASF152
 2590 0638 01       		.byte	0x1
 2591 0639 ED       		.byte	0xed
 2592 063a 07010000 		.4byte	0x107
 2593 063e 02       		.uleb128 0x2
 2594 063f 91       		.byte	0x91
 2595 0640 54       		.sleb128 -44
 2596 0641 00       		.byte	0
 2597 0642 0E       		.uleb128 0xe
 2598 0643 81030000 		.4byte	.LASF153
 2599 0647 01       		.byte	0x1
 2600 0648 F5       		.byte	0xf5
 2601 0649 07010000 		.4byte	0x107
 2602 064d 00000000 		.4byte	.LFB44
 2603 0651 44000000 		.4byte	.LFE44-.LFB44
 2604 0655 01       		.uleb128 0x1
 2605 0656 9C       		.byte	0x9c
 2606 0657 6A060000 		.4byte	0x66a
 2607 065b 0D       		.uleb128 0xd
 2608 065c E8040000 		.4byte	.LASF152
 2609 0660 01       		.byte	0x1
 2610 0661 F7       		.byte	0xf7
 2611 0662 07010000 		.4byte	0x107
 2612 0666 02       		.uleb128 0x2
 2613 0667 91       		.byte	0x91
 2614 0668 74       		.sleb128 -12
 2615 0669 00       		.byte	0
 2616 066a 0F       		.uleb128 0xf
 2617 066b AE020000 		.4byte	.LASF154
 2618 066f 01       		.byte	0x1
 2619 0670 0201     		.2byte	0x102
 2620 0672 AD000000 		.4byte	0xad
 2621 0676 00000000 		.4byte	.LFB45
 2622 067a D0000000 		.4byte	.LFE45-.LFB45
 2623 067e 01       		.uleb128 0x1
 2624 067f 9C       		.byte	0x9c
 2625 0680 C1060000 		.4byte	0x6c1
 2626 0684 10       		.uleb128 0x10
 2627 0685 AF0B0000 		.4byte	.LASF160
 2628 0689 01       		.byte	0x1
 2629 068a 0201     		.2byte	0x102
 2630 068c AD000000 		.4byte	0xad
 2631 0690 02       		.uleb128 0x2
 2632 0691 91       		.byte	0x91
 2633 0692 6F       		.sleb128 -17
 2634 0693 11       		.uleb128 0x11
 2635 0694 780D0000 		.4byte	.LASF155
 2636 0698 01       		.byte	0x1
 2637 0699 0501     		.2byte	0x105
 2638 069b AD000000 		.4byte	0xad
 2639 069f 02       		.uleb128 0x2
 2640 06a0 91       		.byte	0x91
 2641 06a1 74       		.sleb128 -12
 2642 06a2 11       		.uleb128 0x11
 2643 06a3 AD040000 		.4byte	.LASF156
ARM GAS  C:\Users\d4hhm\AppData\Local\Temp\cchY4aQw.s 			page 54


 2644 06a7 01       		.byte	0x1
 2645 06a8 0601     		.2byte	0x106
 2646 06aa AD000000 		.4byte	0xad
 2647 06ae 02       		.uleb128 0x2
 2648 06af 91       		.byte	0x91
 2649 06b0 75       		.sleb128 -11
 2650 06b1 11       		.uleb128 0x11
 2651 06b2 36070000 		.4byte	.LASF157
 2652 06b6 01       		.byte	0x1
 2653 06b7 0801     		.2byte	0x108
 2654 06b9 FB000000 		.4byte	0xfb
 2655 06bd 02       		.uleb128 0x2
 2656 06be 91       		.byte	0x91
 2657 06bf 76       		.sleb128 -10
 2658 06c0 00       		.byte	0
 2659 06c1 12       		.uleb128 0x12
 2660 06c2 A80A0000 		.4byte	.LASF159
 2661 06c6 01       		.byte	0x1
 2662 06c7 3701     		.2byte	0x137
 2663 06c9 00000000 		.4byte	.LFB46
 2664 06cd 90000000 		.4byte	.LFE46-.LFB46
 2665 06d1 01       		.uleb128 0x1
 2666 06d2 9C       		.byte	0x9c
 2667 06d3 14070000 		.4byte	0x714
 2668 06d7 10       		.uleb128 0x10
 2669 06d8 AF0B0000 		.4byte	.LASF160
 2670 06dc 01       		.byte	0x1
 2671 06dd 3701     		.2byte	0x137
 2672 06df AD000000 		.4byte	0xad
 2673 06e3 02       		.uleb128 0x2
 2674 06e4 91       		.byte	0x91
 2675 06e5 6F       		.sleb128 -17
 2676 06e6 10       		.uleb128 0x10
 2677 06e7 A4010000 		.4byte	.LASF161
 2678 06eb 01       		.byte	0x1
 2679 06ec 3701     		.2byte	0x137
 2680 06ee AD000000 		.4byte	0xad
 2681 06f2 02       		.uleb128 0x2
 2682 06f3 91       		.byte	0x91
 2683 06f4 6E       		.sleb128 -18
 2684 06f5 11       		.uleb128 0x11
 2685 06f6 DC0B0000 		.4byte	.LASF162
 2686 06fa 01       		.byte	0x1
 2687 06fb 3901     		.2byte	0x139
 2688 06fd 14070000 		.4byte	0x714
 2689 0701 02       		.uleb128 0x2
 2690 0702 91       		.byte	0x91
 2691 0703 74       		.sleb128 -12
 2692 0704 11       		.uleb128 0x11
 2693 0705 36070000 		.4byte	.LASF157
 2694 0709 01       		.byte	0x1
 2695 070a 3A01     		.2byte	0x13a
 2696 070c FB000000 		.4byte	0xfb
 2697 0710 02       		.uleb128 0x2
 2698 0711 91       		.byte	0x91
 2699 0712 76       		.sleb128 -10
 2700 0713 00       		.byte	0
ARM GAS  C:\Users\d4hhm\AppData\Local\Temp\cchY4aQw.s 			page 55


 2701 0714 13       		.uleb128 0x13
 2702 0715 EF000000 		.4byte	0xef
 2703 0719 24070000 		.4byte	0x724
 2704 071d 14       		.uleb128 0x14
 2705 071e 23010000 		.4byte	0x123
 2706 0722 01       		.byte	0x1
 2707 0723 00       		.byte	0
 2708 0724 15       		.uleb128 0x15
 2709 0725 33030000 		.4byte	.LASF166
 2710 0729 01       		.byte	0x1
 2711 072a 22       		.byte	0x22
 2712 072b A4040000 		.4byte	0x4a4
 2713 072f 05       		.uleb128 0x5
 2714 0730 03       		.byte	0x3
 2715 0731 00000000 		.4byte	bme280
 2716 0735 00       		.byte	0
 2717              		.section	.debug_abbrev,"",%progbits
 2718              	.Ldebug_abbrev0:
 2719 0000 01       		.uleb128 0x1
 2720 0001 11       		.uleb128 0x11
 2721 0002 01       		.byte	0x1
 2722 0003 25       		.uleb128 0x25
 2723 0004 0E       		.uleb128 0xe
 2724 0005 13       		.uleb128 0x13
 2725 0006 0B       		.uleb128 0xb
 2726 0007 03       		.uleb128 0x3
 2727 0008 0E       		.uleb128 0xe
 2728 0009 1B       		.uleb128 0x1b
 2729 000a 0E       		.uleb128 0xe
 2730 000b 55       		.uleb128 0x55
 2731 000c 17       		.uleb128 0x17
 2732 000d 11       		.uleb128 0x11
 2733 000e 01       		.uleb128 0x1
 2734 000f 10       		.uleb128 0x10
 2735 0010 17       		.uleb128 0x17
 2736 0011 00       		.byte	0
 2737 0012 00       		.byte	0
 2738 0013 02       		.uleb128 0x2
 2739 0014 24       		.uleb128 0x24
 2740 0015 00       		.byte	0
 2741 0016 0B       		.uleb128 0xb
 2742 0017 0B       		.uleb128 0xb
 2743 0018 3E       		.uleb128 0x3e
 2744 0019 0B       		.uleb128 0xb
 2745 001a 03       		.uleb128 0x3
 2746 001b 0E       		.uleb128 0xe
 2747 001c 00       		.byte	0
 2748 001d 00       		.byte	0
 2749 001e 03       		.uleb128 0x3
 2750 001f 16       		.uleb128 0x16
 2751 0020 00       		.byte	0
 2752 0021 03       		.uleb128 0x3
 2753 0022 0E       		.uleb128 0xe
 2754 0023 3A       		.uleb128 0x3a
 2755 0024 0B       		.uleb128 0xb
 2756 0025 3B       		.uleb128 0x3b
 2757 0026 0B       		.uleb128 0xb
ARM GAS  C:\Users\d4hhm\AppData\Local\Temp\cchY4aQw.s 			page 56


 2758 0027 49       		.uleb128 0x49
 2759 0028 13       		.uleb128 0x13
 2760 0029 00       		.byte	0
 2761 002a 00       		.byte	0
 2762 002b 04       		.uleb128 0x4
 2763 002c 24       		.uleb128 0x24
 2764 002d 00       		.byte	0
 2765 002e 0B       		.uleb128 0xb
 2766 002f 0B       		.uleb128 0xb
 2767 0030 3E       		.uleb128 0x3e
 2768 0031 0B       		.uleb128 0xb
 2769 0032 03       		.uleb128 0x3
 2770 0033 08       		.uleb128 0x8
 2771 0034 00       		.byte	0
 2772 0035 00       		.byte	0
 2773 0036 05       		.uleb128 0x5
 2774 0037 16       		.uleb128 0x16
 2775 0038 00       		.byte	0
 2776 0039 03       		.uleb128 0x3
 2777 003a 0E       		.uleb128 0xe
 2778 003b 3A       		.uleb128 0x3a
 2779 003c 0B       		.uleb128 0xb
 2780 003d 3B       		.uleb128 0x3b
 2781 003e 05       		.uleb128 0x5
 2782 003f 49       		.uleb128 0x49
 2783 0040 13       		.uleb128 0x13
 2784 0041 00       		.byte	0
 2785 0042 00       		.byte	0
 2786 0043 06       		.uleb128 0x6
 2787 0044 04       		.uleb128 0x4
 2788 0045 01       		.byte	0x1
 2789 0046 0B       		.uleb128 0xb
 2790 0047 0B       		.uleb128 0xb
 2791 0048 49       		.uleb128 0x49
 2792 0049 13       		.uleb128 0x13
 2793 004a 3A       		.uleb128 0x3a
 2794 004b 0B       		.uleb128 0xb
 2795 004c 3B       		.uleb128 0x3b
 2796 004d 05       		.uleb128 0x5
 2797 004e 01       		.uleb128 0x1
 2798 004f 13       		.uleb128 0x13
 2799 0050 00       		.byte	0
 2800 0051 00       		.byte	0
 2801 0052 07       		.uleb128 0x7
 2802 0053 28       		.uleb128 0x28
 2803 0054 00       		.byte	0
 2804 0055 03       		.uleb128 0x3
 2805 0056 0E       		.uleb128 0xe
 2806 0057 1C       		.uleb128 0x1c
 2807 0058 0B       		.uleb128 0xb
 2808 0059 00       		.byte	0
 2809 005a 00       		.byte	0
 2810 005b 08       		.uleb128 0x8
 2811 005c 13       		.uleb128 0x13
 2812 005d 01       		.byte	0x1
 2813 005e 0B       		.uleb128 0xb
 2814 005f 0B       		.uleb128 0xb
ARM GAS  C:\Users\d4hhm\AppData\Local\Temp\cchY4aQw.s 			page 57


 2815 0060 3A       		.uleb128 0x3a
 2816 0061 0B       		.uleb128 0xb
 2817 0062 3B       		.uleb128 0x3b
 2818 0063 0B       		.uleb128 0xb
 2819 0064 01       		.uleb128 0x1
 2820 0065 13       		.uleb128 0x13
 2821 0066 00       		.byte	0
 2822 0067 00       		.byte	0
 2823 0068 09       		.uleb128 0x9
 2824 0069 0D       		.uleb128 0xd
 2825 006a 00       		.byte	0
 2826 006b 03       		.uleb128 0x3
 2827 006c 0E       		.uleb128 0xe
 2828 006d 3A       		.uleb128 0x3a
 2829 006e 0B       		.uleb128 0xb
 2830 006f 3B       		.uleb128 0x3b
 2831 0070 0B       		.uleb128 0xb
 2832 0071 49       		.uleb128 0x49
 2833 0072 13       		.uleb128 0x13
 2834 0073 38       		.uleb128 0x38
 2835 0074 0B       		.uleb128 0xb
 2836 0075 00       		.byte	0
 2837 0076 00       		.byte	0
 2838 0077 0A       		.uleb128 0xa
 2839 0078 0D       		.uleb128 0xd
 2840 0079 00       		.byte	0
 2841 007a 03       		.uleb128 0x3
 2842 007b 08       		.uleb128 0x8
 2843 007c 3A       		.uleb128 0x3a
 2844 007d 0B       		.uleb128 0xb
 2845 007e 3B       		.uleb128 0x3b
 2846 007f 0B       		.uleb128 0xb
 2847 0080 49       		.uleb128 0x49
 2848 0081 13       		.uleb128 0x13
 2849 0082 38       		.uleb128 0x38
 2850 0083 0B       		.uleb128 0xb
 2851 0084 00       		.byte	0
 2852 0085 00       		.byte	0
 2853 0086 0B       		.uleb128 0xb
 2854 0087 2E       		.uleb128 0x2e
 2855 0088 00       		.byte	0
 2856 0089 3F       		.uleb128 0x3f
 2857 008a 19       		.uleb128 0x19
 2858 008b 03       		.uleb128 0x3
 2859 008c 0E       		.uleb128 0xe
 2860 008d 3A       		.uleb128 0x3a
 2861 008e 0B       		.uleb128 0xb
 2862 008f 3B       		.uleb128 0x3b
 2863 0090 0B       		.uleb128 0xb
 2864 0091 11       		.uleb128 0x11
 2865 0092 01       		.uleb128 0x1
 2866 0093 12       		.uleb128 0x12
 2867 0094 06       		.uleb128 0x6
 2868 0095 40       		.uleb128 0x40
 2869 0096 18       		.uleb128 0x18
 2870 0097 9642     		.uleb128 0x2116
 2871 0099 19       		.uleb128 0x19
ARM GAS  C:\Users\d4hhm\AppData\Local\Temp\cchY4aQw.s 			page 58


 2872 009a 00       		.byte	0
 2873 009b 00       		.byte	0
 2874 009c 0C       		.uleb128 0xc
 2875 009d 2E       		.uleb128 0x2e
 2876 009e 01       		.byte	0x1
 2877 009f 3F       		.uleb128 0x3f
 2878 00a0 19       		.uleb128 0x19
 2879 00a1 03       		.uleb128 0x3
 2880 00a2 0E       		.uleb128 0xe
 2881 00a3 3A       		.uleb128 0x3a
 2882 00a4 0B       		.uleb128 0xb
 2883 00a5 3B       		.uleb128 0x3b
 2884 00a6 0B       		.uleb128 0xb
 2885 00a7 49       		.uleb128 0x49
 2886 00a8 13       		.uleb128 0x13
 2887 00a9 11       		.uleb128 0x11
 2888 00aa 01       		.uleb128 0x1
 2889 00ab 12       		.uleb128 0x12
 2890 00ac 06       		.uleb128 0x6
 2891 00ad 40       		.uleb128 0x40
 2892 00ae 18       		.uleb128 0x18
 2893 00af 9642     		.uleb128 0x2116
 2894 00b1 19       		.uleb128 0x19
 2895 00b2 01       		.uleb128 0x1
 2896 00b3 13       		.uleb128 0x13
 2897 00b4 00       		.byte	0
 2898 00b5 00       		.byte	0
 2899 00b6 0D       		.uleb128 0xd
 2900 00b7 34       		.uleb128 0x34
 2901 00b8 00       		.byte	0
 2902 00b9 03       		.uleb128 0x3
 2903 00ba 0E       		.uleb128 0xe
 2904 00bb 3A       		.uleb128 0x3a
 2905 00bc 0B       		.uleb128 0xb
 2906 00bd 3B       		.uleb128 0x3b
 2907 00be 0B       		.uleb128 0xb
 2908 00bf 49       		.uleb128 0x49
 2909 00c0 13       		.uleb128 0x13
 2910 00c1 02       		.uleb128 0x2
 2911 00c2 18       		.uleb128 0x18
 2912 00c3 00       		.byte	0
 2913 00c4 00       		.byte	0
 2914 00c5 0E       		.uleb128 0xe
 2915 00c6 2E       		.uleb128 0x2e
 2916 00c7 01       		.byte	0x1
 2917 00c8 3F       		.uleb128 0x3f
 2918 00c9 19       		.uleb128 0x19
 2919 00ca 03       		.uleb128 0x3
 2920 00cb 0E       		.uleb128 0xe
 2921 00cc 3A       		.uleb128 0x3a
 2922 00cd 0B       		.uleb128 0xb
 2923 00ce 3B       		.uleb128 0x3b
 2924 00cf 0B       		.uleb128 0xb
 2925 00d0 27       		.uleb128 0x27
 2926 00d1 19       		.uleb128 0x19
 2927 00d2 49       		.uleb128 0x49
 2928 00d3 13       		.uleb128 0x13
ARM GAS  C:\Users\d4hhm\AppData\Local\Temp\cchY4aQw.s 			page 59


 2929 00d4 11       		.uleb128 0x11
 2930 00d5 01       		.uleb128 0x1
 2931 00d6 12       		.uleb128 0x12
 2932 00d7 06       		.uleb128 0x6
 2933 00d8 40       		.uleb128 0x40
 2934 00d9 18       		.uleb128 0x18
 2935 00da 9642     		.uleb128 0x2116
 2936 00dc 19       		.uleb128 0x19
 2937 00dd 01       		.uleb128 0x1
 2938 00de 13       		.uleb128 0x13
 2939 00df 00       		.byte	0
 2940 00e0 00       		.byte	0
 2941 00e1 0F       		.uleb128 0xf
 2942 00e2 2E       		.uleb128 0x2e
 2943 00e3 01       		.byte	0x1
 2944 00e4 3F       		.uleb128 0x3f
 2945 00e5 19       		.uleb128 0x19
 2946 00e6 03       		.uleb128 0x3
 2947 00e7 0E       		.uleb128 0xe
 2948 00e8 3A       		.uleb128 0x3a
 2949 00e9 0B       		.uleb128 0xb
 2950 00ea 3B       		.uleb128 0x3b
 2951 00eb 05       		.uleb128 0x5
 2952 00ec 27       		.uleb128 0x27
 2953 00ed 19       		.uleb128 0x19
 2954 00ee 49       		.uleb128 0x49
 2955 00ef 13       		.uleb128 0x13
 2956 00f0 11       		.uleb128 0x11
 2957 00f1 01       		.uleb128 0x1
 2958 00f2 12       		.uleb128 0x12
 2959 00f3 06       		.uleb128 0x6
 2960 00f4 40       		.uleb128 0x40
 2961 00f5 18       		.uleb128 0x18
 2962 00f6 9642     		.uleb128 0x2116
 2963 00f8 19       		.uleb128 0x19
 2964 00f9 01       		.uleb128 0x1
 2965 00fa 13       		.uleb128 0x13
 2966 00fb 00       		.byte	0
 2967 00fc 00       		.byte	0
 2968 00fd 10       		.uleb128 0x10
 2969 00fe 05       		.uleb128 0x5
 2970 00ff 00       		.byte	0
 2971 0100 03       		.uleb128 0x3
 2972 0101 0E       		.uleb128 0xe
 2973 0102 3A       		.uleb128 0x3a
 2974 0103 0B       		.uleb128 0xb
 2975 0104 3B       		.uleb128 0x3b
 2976 0105 05       		.uleb128 0x5
 2977 0106 49       		.uleb128 0x49
 2978 0107 13       		.uleb128 0x13
 2979 0108 02       		.uleb128 0x2
 2980 0109 18       		.uleb128 0x18
 2981 010a 00       		.byte	0
 2982 010b 00       		.byte	0
 2983 010c 11       		.uleb128 0x11
 2984 010d 34       		.uleb128 0x34
 2985 010e 00       		.byte	0
ARM GAS  C:\Users\d4hhm\AppData\Local\Temp\cchY4aQw.s 			page 60


 2986 010f 03       		.uleb128 0x3
 2987 0110 0E       		.uleb128 0xe
 2988 0111 3A       		.uleb128 0x3a
 2989 0112 0B       		.uleb128 0xb
 2990 0113 3B       		.uleb128 0x3b
 2991 0114 05       		.uleb128 0x5
 2992 0115 49       		.uleb128 0x49
 2993 0116 13       		.uleb128 0x13
 2994 0117 02       		.uleb128 0x2
 2995 0118 18       		.uleb128 0x18
 2996 0119 00       		.byte	0
 2997 011a 00       		.byte	0
 2998 011b 12       		.uleb128 0x12
 2999 011c 2E       		.uleb128 0x2e
 3000 011d 01       		.byte	0x1
 3001 011e 3F       		.uleb128 0x3f
 3002 011f 19       		.uleb128 0x19
 3003 0120 03       		.uleb128 0x3
 3004 0121 0E       		.uleb128 0xe
 3005 0122 3A       		.uleb128 0x3a
 3006 0123 0B       		.uleb128 0xb
 3007 0124 3B       		.uleb128 0x3b
 3008 0125 05       		.uleb128 0x5
 3009 0126 27       		.uleb128 0x27
 3010 0127 19       		.uleb128 0x19
 3011 0128 11       		.uleb128 0x11
 3012 0129 01       		.uleb128 0x1
 3013 012a 12       		.uleb128 0x12
 3014 012b 06       		.uleb128 0x6
 3015 012c 40       		.uleb128 0x40
 3016 012d 18       		.uleb128 0x18
 3017 012e 9642     		.uleb128 0x2116
 3018 0130 19       		.uleb128 0x19
 3019 0131 01       		.uleb128 0x1
 3020 0132 13       		.uleb128 0x13
 3021 0133 00       		.byte	0
 3022 0134 00       		.byte	0
 3023 0135 13       		.uleb128 0x13
 3024 0136 01       		.uleb128 0x1
 3025 0137 01       		.byte	0x1
 3026 0138 49       		.uleb128 0x49
 3027 0139 13       		.uleb128 0x13
 3028 013a 01       		.uleb128 0x1
 3029 013b 13       		.uleb128 0x13
 3030 013c 00       		.byte	0
 3031 013d 00       		.byte	0
 3032 013e 14       		.uleb128 0x14
 3033 013f 21       		.uleb128 0x21
 3034 0140 00       		.byte	0
 3035 0141 49       		.uleb128 0x49
 3036 0142 13       		.uleb128 0x13
 3037 0143 2F       		.uleb128 0x2f
 3038 0144 0B       		.uleb128 0xb
 3039 0145 00       		.byte	0
 3040 0146 00       		.byte	0
 3041 0147 15       		.uleb128 0x15
 3042 0148 34       		.uleb128 0x34
ARM GAS  C:\Users\d4hhm\AppData\Local\Temp\cchY4aQw.s 			page 61


 3043 0149 00       		.byte	0
 3044 014a 03       		.uleb128 0x3
 3045 014b 0E       		.uleb128 0xe
 3046 014c 3A       		.uleb128 0x3a
 3047 014d 0B       		.uleb128 0xb
 3048 014e 3B       		.uleb128 0x3b
 3049 014f 0B       		.uleb128 0xb
 3050 0150 49       		.uleb128 0x49
 3051 0151 13       		.uleb128 0x13
 3052 0152 3F       		.uleb128 0x3f
 3053 0153 19       		.uleb128 0x19
 3054 0154 02       		.uleb128 0x2
 3055 0155 18       		.uleb128 0x18
 3056 0156 00       		.byte	0
 3057 0157 00       		.byte	0
 3058 0158 00       		.byte	0
 3059              		.section	.debug_aranges,"",%progbits
 3060 0000 74000000 		.4byte	0x74
 3061 0004 0200     		.2byte	0x2
 3062 0006 00000000 		.4byte	.Ldebug_info0
 3063 000a 04       		.byte	0x4
 3064 000b 00       		.byte	0
 3065 000c 0000     		.2byte	0
 3066 000e 0000     		.2byte	0
 3067 0010 00000000 		.4byte	.LFB35
 3068 0014 0E000000 		.4byte	.LFE35-.LFB35
 3069 0018 00000000 		.4byte	.LFB36
 3070 001c 0E000000 		.4byte	.LFE36-.LFB36
 3071 0020 00000000 		.4byte	.LFB37
 3072 0024 00030000 		.4byte	.LFE37-.LFB37
 3073 0028 00000000 		.4byte	.LFB38
 3074 002c 12000000 		.4byte	.LFE38-.LFB38
 3075 0030 00000000 		.4byte	.LFB39
 3076 0034 D4030000 		.4byte	.LFE39-.LFB39
 3077 0038 00000000 		.4byte	.LFB40
 3078 003c 74000000 		.4byte	.LFE40-.LFB40
 3079 0040 00000000 		.4byte	.LFB41
 3080 0044 40000000 		.4byte	.LFE41-.LFB41
 3081 0048 00000000 		.4byte	.LFB42
 3082 004c FC000000 		.4byte	.LFE42-.LFB42
 3083 0050 00000000 		.4byte	.LFB43
 3084 0054 C0000000 		.4byte	.LFE43-.LFB43
 3085 0058 00000000 		.4byte	.LFB44
 3086 005c 44000000 		.4byte	.LFE44-.LFB44
 3087 0060 00000000 		.4byte	.LFB45
 3088 0064 D0000000 		.4byte	.LFE45-.LFB45
 3089 0068 00000000 		.4byte	.LFB46
 3090 006c 90000000 		.4byte	.LFE46-.LFB46
 3091 0070 00000000 		.4byte	0
 3092 0074 00000000 		.4byte	0
 3093              		.section	.debug_ranges,"",%progbits
 3094              	.Ldebug_ranges0:
 3095 0000 00000000 		.4byte	.LFB35
 3096 0004 0E000000 		.4byte	.LFE35
 3097 0008 00000000 		.4byte	.LFB36
 3098 000c 0E000000 		.4byte	.LFE36
 3099 0010 00000000 		.4byte	.LFB37
ARM GAS  C:\Users\d4hhm\AppData\Local\Temp\cchY4aQw.s 			page 62


 3100 0014 00030000 		.4byte	.LFE37
 3101 0018 00000000 		.4byte	.LFB38
 3102 001c 12000000 		.4byte	.LFE38
 3103 0020 00000000 		.4byte	.LFB39
 3104 0024 D4030000 		.4byte	.LFE39
 3105 0028 00000000 		.4byte	.LFB40
 3106 002c 74000000 		.4byte	.LFE40
 3107 0030 00000000 		.4byte	.LFB41
 3108 0034 40000000 		.4byte	.LFE41
 3109 0038 00000000 		.4byte	.LFB42
 3110 003c FC000000 		.4byte	.LFE42
 3111 0040 00000000 		.4byte	.LFB43
 3112 0044 C0000000 		.4byte	.LFE43
 3113 0048 00000000 		.4byte	.LFB44
 3114 004c 44000000 		.4byte	.LFE44
 3115 0050 00000000 		.4byte	.LFB45
 3116 0054 D0000000 		.4byte	.LFE45
 3117 0058 00000000 		.4byte	.LFB46
 3118 005c 90000000 		.4byte	.LFE46
 3119 0060 00000000 		.4byte	0
 3120 0064 00000000 		.4byte	0
 3121              		.section	.debug_line,"",%progbits
 3122              	.Ldebug_line0:
 3123 0000 F4020000 		.section	.debug_str,"MS",%progbits,1
 3123      02005D01 
 3123      00000201 
 3123      FB0E0D00 
 3123      01010101 
 3124              	.LASF92:
 3125 0000 4359424C 		.ascii	"CYBLE_EVT_L2CAP_CBFC_RX_CREDIT_IND\000"
 3125      455F4556 
 3125      545F4C32 
 3125      4341505F 
 3125      43424643 
 3126              	.LASF33:
 3127 0023 4359424C 		.ascii	"CYBLE_EVT_STACK_BUSY_STATUS\000"
 3127      455F4556 
 3127      545F5354 
 3127      41434B5F 
 3127      42555359 
 3128              	.LASF103:
 3129 003f 72756E4D 		.ascii	"runMode\000"
 3129      6F646500 
 3130              	.LASF22:
 3131 0047 75696E74 		.ascii	"uint16\000"
 3131      313600
 3132              	.LASF68:
 3133 004e 4359424C 		.ascii	"CYBLE_EVT_GATTC_READ_RSP\000"
 3133      455F4556 
 3133      545F4741 
 3133      5454435F 
 3133      52454144 
 3134              	.LASF91:
 3135 0067 4359424C 		.ascii	"CYBLE_EVT_L2CAP_CBFC_DATA_READ\000"
 3135      455F4556 
 3135      545F4C32 
 3135      4341505F 
ARM GAS  C:\Users\d4hhm\AppData\Local\Temp\cchY4aQw.s 			page 63


 3135      43424643 
 3136              	.LASF130:
 3137 0086 63616C69 		.ascii	"calibration\000"
 3137      62726174 
 3137      696F6E00 
 3138              	.LASF108:
 3139 0092 68756D69 		.ascii	"humidOverSample\000"
 3139      644F7665 
 3139      7253616D 
 3139      706C6500 
 3140              	.LASF45:
 3141 00a2 4359424C 		.ascii	"CYBLE_EVT_GAP_CONNECTION_UPDATE_COMPLETE\000"
 3141      455F4556 
 3141      545F4741 
 3141      505F434F 
 3141      4E4E4543 
 3142              	.LASF90:
 3143 00cb 4359424C 		.ascii	"CYBLE_EVT_L2CAP_CBFC_DISCONN_CNF\000"
 3143      455F4556 
 3143      545F4C32 
 3143      4341505F 
 3143      43424643 
 3144              	.LASF50:
 3145 00ec 4359424C 		.ascii	"CYBLE_EVT_GAP_OOB_GENERATED_NOTIFICATION\000"
 3145      455F4556 
 3145      545F4741 
 3145      505F4F4F 
 3145      425F4745 
 3146              	.LASF70:
 3147 0115 4359424C 		.ascii	"CYBLE_EVT_GATTC_READ_MULTI_RSP\000"
 3147      455F4556 
 3147      545F4741 
 3147      5454435F 
 3147      52454144 
 3148              	.LASF2:
 3149 0134 5F5F7569 		.ascii	"__uint8_t\000"
 3149      6E74385F 
 3149      7400
 3150              	.LASF107:
 3151 013e 70726573 		.ascii	"pressOverSample\000"
 3151      734F7665 
 3151      7253616D 
 3151      706C6500 
 3152              	.LASF133:
 3153 014e 70726573 		.ascii	"press_Pa\000"
 3153      735F5061 
 3153      00
 3154              	.LASF143:
 3155 0157 705F6163 		.ascii	"p_acc\000"
 3155      6300
 3156              	.LASF30:
 3157 015d 4359424C 		.ascii	"CYBLE_EVT_TIMEOUT\000"
 3157      455F4556 
 3157      545F5449 
 3157      4D454F55 
 3157      5400
 3158              	.LASF8:
ARM GAS  C:\Users\d4hhm\AppData\Local\Temp\cchY4aQw.s 			page 64


 3159 016f 6C6F6E67 		.ascii	"long int\000"
 3159      20696E74 
 3159      00
 3160              	.LASF13:
 3161 0178 6C6F6E67 		.ascii	"long long unsigned int\000"
 3161      206C6F6E 
 3161      6720756E 
 3161      7369676E 
 3161      65642069 
 3162              	.LASF32:
 3163 018f 4359424C 		.ascii	"CYBLE_EVT_HCI_STATUS\000"
 3163      455F4556 
 3163      545F4843 
 3163      495F5354 
 3163      41545553 
 3164              	.LASF161:
 3165 01a4 64617461 		.ascii	"data\000"
 3165      00
 3166              	.LASF46:
 3167 01a9 4359424C 		.ascii	"CYBLE_EVT_GAPC_SCAN_START_STOP\000"
 3167      455F4556 
 3167      545F4741 
 3167      50435F53 
 3167      43414E5F 
 3168              	.LASF95:
 3169 01c8 4359424C 		.ascii	"CYBLE_EVT_PENDING_FLASH_WRITE\000"
 3169      455F4556 
 3169      545F5045 
 3169      4E44494E 
 3169      475F464C 
 3170              	.LASF84:
 3171 01e6 4359424C 		.ascii	"CYBLE_EVT_L2CAP_CONN_PARAM_UPDATE_REQ\000"
 3171      455F4556 
 3171      545F4C32 
 3171      4341505F 
 3171      434F4E4E 
 3172              	.LASF132:
 3173 020c 74656D70 		.ascii	"temp_C\000"
 3173      5F4300
 3174              	.LASF44:
 3175 0213 4359424C 		.ascii	"CYBLE_EVT_GAP_ENCRYPT_CHANGE\000"
 3175      455F4556 
 3175      545F4741 
 3175      505F454E 
 3175      43525950 
 3176              	.LASF48:
 3177 0230 4359424C 		.ascii	"CYBLE_EVT_GAP_NUMERIC_COMPARISON_REQUEST\000"
 3177      455F4556 
 3177      545F4741 
 3177      505F4E55 
 3177      4D455249 
 3178              	.LASF16:
 3179 0259 696E7431 		.ascii	"int16_t\000"
 3179      365F7400 
 3180              	.LASF12:
 3181 0261 6C6F6E67 		.ascii	"long long int\000"
 3181      206C6F6E 
ARM GAS  C:\Users\d4hhm\AppData\Local\Temp\cchY4aQw.s 			page 65


 3181      6720696E 
 3181      7400
 3182              	.LASF0:
 3183 026f 7369676E 		.ascii	"signed char\000"
 3183      65642063 
 3183      68617200 
 3184              	.LASF149:
 3185 027b 6164635F 		.ascii	"adc_H\000"
 3185      4800
 3186              	.LASF11:
 3187 0281 5F5F696E 		.ascii	"__int64_t\000"
 3187      7436345F 
 3187      7400
 3188              	.LASF140:
 3189 028b 6164635F 		.ascii	"adc_P\000"
 3189      5000
 3190              	.LASF36:
 3191 0291 4359424C 		.ascii	"CYBLE_EVT_GAP_AUTH_REQ\000"
 3191      455F4556 
 3191      545F4741 
 3191      505F4155 
 3191      54485F52 
 3192              	.LASF151:
 3193 02a8 6164635F 		.ascii	"adc_T\000"
 3193      5400
 3194              	.LASF154:
 3195 02ae 424D4532 		.ascii	"BME280_readRegister\000"
 3195      38305F72 
 3195      65616452 
 3195      65676973 
 3195      74657200 
 3196              	.LASF20:
 3197 02c2 696E7436 		.ascii	"int64_t\000"
 3197      345F7400 
 3198              	.LASF101:
 3199 02ca 49324341 		.ascii	"I2CAddress\000"
 3199      64647265 
 3199      737300
 3200              	.LASF73:
 3201 02d5 4359424C 		.ascii	"CYBLE_EVT_GATTS_WRITE_CMD_REQ\000"
 3201      455F4556 
 3201      545F4741 
 3201      5454535F 
 3201      57524954 
 3202              	.LASF128:
 3203 02f3 53656E73 		.ascii	"SensorCalibration\000"
 3203      6F724361 
 3203      6C696272 
 3203      6174696F 
 3203      6E00
 3204              	.LASF41:
 3205 0305 4359424C 		.ascii	"CYBLE_EVT_GAPP_ADVERTISEMENT_START_STOP\000"
 3205      455F4556 
 3205      545F4741 
 3205      50505F41 
 3205      44564552 
 3206              	.LASF21:
ARM GAS  C:\Users\d4hhm\AppData\Local\Temp\cchY4aQw.s 			page 66


 3207 032d 75696E74 		.ascii	"uint8\000"
 3207      3800
 3208              	.LASF166:
 3209 0333 626D6532 		.ascii	"bme280\000"
 3209      383000
 3210              	.LASF76:
 3211 033a 4359424C 		.ascii	"CYBLE_EVT_GATTC_EXEC_WRITE_RSP\000"
 3211      455F4556 
 3211      545F4741 
 3211      5454435F 
 3211      45584543 
 3212              	.LASF24:
 3213 0359 646F7562 		.ascii	"double\000"
 3213      6C6500
 3214              	.LASF164:
 3215 0360 424D4532 		.ascii	"BME280.c\000"
 3215      38302E63 
 3215      00
 3216              	.LASF114:
 3217 0369 6469675F 		.ascii	"dig_P2\000"
 3217      503200
 3218              	.LASF150:
 3219 0370 424D4532 		.ascii	"BME280_readTempC\000"
 3219      38305F72 
 3219      65616454 
 3219      656D7043 
 3219      00
 3220              	.LASF153:
 3221 0381 424D4532 		.ascii	"BME280_readTempF\000"
 3221      38305F72 
 3221      65616454 
 3221      656D7046 
 3221      00
 3222              	.LASF99:
 3223 0392 4359424C 		.ascii	"CYBLE_EVT_MAX\000"
 3223      455F4556 
 3223      545F4D41 
 3223      5800
 3224              	.LASF9:
 3225 03a0 5F5F7569 		.ascii	"__uint32_t\000"
 3225      6E743332 
 3225      5F7400
 3226              	.LASF110:
 3227 03ab 6469675F 		.ascii	"dig_T1\000"
 3227      543100
 3228              	.LASF131:
 3229 03b2 745F6669 		.ascii	"t_fine\000"
 3229      6E6500
 3230              	.LASF112:
 3231 03b9 6469675F 		.ascii	"dig_T3\000"
 3231      543300
 3232              	.LASF3:
 3233 03c0 5F5F696E 		.ascii	"__int16_t\000"
 3233      7431365F 
 3233      7400
 3234              	.LASF94:
 3235 03ca 4359424C 		.ascii	"CYBLE_EVT_L2CAP_CBFC_DATA_WRITE_IND\000"
ARM GAS  C:\Users\d4hhm\AppData\Local\Temp\cchY4aQw.s 			page 67


 3235      455F4556 
 3235      545F4C32 
 3235      4341505F 
 3235      43424643 
 3236              	.LASF109:
 3237 03ee 53656E73 		.ascii	"SensorSettings\000"
 3237      6F725365 
 3237      7474696E 
 3237      677300
 3238              	.LASF111:
 3239 03fd 6469675F 		.ascii	"dig_T2\000"
 3239      543200
 3240              	.LASF56:
 3241 0404 4359424C 		.ascii	"CYBLE_EVT_GAP_SCAN_REQ_RECVD\000"
 3241      455F4556 
 3241      545F4741 
 3241      505F5343 
 3241      414E5F52 
 3242              	.LASF165:
 3243 0421 433A5C55 		.ascii	"C:\\Users\\d4hhm\\Documents\\Care-support-system\\P"
 3243      73657273 
 3243      5C643468 
 3243      686D5C44 
 3243      6F63756D 
 3244 044f 65726970 		.ascii	"eripheral\\Care_support_system_peripheral.cydsn\000"
 3244      68657261 
 3244      6C5C4361 
 3244      72655F73 
 3244      7570706F 
 3245              	.LASF81:
 3246 047e 4359424C 		.ascii	"CYBLE_EVT_GATTC_STOP_CMD_COMPLETE\000"
 3246      455F4556 
 3246      545F4741 
 3246      5454435F 
 3246      53544F50 
 3247              	.LASF14:
 3248 04a0 756E7369 		.ascii	"unsigned int\000"
 3248      676E6564 
 3248      20696E74 
 3248      00
 3249              	.LASF156:
 3250 04ad 6E756D42 		.ascii	"numBytes\000"
 3250      79746573 
 3250      00
 3251              	.LASF96:
 3252 04b6 4359424C 		.ascii	"CYBLE_EVT_LE_PING_AUTH_TIMEOUT\000"
 3252      455F4556 
 3252      545F4C45 
 3252      5F50494E 
 3252      475F4155 
 3253              	.LASF17:
 3254 04d5 75696E74 		.ascii	"uint16_t\000"
 3254      31365F74 
 3254      00
 3255              	.LASF141:
 3256 04de 76617231 		.ascii	"var1\000"
 3256      00
ARM GAS  C:\Users\d4hhm\AppData\Local\Temp\cchY4aQw.s 			page 68


 3257              	.LASF142:
 3258 04e3 76617232 		.ascii	"var2\000"
 3258      00
 3259              	.LASF152:
 3260 04e8 6F757470 		.ascii	"output\000"
 3260      757400
 3261              	.LASF55:
 3262 04ef 4359424C 		.ascii	"CYBLE_EVT_GAP_CONN_ESTB\000"
 3262      455F4556 
 3262      545F4741 
 3262      505F434F 
 3262      4E4E5F45 
 3263              	.LASF71:
 3264 0507 4359424C 		.ascii	"CYBLE_EVT_GATTS_WRITE_REQ\000"
 3264      455F4556 
 3264      545F4741 
 3264      5454535F 
 3264      57524954 
 3265              	.LASF63:
 3266 0521 4359424C 		.ascii	"CYBLE_EVT_GATTC_XCHNG_MTU_RSP\000"
 3266      455F4556 
 3266      545F4741 
 3266      5454435F 
 3266      5843484E 
 3267              	.LASF80:
 3268 053f 4359424C 		.ascii	"CYBLE_EVT_GATTS_DATA_SIGNED_CMD_REQ\000"
 3268      455F4556 
 3268      545F4741 
 3268      5454535F 
 3268      44415441 
 3269              	.LASF137:
 3270 0563 64617461 		.ascii	"data_to_write\000"
 3270      5F746F5F 
 3270      77726974 
 3270      6500
 3271              	.LASF83:
 3272 0571 4359424C 		.ascii	"CYBLE_EVT_GATTC_LONG_PROCEDURE_END\000"
 3272      455F4556 
 3272      545F4741 
 3272      5454435F 
 3272      4C4F4E47 
 3273              	.LASF104:
 3274 0594 74537461 		.ascii	"tStandby\000"
 3274      6E646279 
 3274      00
 3275              	.LASF136:
 3276 059d 424D4532 		.ascii	"BME280_stop\000"
 3276      38305F73 
 3276      746F7000 
 3277              	.LASF6:
 3278 05a9 73686F72 		.ascii	"short unsigned int\000"
 3278      7420756E 
 3278      7369676E 
 3278      65642069 
 3278      6E7400
 3279              	.LASF28:
 3280 05bc 4359424C 		.ascii	"CYBLE_EVT_HOST_INVALID\000"
ARM GAS  C:\Users\d4hhm\AppData\Local\Temp\cchY4aQw.s 			page 69


 3280      455F4556 
 3280      545F484F 
 3280      53545F49 
 3280      4E56414C 
 3281              	.LASF66:
 3282 05d3 4359424C 		.ascii	"CYBLE_EVT_GATTC_FIND_INFO_RSP\000"
 3282      455F4556 
 3282      545F4741 
 3282      5454435F 
 3282      46494E44 
 3283              	.LASF34:
 3284 05f1 4359424C 		.ascii	"CYBLE_EVT_MEMORY_REQUEST\000"
 3284      455F4556 
 3284      545F4D45 
 3284      4D4F5259 
 3284      5F524551 
 3285              	.LASF75:
 3286 060a 4359424C 		.ascii	"CYBLE_EVT_GATTS_EXEC_WRITE_REQ\000"
 3286      455F4556 
 3286      545F4741 
 3286      5454535F 
 3286      45584543 
 3287              	.LASF37:
 3288 0629 4359424C 		.ascii	"CYBLE_EVT_GAP_PASSKEY_ENTRY_REQUEST\000"
 3288      455F4556 
 3288      545F4741 
 3288      505F5041 
 3288      53534B45 
 3289              	.LASF42:
 3290 064d 4359424C 		.ascii	"CYBLE_EVT_GAP_DEVICE_CONNECTED\000"
 3290      455F4556 
 3290      545F4741 
 3290      505F4445 
 3290      56494345 
 3291              	.LASF57:
 3292 066c 4359424C 		.ascii	"CYBLE_EVT_GAP_AUTH_REQ_REPLY_ERR\000"
 3292      455F4556 
 3292      545F4741 
 3292      505F4155 
 3292      54485F52 
 3293              	.LASF163:
 3294 068d 474E5520 		.ascii	"GNU C11 5.4.1 20160609 (release) [ARM/embedded-5-br"
 3294      43313120 
 3294      352E342E 
 3294      31203230 
 3294      31363036 
 3295 06c0 616E6368 		.ascii	"anch revision 237715] -mcpu=cortex-m0 -mthumb -g -O"
 3295      20726576 
 3295      6973696F 
 3295      6E203233 
 3295      37373135 
 3296 06f3 30202D66 		.ascii	"0 -ffunction-sections -ffat-lto-objects\000"
 3296      66756E63 
 3296      74696F6E 
 3296      2D736563 
 3296      74696F6E 
 3297              	.LASF60:
ARM GAS  C:\Users\d4hhm\AppData\Local\Temp\cchY4aQw.s 			page 70


 3298 071b 4359424C 		.ascii	"CYBLE_EVT_GATT_CONNECT_IND\000"
 3298      455F4556 
 3298      545F4741 
 3298      54545F43 
 3298      4F4E4E45 
 3299              	.LASF157:
 3300 0736 69746572 		.ascii	"iter\000"
 3300      00
 3301              	.LASF86:
 3302 073b 4359424C 		.ascii	"CYBLE_EVT_L2CAP_COMMAND_REJ\000"
 3302      455F4556 
 3302      545F4C32 
 3302      4341505F 
 3302      434F4D4D 
 3303              	.LASF35:
 3304 0757 4359424C 		.ascii	"CYBLE_EVT_GAPC_SCAN_PROGRESS_RESULT\000"
 3304      455F4556 
 3304      545F4741 
 3304      50435F53 
 3304      43414E5F 
 3305              	.LASF58:
 3306 077b 4359424C 		.ascii	"CYBLE_EVT_GAP_SMP_LOC_P256_KEYS_GEN_AND_SET_COMPLET"
 3306      455F4556 
 3306      545F4741 
 3306      505F534D 
 3306      505F4C4F 
 3307 07ae 4500     		.ascii	"E\000"
 3308              	.LASF139:
 3309 07b0 424D4532 		.ascii	"BME280_reset\000"
 3309      38305F72 
 3309      65736574 
 3309      00
 3310              	.LASF87:
 3311 07bd 4359424C 		.ascii	"CYBLE_EVT_L2CAP_CBFC_CONN_IND\000"
 3311      455F4556 
 3311      545F4C32 
 3311      4341505F 
 3311      43424643 
 3312              	.LASF65:
 3313 07db 4359424C 		.ascii	"CYBLE_EVT_GATTC_READ_BY_TYPE_RSP\000"
 3313      455F4556 
 3313      545F4741 
 3313      5454435F 
 3313      52454144 
 3314              	.LASF27:
 3315 07fc 73697A65 		.ascii	"sizetype\000"
 3315      74797065 
 3315      00
 3316              	.LASF26:
 3317 0805 6C6F6E67 		.ascii	"long double\000"
 3317      20646F75 
 3317      626C6500 
 3318              	.LASF40:
 3319 0811 4359424C 		.ascii	"CYBLE_EVT_GAP_AUTH_FAILED\000"
 3319      455F4556 
 3319      545F4741 
 3319      505F4155 
ARM GAS  C:\Users\d4hhm\AppData\Local\Temp\cchY4aQw.s 			page 71


 3319      54485F46 
 3320              	.LASF72:
 3321 082b 4359424C 		.ascii	"CYBLE_EVT_GATTC_WRITE_RSP\000"
 3321      455F4556 
 3321      545F4741 
 3321      5454435F 
 3321      57524954 
 3322              	.LASF53:
 3323 0845 4359424C 		.ascii	"CYBLE_EVT_GAPC_DIRECT_ADV_REPORT\000"
 3323      455F4556 
 3323      545F4741 
 3323      50435F44 
 3323      49524543 
 3324              	.LASF51:
 3325 0866 4359424C 		.ascii	"CYBLE_EVT_GAP_DATA_LENGTH_CHANGE\000"
 3325      455F4556 
 3325      545F4741 
 3325      505F4441 
 3325      54415F4C 
 3326              	.LASF39:
 3327 0887 4359424C 		.ascii	"CYBLE_EVT_GAP_AUTH_COMPLETE\000"
 3327      455F4556 
 3327      545F4741 
 3327      505F4155 
 3327      54485F43 
 3328              	.LASF144:
 3329 08a3 424D4532 		.ascii	"BME280_readFloatPressure\000"
 3329      38305F72 
 3329      65616446 
 3329      6C6F6174 
 3329      50726573 
 3330              	.LASF77:
 3331 08bc 4359424C 		.ascii	"CYBLE_EVT_GATTC_HANDLE_VALUE_NTF\000"
 3331      455F4556 
 3331      545F4741 
 3331      5454435F 
 3331      48414E44 
 3332              	.LASF138:
 3333 08dd 64657669 		.ascii	"device_address\000"
 3333      63655F61 
 3333      64647265 
 3333      737300
 3334              	.LASF88:
 3335 08ec 4359424C 		.ascii	"CYBLE_EVT_L2CAP_CBFC_CONN_CNF\000"
 3335      455F4556 
 3335      545F4C32 
 3335      4341505F 
 3335      43424643 
 3336              	.LASF129:
 3337 090a 73657474 		.ascii	"settings\000"
 3337      696E6773 
 3337      00
 3338              	.LASF64:
 3339 0913 4359424C 		.ascii	"CYBLE_EVT_GATTC_READ_BY_GROUP_TYPE_RSP\000"
 3339      455F4556 
 3339      545F4741 
 3339      5454435F 
ARM GAS  C:\Users\d4hhm\AppData\Local\Temp\cchY4aQw.s 			page 72


 3339      52454144 
 3340              	.LASF23:
 3341 093a 666C6F61 		.ascii	"float\000"
 3341      7400
 3342              	.LASF29:
 3343 0940 4359424C 		.ascii	"CYBLE_EVT_STACK_ON\000"
 3343      455F4556 
 3343      545F5354 
 3343      41434B5F 
 3343      4F4E00
 3344              	.LASF106:
 3345 0953 74656D70 		.ascii	"tempOverSample\000"
 3345      4F766572 
 3345      53616D70 
 3345      6C6500
 3346              	.LASF18:
 3347 0962 696E7433 		.ascii	"int32_t\000"
 3347      325F7400 
 3348              	.LASF1:
 3349 096a 756E7369 		.ascii	"unsigned char\000"
 3349      676E6564 
 3349      20636861 
 3349      7200
 3350              	.LASF49:
 3351 0978 4359424C 		.ascii	"CYBLE_EVT_GAP_KEYPRESS_NOTIFICATION\000"
 3351      455F4556 
 3351      545F4741 
 3351      505F4B45 
 3351      59505245 
 3352              	.LASF4:
 3353 099c 73686F72 		.ascii	"short int\000"
 3353      7420696E 
 3353      7400
 3354              	.LASF78:
 3355 09a6 4359424C 		.ascii	"CYBLE_EVT_GATTC_HANDLE_VALUE_IND\000"
 3355      455F4556 
 3355      545F4741 
 3355      5454435F 
 3355      48414E44 
 3356              	.LASF147:
 3357 09c7 424D4532 		.ascii	"BME280_readFloatAltitudeFeet\000"
 3357      38305F72 
 3357      65616446 
 3357      6C6F6174 
 3357      416C7469 
 3358              	.LASF97:
 3359 09e4 4359424C 		.ascii	"CYBLE_EVT_HCI_PKT\000"
 3359      455F4556 
 3359      545F4843 
 3359      495F504B 
 3359      5400
 3360              	.LASF74:
 3361 09f6 4359424C 		.ascii	"CYBLE_EVT_GATTS_PREP_WRITE_REQ\000"
 3361      455F4556 
 3361      545F4741 
 3361      5454535F 
 3361      50524550 
ARM GAS  C:\Users\d4hhm\AppData\Local\Temp\cchY4aQw.s 			page 73


 3362              	.LASF134:
 3363 0a15 424D4532 		.ascii	"BME280\000"
 3363      383000
 3364              	.LASF122:
 3365 0a1c 6469675F 		.ascii	"dig_H1\000"
 3365      483100
 3366              	.LASF123:
 3367 0a23 6469675F 		.ascii	"dig_H2\000"
 3367      483200
 3368              	.LASF124:
 3369 0a2a 6469675F 		.ascii	"dig_H3\000"
 3369      483300
 3370              	.LASF125:
 3371 0a31 6469675F 		.ascii	"dig_H4\000"
 3371      483400
 3372              	.LASF126:
 3373 0a38 6469675F 		.ascii	"dig_H5\000"
 3373      483500
 3374              	.LASF127:
 3375 0a3f 6469675F 		.ascii	"dig_H6\000"
 3375      483600
 3376              	.LASF79:
 3377 0a46 4359424C 		.ascii	"CYBLE_EVT_GATTS_HANDLE_VALUE_CNF\000"
 3377      455F4556 
 3377      545F4741 
 3377      5454535F 
 3377      48414E44 
 3378              	.LASF59:
 3379 0a67 4359424C 		.ascii	"CYBLE_EVT_GATTC_ERROR_RSP\000"
 3379      455F4556 
 3379      545F4741 
 3379      5454435F 
 3379      4552524F 
 3380              	.LASF54:
 3381 0a81 4359424C 		.ascii	"CYBLE_EVT_GAP_SMP_NEGOTIATED_AUTH_INFO\000"
 3381      455F4556 
 3381      545F4741 
 3381      505F534D 
 3381      505F4E45 
 3382              	.LASF159:
 3383 0aa8 424D4532 		.ascii	"BME280_writeRegister\000"
 3383      38305F77 
 3383      72697465 
 3383      52656769 
 3383      73746572 
 3384              	.LASF10:
 3385 0abd 6C6F6E67 		.ascii	"long unsigned int\000"
 3385      20756E73 
 3385      69676E65 
 3385      6420696E 
 3385      7400
 3386              	.LASF98:
 3387 0acf 4359424C 		.ascii	"CYBLE_EVT_FLASH_CORRUPT\000"
 3387      455F4556 
 3387      545F464C 
 3387      4153485F 
 3387      434F5252 
ARM GAS  C:\Users\d4hhm\AppData\Local\Temp\cchY4aQw.s 			page 74


 3388              	.LASF113:
 3389 0ae7 6469675F 		.ascii	"dig_P1\000"
 3389      503100
 3390              	.LASF25:
 3391 0aee 63686172 		.ascii	"char\000"
 3391      00
 3392              	.LASF115:
 3393 0af3 6469675F 		.ascii	"dig_P3\000"
 3393      503300
 3394              	.LASF116:
 3395 0afa 6469675F 		.ascii	"dig_P4\000"
 3395      503400
 3396              	.LASF117:
 3397 0b01 6469675F 		.ascii	"dig_P5\000"
 3397      503500
 3398              	.LASF118:
 3399 0b08 6469675F 		.ascii	"dig_P6\000"
 3399      503600
 3400              	.LASF119:
 3401 0b0f 6469675F 		.ascii	"dig_P7\000"
 3401      503700
 3402              	.LASF120:
 3403 0b16 6469675F 		.ascii	"dig_P8\000"
 3403      503800
 3404              	.LASF121:
 3405 0b1d 6469675F 		.ascii	"dig_P9\000"
 3405      503900
 3406              	.LASF5:
 3407 0b24 5F5F7569 		.ascii	"__uint16_t\000"
 3407      6E743136 
 3407      5F7400
 3408              	.LASF82:
 3409 0b2f 4359424C 		.ascii	"CYBLE_EVT_GATTS_READ_CHAR_VAL_ACCESS_REQ\000"
 3409      455F4556 
 3409      545F4741 
 3409      5454535F 
 3409      52454144 
 3410              	.LASF158:
 3411 0b58 424D4532 		.ascii	"BME280_init\000"
 3411      38305F69 
 3411      6E697400 
 3412              	.LASF7:
 3413 0b64 5F5F696E 		.ascii	"__int32_t\000"
 3413      7433325F 
 3413      7400
 3414              	.LASF93:
 3415 0b6e 4359424C 		.ascii	"CYBLE_EVT_L2CAP_CBFC_TX_CREDIT_IND\000"
 3415      455F4556 
 3415      545F4C32 
 3415      4341505F 
 3415      43424643 
 3416              	.LASF69:
 3417 0b91 4359424C 		.ascii	"CYBLE_EVT_GATTC_READ_BLOB_RSP\000"
 3417      455F4556 
 3417      545F4741 
 3417      5454435F 
 3417      52454144 
ARM GAS  C:\Users\d4hhm\AppData\Local\Temp\cchY4aQw.s 			page 75


 3418              	.LASF160:
 3419 0baf 6F666673 		.ascii	"offset\000"
 3419      657400
 3420              	.LASF38:
 3421 0bb6 4359424C 		.ascii	"CYBLE_EVT_GAP_PASSKEY_DISPLAY_REQUEST\000"
 3421      455F4556 
 3421      545F4741 
 3421      505F5041 
 3421      53534B45 
 3422              	.LASF162:
 3423 0bdc 7061636B 		.ascii	"packet\000"
 3423      657400
 3424              	.LASF31:
 3425 0be3 4359424C 		.ascii	"CYBLE_EVT_HARDWARE_ERROR\000"
 3425      455F4556 
 3425      545F4841 
 3425      52445741 
 3425      52455F45 
 3426              	.LASF43:
 3427 0bfc 4359424C 		.ascii	"CYBLE_EVT_GAP_DEVICE_DISCONNECTED\000"
 3427      455F4556 
 3427      545F4741 
 3427      505F4445 
 3427      56494345 
 3428              	.LASF105:
 3429 0c1e 66696C74 		.ascii	"filter\000"
 3429      657200
 3430              	.LASF100:
 3431 0c25 636F6D6D 		.ascii	"commInterface\000"
 3431      496E7465 
 3431      72666163 
 3431      6500
 3432              	.LASF145:
 3433 0c33 424D4532 		.ascii	"BME280_readFloatAltitudeMeters\000"
 3433      38305F72 
 3433      65616446 
 3433      6C6F6174 
 3433      416C7469 
 3434              	.LASF19:
 3435 0c52 75696E74 		.ascii	"uint32_t\000"
 3435      33325F74 
 3435      00
 3436              	.LASF62:
 3437 0c5b 4359424C 		.ascii	"CYBLE_EVT_GATTS_XCNHG_MTU_REQ\000"
 3437      455F4556 
 3437      545F4741 
 3437      5454535F 
 3437      58434E48 
 3438              	.LASF135:
 3439 0c79 424D4532 		.ascii	"BME280_start\000"
 3439      38305F73 
 3439      74617274 
 3439      00
 3440              	.LASF15:
 3441 0c86 75696E74 		.ascii	"uint8_t\000"
 3441      385F7400 
 3442              	.LASF146:
ARM GAS  C:\Users\d4hhm\AppData\Local\Temp\cchY4aQw.s 			page 76


 3443 0c8e 68656967 		.ascii	"heightOutput\000"
 3443      68744F75 
 3443      74707574 
 3443      00
 3444              	.LASF102:
 3445 0c9b 63686970 		.ascii	"chipSelectPin\000"
 3445      53656C65 
 3445      63745069 
 3445      6E00
 3446              	.LASF148:
 3447 0ca9 424D4532 		.ascii	"BME280_readFloatHumidity\000"
 3447      38305F72 
 3447      65616446 
 3447      6C6F6174 
 3447      48756D69 
 3448              	.LASF67:
 3449 0cc2 4359424C 		.ascii	"CYBLE_EVT_GATTC_FIND_BY_TYPE_VALUE_RSP\000"
 3449      455F4556 
 3449      545F4741 
 3449      5454435F 
 3449      46494E44 
 3450              	.LASF47:
 3451 0ce9 4359424C 		.ascii	"CYBLE_EVT_GAP_KEYINFO_EXCHNGE_CMPLT\000"
 3451      455F4556 
 3451      545F4741 
 3451      505F4B45 
 3451      59494E46 
 3452              	.LASF89:
 3453 0d0d 4359424C 		.ascii	"CYBLE_EVT_L2CAP_CBFC_DISCONN_IND\000"
 3453      455F4556 
 3453      545F4C32 
 3453      4341505F 
 3453      43424643 
 3454              	.LASF85:
 3455 0d2e 4359424C 		.ascii	"CYBLE_EVT_L2CAP_CONN_PARAM_UPDATE_RSP\000"
 3455      455F4556 
 3455      545F4C32 
 3455      4341505F 
 3455      434F4E4E 
 3456              	.LASF52:
 3457 0d54 4359424C 		.ascii	"CYBLE_EVT_GAP_ENHANCE_CONN_COMPLETE\000"
 3457      455F4556 
 3457      545F4741 
 3457      505F454E 
 3457      48414E43 
 3458              	.LASF155:
 3459 0d78 72657375 		.ascii	"result\000"
 3459      6C7400
 3460              	.LASF61:
 3461 0d7f 4359424C 		.ascii	"CYBLE_EVT_GATT_DISCONNECT_IND\000"
 3461      455F4556 
 3461      545F4741 
 3461      54545F44 
 3461      4953434F 
 3462              		.ident	"GCC: (GNU Tools for ARM Embedded Processors) 5.4.1 20160609 (release) [ARM/embedded-5-bran
