ARM GAS  C:\Users\d4hhm\AppData\Local\Temp\ccaKQYer.s 			page 1


   1              		.syntax unified
   2              		.cpu cortex-m0
   3              		.fpu softvfp
   4              		.eabi_attribute 20, 1
   5              		.eabi_attribute 21, 1
   6              		.eabi_attribute 23, 3
   7              		.eabi_attribute 24, 1
   8              		.eabi_attribute 25, 1
   9              		.eabi_attribute 26, 1
  10              		.eabi_attribute 30, 6
  11              		.eabi_attribute 34, 0
  12              		.eabi_attribute 18, 4
  13              		.thumb
  14              		.syntax unified
  15              		.file	"CapSense_1_SMS.c"
  16              		.text
  17              	.Ltext0:
  18              		.cfi_sections	.debug_frame
  19              		.global	CapSense_1_prescalerTable
  20              		.section	.rodata
  21              		.align	2
  22              		.type	CapSense_1_prescalerTable, %object
  23              		.size	CapSense_1_prescalerTable, 16
  24              	CapSense_1_prescalerTable:
  25 0000 02       		.byte	2
  26 0001 02       		.byte	2
  27 0002 02       		.byte	2
  28 0003 04       		.byte	4
  29 0004 04       		.byte	4
  30 0005 04       		.byte	4
  31 0006 04       		.byte	4
  32 0007 08       		.byte	8
  33 0008 08       		.byte	8
  34 0009 08       		.byte	8
  35 000a 08       		.byte	8
  36 000b 08       		.byte	8
  37 000c 08       		.byte	8
  38 000d 08       		.byte	8
  39 000e 08       		.byte	8
  40 000f 08       		.byte	8
  41              		.comm	CapSense_1_noiseEnvelopeTbl,1,4
  42              		.comm	CapSense_1_runningDifferenceTbl,1,4
  43              		.comm	CapSense_1_signRegisterTbl,1,4
  44              		.comm	CapSense_1_sampleMinTbl,2,4
  45              		.comm	CapSense_1_sampleMaxTbl,2,4
  46              		.comm	CapSense_1_previousSampleTbl,2,4
  47              		.comm	CapSense_1_kValueTbl,1,4
  48              		.global	CapSense_1_sensorSensitivity
  49              		.data
  50              		.align	2
  51              		.type	CapSense_1_sensorSensitivity, %object
  52              		.size	CapSense_1_sensorSensitivity, 1
  53              	CapSense_1_sensorSensitivity:
  54 0000 02       		.byte	2
  55              		.comm	CapSense_1_config,12,4
  56              		.global	CapSense_1_configPointers
  57              		.section	.rodata
ARM GAS  C:\Users\d4hhm\AppData\Local\Temp\ccaKQYer.s 			page 2


  58              		.align	2
  59              		.type	CapSense_1_configPointers, %object
  60              		.size	CapSense_1_configPointers, 92
  61              	CapSense_1_configPointers:
  62 0010 00000000 		.word	CapSense_1_modulationIDAC
  63 0014 00000000 		.word	CapSense_1_compensationIDAC
  64 0018 00000000 		.word	CapSense_1_sensorSensitivity
  65 001c 00000000 		.word	CapSense_1_senseClkDividerVal
  66 0020 00000000 		.word	CapSense_1_sampleClkDividerVal
  67 0024 00000000 		.word	CapSense_1_widgetNumber
  68 0028 00000000 		.word	CapSense_1_widgetResolution
  69 002c 00000000 		.word	CapSense_1_noiseEnvelopeTbl
  70 0030 00000000 		.word	CapSense_1_runningDifferenceTbl
  71 0034 00000000 		.word	CapSense_1_signRegisterTbl
  72 0038 00000000 		.word	CapSense_1_sampleMinTbl
  73 003c 00000000 		.word	CapSense_1_sampleMaxTbl
  74 0040 00000000 		.word	CapSense_1_previousSampleTbl
  75 0044 00000000 		.word	CapSense_1_kValueTbl
  76 0048 00000000 		.word	CapSense_1_scanSpeedTbl
  77 004c 00000000 		.word	CapSense_1_prescalerTable
  78 0050 00000000 		.word	CapSense_1_rawDataIndex
  79 0054 00000000 		.word	CapSense_1_numberOfSensors
  80 0058 00000000 		.word	CapSense_1_GetSensorRaw
  81 005c 00000000 		.word	CapSense_1_PreScan
  82 0060 00000000 		.word	CapSense_1_ReadSensorRaw
  83 0064 00000000 		.word	CapSense_1_GetBitValue
  84 0068 00000000 		.word	CapSense_1_SetBitValue
  85              		.section	.text.CapSense_1_AutoTune,"ax",%progbits
  86              		.align	2
  87              		.global	CapSense_1_AutoTune
  88              		.code	16
  89              		.thumb_func
  90              		.type	CapSense_1_AutoTune, %function
  91              	CapSense_1_AutoTune:
  92              	.LFB34:
  93              		.file 1 "Generated_Source\\PSoC4\\CapSense_1_SMS.c"
   1:Generated_Source\PSoC4/CapSense_1_SMS.c **** /*******************************************************************************
   2:Generated_Source\PSoC4/CapSense_1_SMS.c **** * File Name: CapSense_1_SMS.c
   3:Generated_Source\PSoC4/CapSense_1_SMS.c **** * Version 2.60
   4:Generated_Source\PSoC4/CapSense_1_SMS.c **** *
   5:Generated_Source\PSoC4/CapSense_1_SMS.c **** * Description:
   6:Generated_Source\PSoC4/CapSense_1_SMS.c **** *  This file provides the source code of wrapper between CapSense CSD component
   7:Generated_Source\PSoC4/CapSense_1_SMS.c **** *  and Auto Tuning library.
   8:Generated_Source\PSoC4/CapSense_1_SMS.c **** *
   9:Generated_Source\PSoC4/CapSense_1_SMS.c **** * Note:
  10:Generated_Source\PSoC4/CapSense_1_SMS.c **** *
  11:Generated_Source\PSoC4/CapSense_1_SMS.c **** ********************************************************************************
  12:Generated_Source\PSoC4/CapSense_1_SMS.c **** * Copyright 2013-2016, Cypress Semiconductor Corporation.  All rights reserved.
  13:Generated_Source\PSoC4/CapSense_1_SMS.c **** * You may use this file only in accordance with the license, terms, conditions,
  14:Generated_Source\PSoC4/CapSense_1_SMS.c **** * disclaimers, and limitations in the end user license agreement accompanying
  15:Generated_Source\PSoC4/CapSense_1_SMS.c **** * the software package with which this file was provided.
  16:Generated_Source\PSoC4/CapSense_1_SMS.c **** *******************************************************************************/
  17:Generated_Source\PSoC4/CapSense_1_SMS.c **** 
  18:Generated_Source\PSoC4/CapSense_1_SMS.c **** #include "CapSense_1_SMS.h"
  19:Generated_Source\PSoC4/CapSense_1_SMS.c **** #include "CapSense_1_PVT.h"
  20:Generated_Source\PSoC4/CapSense_1_SMS.c **** 
  21:Generated_Source\PSoC4/CapSense_1_SMS.c **** #include "cytypes.h"
ARM GAS  C:\Users\d4hhm\AppData\Local\Temp\ccaKQYer.s 			page 3


  22:Generated_Source\PSoC4/CapSense_1_SMS.c **** 
  23:Generated_Source\PSoC4/CapSense_1_SMS.c **** #if (CapSense_1_TUNING_METHOD == CapSense_1__TUNING_AUTO)
  24:Generated_Source\PSoC4/CapSense_1_SMS.c **** 
  25:Generated_Source\PSoC4/CapSense_1_SMS.c **** 
  26:Generated_Source\PSoC4/CapSense_1_SMS.c **** /*  Real Charge Divider values */
  27:Generated_Source\PSoC4/CapSense_1_SMS.c **** #if ((0u != CapSense_1_IS_M0S8PERI_BLOCK) && (0u == CY_PSOC4_4000))
  28:Generated_Source\PSoC4/CapSense_1_SMS.c ****     /*  Dividers are not chained */
  29:Generated_Source\PSoC4/CapSense_1_SMS.c ****     #if (CYDEV_BCLK__HFCLK__MHZ > 24u)
  30:Generated_Source\PSoC4/CapSense_1_SMS.c ****         const uint8 CapSense_1_prescalerTable[CapSense_1_PRESCALERS_TBL_SIZE] = {
  31:Generated_Source\PSoC4/CapSense_1_SMS.c ****             4u,     4u,     4u,    8u,    8u,    8u,    8u,    16u,    16u,    16u,    16u,    16u,
  32:Generated_Source\PSoC4/CapSense_1_SMS.c ****         };
  33:Generated_Source\PSoC4/CapSense_1_SMS.c ****     #elif (CYDEV_BCLK__HFCLK__MHZ >12u)
  34:Generated_Source\PSoC4/CapSense_1_SMS.c ****         const uint8 CapSense_1_prescalerTable[CapSense_1_PRESCALERS_TBL_SIZE] = {
  35:Generated_Source\PSoC4/CapSense_1_SMS.c ****             2u,     2u,     2u,    4u,    4u,    4u,    4u,    8u,    8u,    8u,    8u,    8u,    8
  36:Generated_Source\PSoC4/CapSense_1_SMS.c ****         };
  37:Generated_Source\PSoC4/CapSense_1_SMS.c ****     #else   /* (CYDEV_BCLK__HFCLK__MHZ > 12u) */
  38:Generated_Source\PSoC4/CapSense_1_SMS.c ****         const uint8 CapSense_1_prescalerTable[CapSense_1_PRESCALERS_TBL_SIZE] = {
  39:Generated_Source\PSoC4/CapSense_1_SMS.c ****             1u,     1u,     1u,    2u,    2u,    2u,    2u,    4u,    4u,    4u,    4u,    4u,    4
  40:Generated_Source\PSoC4/CapSense_1_SMS.c ****         };
  41:Generated_Source\PSoC4/CapSense_1_SMS.c ****     #endif /* (CYDEV_BCLK__HFCLK__MHZ > 24u) */
  42:Generated_Source\PSoC4/CapSense_1_SMS.c **** 
  43:Generated_Source\PSoC4/CapSense_1_SMS.c **** #elif (0u != CapSense_1_IS_M0S8PERI_BLOCK)
  44:Generated_Source\PSoC4/CapSense_1_SMS.c ****     /*  Dividers are not chained (PSoC 4000) */
  45:Generated_Source\PSoC4/CapSense_1_SMS.c ****     #if (CYDEV_BCLK__HFCLK__MHZ >= 12u)
  46:Generated_Source\PSoC4/CapSense_1_SMS.c ****         const uint8 CapSense_1_prescalerTable[CapSense_1_PRESCALERS_TBL_SIZE] = {
  47:Generated_Source\PSoC4/CapSense_1_SMS.c ****             1u,     1u,     1u,    2u,    2u,    2u,    2u,    4u,    4u,    4u,    4u,    4u,    4
  48:Generated_Source\PSoC4/CapSense_1_SMS.c ****         };
  49:Generated_Source\PSoC4/CapSense_1_SMS.c **** 
  50:Generated_Source\PSoC4/CapSense_1_SMS.c ****     #elif (CYDEV_BCLK__HFCLK__MHZ >= 6u)
  51:Generated_Source\PSoC4/CapSense_1_SMS.c ****         const uint8 CapSense_1_prescalerTable[CapSense_1_PRESCALERS_TBL_SIZE] = {
  52:Generated_Source\PSoC4/CapSense_1_SMS.c ****             1u,     1u,     1u,    1u,    1u,    1u,    1u,    2u,    2u,    2u,    2u,    2u,    2
  53:Generated_Source\PSoC4/CapSense_1_SMS.c ****         };
  54:Generated_Source\PSoC4/CapSense_1_SMS.c ****     #else
  55:Generated_Source\PSoC4/CapSense_1_SMS.c ****         const uint8 CapSense_1_prescalerTable[CapSense_1_PRESCALERS_TBL_SIZE] = {
  56:Generated_Source\PSoC4/CapSense_1_SMS.c ****             1u,     1u,     1u,    1u,    1u,    1u,    1u,    1u,    1u,    1u,    1u,    1u,    1
  57:Generated_Source\PSoC4/CapSense_1_SMS.c ****         };
  58:Generated_Source\PSoC4/CapSense_1_SMS.c ****     #endif /* (CYDEV_BCLK__HFCLK__MHZ > 12u) */
  59:Generated_Source\PSoC4/CapSense_1_SMS.c **** 
  60:Generated_Source\PSoC4/CapSense_1_SMS.c **** #else
  61:Generated_Source\PSoC4/CapSense_1_SMS.c ****     /*  Dividers are chained (PSoC 4100, PSoC 4200) */
  62:Generated_Source\PSoC4/CapSense_1_SMS.c ****     #if (CYDEV_BCLK__HFCLK__MHZ > 24u)
  63:Generated_Source\PSoC4/CapSense_1_SMS.c ****         const uint8 CapSense_1_prescalerTable[CapSense_1_PRESCALERS_TBL_SIZE] = {
  64:Generated_Source\PSoC4/CapSense_1_SMS.c ****             2u,     2u,     2u,    4u,    4u,    4u,    4u,    8u,    8u,    8u,    8u,    8u,    8
  65:Generated_Source\PSoC4/CapSense_1_SMS.c ****         };
  66:Generated_Source\PSoC4/CapSense_1_SMS.c **** 
  67:Generated_Source\PSoC4/CapSense_1_SMS.c ****     #elif (CYDEV_BCLK__HFCLK__MHZ >12u)
  68:Generated_Source\PSoC4/CapSense_1_SMS.c ****         const uint8 CapSense_1_prescalerTable[CapSense_1_PRESCALERS_TBL_SIZE] = {
  69:Generated_Source\PSoC4/CapSense_1_SMS.c ****             1u,     1u,     1u,    2u,    2u,    2u,    2u,    4u,    4u,    4u,    4u,    4u,    4
  70:Generated_Source\PSoC4/CapSense_1_SMS.c ****         };
  71:Generated_Source\PSoC4/CapSense_1_SMS.c ****     #else   /* (CYDEV_BCLK__HFCLK__MHZ > 12u) */
  72:Generated_Source\PSoC4/CapSense_1_SMS.c ****         const uint8 CapSense_1_prescalerTable[CapSense_1_PRESCALERS_TBL_SIZE] = {
  73:Generated_Source\PSoC4/CapSense_1_SMS.c ****             1u,     1u,     1u,    1u,    1u,    1u,    1u,    2u,    2u,    2u,    2u,    2u,    2
  74:Generated_Source\PSoC4/CapSense_1_SMS.c ****         };
  75:Generated_Source\PSoC4/CapSense_1_SMS.c ****     #endif /* (CYDEV_BCLK__HFCLK__MHZ > 24u) */
  76:Generated_Source\PSoC4/CapSense_1_SMS.c **** #endif /* ((0u != CapSense_1_IS_M0S8PERI_BLOCK) && (0u == CY_PSOC4_4000)) */
  77:Generated_Source\PSoC4/CapSense_1_SMS.c **** 
  78:Generated_Source\PSoC4/CapSense_1_SMS.c **** 
ARM GAS  C:\Users\d4hhm\AppData\Local\Temp\ccaKQYer.s 			page 4


  79:Generated_Source\PSoC4/CapSense_1_SMS.c **** uint8 CapSense_1_noiseEnvelopeTbl[CapSense_1_TOTAL_SENSOR_COUNT];
  80:Generated_Source\PSoC4/CapSense_1_SMS.c **** uint8 CapSense_1_runningDifferenceTbl[CapSense_1_TOTAL_SENSOR_COUNT];
  81:Generated_Source\PSoC4/CapSense_1_SMS.c **** uint8 CapSense_1_signRegisterTbl[CapSense_1_TOTAL_SENSOR_COUNT];
  82:Generated_Source\PSoC4/CapSense_1_SMS.c **** uint16 CapSense_1_sampleMinTbl[CapSense_1_TOTAL_SENSOR_COUNT];
  83:Generated_Source\PSoC4/CapSense_1_SMS.c **** uint16 CapSense_1_sampleMaxTbl[CapSense_1_TOTAL_SENSOR_COUNT];
  84:Generated_Source\PSoC4/CapSense_1_SMS.c **** uint16 CapSense_1_previousSampleTbl[CapSense_1_TOTAL_SENSOR_COUNT];
  85:Generated_Source\PSoC4/CapSense_1_SMS.c **** uint8 CapSense_1_kValueTbl[CapSense_1_TOTAL_SENSOR_COUNT];
  86:Generated_Source\PSoC4/CapSense_1_SMS.c **** 
  87:Generated_Source\PSoC4/CapSense_1_SMS.c **** uint8 CapSense_1_sensorSensitivity[] = {
  88:Generated_Source\PSoC4/CapSense_1_SMS.c ****     2u, 
  89:Generated_Source\PSoC4/CapSense_1_SMS.c **** };
  90:Generated_Source\PSoC4/CapSense_1_SMS.c **** 
  91:Generated_Source\PSoC4/CapSense_1_SMS.c **** CapSense_1_CONFIG_TYPE_P4_v2_60 CapSense_1_config;
  92:Generated_Source\PSoC4/CapSense_1_SMS.c **** CapSense_1_CONFIG_TYPE_POINTERS_P4_v2_60 const CapSense_1_configPointers = {
  93:Generated_Source\PSoC4/CapSense_1_SMS.c ****     CapSense_1_modulationIDAC,
  94:Generated_Source\PSoC4/CapSense_1_SMS.c ****     CapSense_1_compensationIDAC,
  95:Generated_Source\PSoC4/CapSense_1_SMS.c ****     CapSense_1_sensorSensitivity,
  96:Generated_Source\PSoC4/CapSense_1_SMS.c ****     CapSense_1_senseClkDividerVal,
  97:Generated_Source\PSoC4/CapSense_1_SMS.c ****     CapSense_1_sampleClkDividerVal,
  98:Generated_Source\PSoC4/CapSense_1_SMS.c ****     CapSense_1_widgetNumber,
  99:Generated_Source\PSoC4/CapSense_1_SMS.c ****     CapSense_1_widgetResolution,
 100:Generated_Source\PSoC4/CapSense_1_SMS.c ****     CapSense_1_noiseEnvelopeTbl,
 101:Generated_Source\PSoC4/CapSense_1_SMS.c ****     CapSense_1_runningDifferenceTbl,
 102:Generated_Source\PSoC4/CapSense_1_SMS.c ****     CapSense_1_signRegisterTbl,
 103:Generated_Source\PSoC4/CapSense_1_SMS.c ****     CapSense_1_sampleMinTbl,
 104:Generated_Source\PSoC4/CapSense_1_SMS.c ****     CapSense_1_sampleMaxTbl,
 105:Generated_Source\PSoC4/CapSense_1_SMS.c ****     CapSense_1_previousSampleTbl,
 106:Generated_Source\PSoC4/CapSense_1_SMS.c ****     CapSense_1_kValueTbl,
 107:Generated_Source\PSoC4/CapSense_1_SMS.c ****     CapSense_1_scanSpeedTbl,
 108:Generated_Source\PSoC4/CapSense_1_SMS.c ****     CapSense_1_prescalerTable,
 109:Generated_Source\PSoC4/CapSense_1_SMS.c ****     (const uint8  *)CapSense_1_rawDataIndex,
 110:Generated_Source\PSoC4/CapSense_1_SMS.c ****     (const uint8  *)CapSense_1_numberOfSensors,
 111:Generated_Source\PSoC4/CapSense_1_SMS.c ****     &CapSense_1_GetSensorRaw,
 112:Generated_Source\PSoC4/CapSense_1_SMS.c ****     &CapSense_1_PreScan,
 113:Generated_Source\PSoC4/CapSense_1_SMS.c ****     &CapSense_1_ReadSensorRaw,
 114:Generated_Source\PSoC4/CapSense_1_SMS.c ****     &CapSense_1_GetBitValue,
 115:Generated_Source\PSoC4/CapSense_1_SMS.c ****     &CapSense_1_SetBitValue
 116:Generated_Source\PSoC4/CapSense_1_SMS.c **** };
 117:Generated_Source\PSoC4/CapSense_1_SMS.c **** 
 118:Generated_Source\PSoC4/CapSense_1_SMS.c **** 
 119:Generated_Source\PSoC4/CapSense_1_SMS.c **** /*******************************************************************************
 120:Generated_Source\PSoC4/CapSense_1_SMS.c **** * Function Name: CapSense_1_AutoTune
 121:Generated_Source\PSoC4/CapSense_1_SMS.c **** ********************************************************************************
 122:Generated_Source\PSoC4/CapSense_1_SMS.c **** *
 123:Generated_Source\PSoC4/CapSense_1_SMS.c **** * Summary:
 124:Generated_Source\PSoC4/CapSense_1_SMS.c **** *  Provides the tuning procedure for all sensors.
 125:Generated_Source\PSoC4/CapSense_1_SMS.c **** *
 126:Generated_Source\PSoC4/CapSense_1_SMS.c **** * Parameters:
 127:Generated_Source\PSoC4/CapSense_1_SMS.c **** *  None
 128:Generated_Source\PSoC4/CapSense_1_SMS.c **** *
 129:Generated_Source\PSoC4/CapSense_1_SMS.c **** * Return:
 130:Generated_Source\PSoC4/CapSense_1_SMS.c **** *  None
 131:Generated_Source\PSoC4/CapSense_1_SMS.c **** *
 132:Generated_Source\PSoC4/CapSense_1_SMS.c **** * Global Variables:
 133:Generated_Source\PSoC4/CapSense_1_SMS.c **** *   CapSense_1_config: the structure which contains configuration parameters
 134:Generated_Source\PSoC4/CapSense_1_SMS.c **** *   CapSense_1_senseClkDividerVal[]: used to store the Analog Switch
 135:Generated_Source\PSoC4/CapSense_1_SMS.c **** *   dividers for each sensor.
ARM GAS  C:\Users\d4hhm\AppData\Local\Temp\ccaKQYer.s 			page 5


 136:Generated_Source\PSoC4/CapSense_1_SMS.c **** *   CapSense_1_senseClkDividerVal[]: used to store the
 137:Generated_Source\PSoC4/CapSense_1_SMS.c **** *    Analog Switch divider for all sensors.
 138:Generated_Source\PSoC4/CapSense_1_SMS.c **** *   CapSense_1_prescalersTuningDone - used to notify the Tuner GUI that
 139:Generated_Source\PSoC4/CapSense_1_SMS.c **** *   the pre-scalers tuning  is done.
 140:Generated_Source\PSoC4/CapSense_1_SMS.c **** *
 141:Generated_Source\PSoC4/CapSense_1_SMS.c **** * Side Effects:
 142:Generated_Source\PSoC4/CapSense_1_SMS.c **** *  None
 143:Generated_Source\PSoC4/CapSense_1_SMS.c **** *
 144:Generated_Source\PSoC4/CapSense_1_SMS.c **** *******************************************************************************/
 145:Generated_Source\PSoC4/CapSense_1_SMS.c **** void CapSense_1_AutoTune(void)
 146:Generated_Source\PSoC4/CapSense_1_SMS.c **** {
  94              		.loc 1 146 0
  95              		.cfi_startproc
  96              		@ args = 0, pretend = 0, frame = 8
  97              		@ frame_needed = 1, uses_anonymous_args = 0
  98 0000 80B5     		push	{r7, lr}
  99              		.cfi_def_cfa_offset 8
 100              		.cfi_offset 7, -8
 101              		.cfi_offset 14, -4
 102 0002 82B0     		sub	sp, sp, #8
 103              		.cfi_def_cfa_offset 16
 104 0004 00AF     		add	r7, sp, #0
 105              		.cfi_def_cfa_register 7
 147:Generated_Source\PSoC4/CapSense_1_SMS.c ****     uint32 curSensor;
 148:Generated_Source\PSoC4/CapSense_1_SMS.c ****     uint32 widget;
 149:Generated_Source\PSoC4/CapSense_1_SMS.c **** 
 150:Generated_Source\PSoC4/CapSense_1_SMS.c ****     CapSense_1_config.totalScanslotsNum = CapSense_1_TOTAL_SCANSLOT_COUNT;
 106              		.loc 1 150 0
 107 0006 314B     		ldr	r3, .L8
 108 0008 0122     		movs	r2, #1
 109 000a 1A70     		strb	r2, [r3]
 151:Generated_Source\PSoC4/CapSense_1_SMS.c ****     CapSense_1_config.totalWidgetsNum = CapSense_1_END_OF_WIDGETS_INDEX;
 110              		.loc 1 151 0
 111 000c 2F4B     		ldr	r3, .L8
 112 000e 0122     		movs	r2, #1
 113 0010 5A70     		strb	r2, [r3, #1]
 152:Generated_Source\PSoC4/CapSense_1_SMS.c ****     CapSense_1_config.totalSensorsNum = CapSense_1_TOTAL_SENSOR_COUNT;
 114              		.loc 1 152 0
 115 0012 2E4B     		ldr	r3, .L8
 116 0014 0122     		movs	r2, #1
 117 0016 9A70     		strb	r2, [r3, #2]
 153:Generated_Source\PSoC4/CapSense_1_SMS.c **** 
 154:Generated_Source\PSoC4/CapSense_1_SMS.c ****     CapSense_1_config.hfclkFreq_MHz = CYDEV_BCLK__HFCLK__MHZ;
 118              		.loc 1 154 0
 119 0018 2C4B     		ldr	r3, .L8
 120 001a 1822     		movs	r2, #24
 121 001c DA80     		strh	r2, [r3, #6]
 155:Generated_Source\PSoC4/CapSense_1_SMS.c ****     CapSense_1_config.sensetivitySeed = CapSense_1_SENSETIVITY_FACTOR;
 122              		.loc 1 155 0
 123 001e 2B4B     		ldr	r3, .L8
 124 0020 2B4A     		ldr	r2, .L8+4
 125 0022 9A80     		strh	r2, [r3, #4]
 156:Generated_Source\PSoC4/CapSense_1_SMS.c **** 
 157:Generated_Source\PSoC4/CapSense_1_SMS.c ****     CapSense_1_config.pointers = &CapSense_1_configPointers;
 126              		.loc 1 157 0
 127 0024 294B     		ldr	r3, .L8
 128 0026 2B4A     		ldr	r2, .L8+8
ARM GAS  C:\Users\d4hhm\AppData\Local\Temp\ccaKQYer.s 			page 6


 129 0028 9A60     		str	r2, [r3, #8]
 158:Generated_Source\PSoC4/CapSense_1_SMS.c **** 
 159:Generated_Source\PSoC4/CapSense_1_SMS.c ****     CapSense_1_SetAnalogSwitchesSrcDirect();
 130              		.loc 1 159 0
 131 002a FFF7FEFF 		bl	CapSense_1_SetAnalogSwitchesSrcDirect
 160:Generated_Source\PSoC4/CapSense_1_SMS.c **** 
 161:Generated_Source\PSoC4/CapSense_1_SMS.c ****     for(widget = 0u; widget < CapSense_1_config.totalWidgetsNum; widget++)
 132              		.loc 1 161 0
 133 002e 0023     		movs	r3, #0
 134 0030 3B60     		str	r3, [r7]
 135 0032 07E0     		b	.L2
 136              	.L3:
 162:Generated_Source\PSoC4/CapSense_1_SMS.c ****     {
 163:Generated_Source\PSoC4/CapSense_1_SMS.c ****         CapSense_1_widgetResolution[widget] = CapSense_1_CALIBRATION_RESOLUTION;
 137              		.loc 1 163 0 discriminator 3
 138 0034 284B     		ldr	r3, .L8+12
 139 0036 3A68     		ldr	r2, [r7]
 140 0038 9200     		lsls	r2, r2, #2
 141 003a 2849     		ldr	r1, .L8+16
 142 003c D150     		str	r1, [r2, r3]
 161:Generated_Source\PSoC4/CapSense_1_SMS.c ****     {
 143              		.loc 1 161 0 discriminator 3
 144 003e 3B68     		ldr	r3, [r7]
 145 0040 0133     		adds	r3, r3, #1
 146 0042 3B60     		str	r3, [r7]
 147              	.L2:
 161:Generated_Source\PSoC4/CapSense_1_SMS.c ****     {
 148              		.loc 1 161 0 is_stmt 0 discriminator 1
 149 0044 214B     		ldr	r3, .L8
 150 0046 5B78     		ldrb	r3, [r3, #1]
 151 0048 1A00     		movs	r2, r3
 152 004a 3B68     		ldr	r3, [r7]
 153 004c 9A42     		cmp	r2, r3
 154 004e F1D8     		bhi	.L3
 164:Generated_Source\PSoC4/CapSense_1_SMS.c ****     }
 165:Generated_Source\PSoC4/CapSense_1_SMS.c **** 
 166:Generated_Source\PSoC4/CapSense_1_SMS.c **** 
 167:Generated_Source\PSoC4/CapSense_1_SMS.c ****     for(curSensor = 0u; curSensor < CapSense_1_TOTAL_SCANSLOT_COUNT; curSensor++)
 155              		.loc 1 167 0 is_stmt 1
 156 0050 0023     		movs	r3, #0
 157 0052 7B60     		str	r3, [r7, #4]
 158 0054 0CE0     		b	.L4
 159              	.L5:
 168:Generated_Source\PSoC4/CapSense_1_SMS.c ****     {
 169:Generated_Source\PSoC4/CapSense_1_SMS.c ****         CapSense_1_senseClkDividerVal[curSensor] = CapSense_1_CALIBRATION_ASD;
 160              		.loc 1 169 0 discriminator 3
 161 0056 224A     		ldr	r2, .L8+20
 162 0058 7B68     		ldr	r3, [r7, #4]
 163 005a D318     		adds	r3, r2, r3
 164 005c 0822     		movs	r2, #8
 165 005e 1A70     		strb	r2, [r3]
 170:Generated_Source\PSoC4/CapSense_1_SMS.c ****         CapSense_1_sampleClkDividerVal[curSensor] = CapSense_1_CALIBRATION_MD;
 166              		.loc 1 170 0 discriminator 3
 167 0060 204A     		ldr	r2, .L8+24
 168 0062 7B68     		ldr	r3, [r7, #4]
 169 0064 D318     		adds	r3, r2, r3
 170 0066 0422     		movs	r2, #4
ARM GAS  C:\Users\d4hhm\AppData\Local\Temp\ccaKQYer.s 			page 7


 171 0068 1A70     		strb	r2, [r3]
 167:Generated_Source\PSoC4/CapSense_1_SMS.c ****     {
 172              		.loc 1 167 0 discriminator 3
 173 006a 7B68     		ldr	r3, [r7, #4]
 174 006c 0133     		adds	r3, r3, #1
 175 006e 7B60     		str	r3, [r7, #4]
 176              	.L4:
 167:Generated_Source\PSoC4/CapSense_1_SMS.c ****     {
 177              		.loc 1 167 0 is_stmt 0 discriminator 1
 178 0070 7B68     		ldr	r3, [r7, #4]
 179 0072 002B     		cmp	r3, #0
 180 0074 EFD0     		beq	.L5
 171:Generated_Source\PSoC4/CapSense_1_SMS.c ****     }
 172:Generated_Source\PSoC4/CapSense_1_SMS.c **** 
 173:Generated_Source\PSoC4/CapSense_1_SMS.c ****     CapSense_1_DisableBaselineIDAC();
 181              		.loc 1 173 0 is_stmt 1
 182 0076 FFF7FEFF 		bl	CapSense_1_DisableBaselineIDAC
 174:Generated_Source\PSoC4/CapSense_1_SMS.c **** 
 175:Generated_Source\PSoC4/CapSense_1_SMS.c ****     CalibrateSensors_P4_v2_60(&CapSense_1_config, CapSense_1_CAL_RAW_COUNT);
 183              		.loc 1 175 0
 184 007a 1B4A     		ldr	r2, .L8+28
 185 007c 134B     		ldr	r3, .L8
 186 007e 1100     		movs	r1, r2
 187 0080 1800     		movs	r0, r3
 188 0082 FFF7FEFF 		bl	CalibrateSensors_P4_v2_60
 176:Generated_Source\PSoC4/CapSense_1_SMS.c **** 
 177:Generated_Source\PSoC4/CapSense_1_SMS.c ****     #if(0u != CapSense_1_TOTAL_CENTROIDS_COUNT)
 178:Generated_Source\PSoC4/CapSense_1_SMS.c ****         CapSense_1_NormalizeWidgets(CapSense_1_END_OF_WIDGETS_INDEX, CapSense_1_modulationIDAC);
 179:Generated_Source\PSoC4/CapSense_1_SMS.c ****     #endif /* (0u != CapSense_1_TOTAL_CENTROIDS_COUNT)  */
 180:Generated_Source\PSoC4/CapSense_1_SMS.c **** 
 181:Generated_Source\PSoC4/CapSense_1_SMS.c ****     TunePrescalers_P4_v2_60(&CapSense_1_config);
 189              		.loc 1 181 0
 190 0086 114B     		ldr	r3, .L8
 191 0088 1800     		movs	r0, r3
 192 008a FFF7FEFF 		bl	TunePrescalers_P4_v2_60
 182:Generated_Source\PSoC4/CapSense_1_SMS.c **** 
 183:Generated_Source\PSoC4/CapSense_1_SMS.c ****     #if(CapSense_1_PRS_OPTIONS != CapSense_1__PRS_NONE)
 184:Generated_Source\PSoC4/CapSense_1_SMS.c ****         CapSense_1_prescalersTuningDone = 1u;
 185:Generated_Source\PSoC4/CapSense_1_SMS.c ****     #endif /* (CapSense_1_PRS_OPTIONS == CapSense_1__PRS_NONE) */
 186:Generated_Source\PSoC4/CapSense_1_SMS.c **** 
 187:Generated_Source\PSoC4/CapSense_1_SMS.c ****     CalibrateSensors_P4_v2_60(&CapSense_1_config, CapSense_1_CAL_RAW_COUNT);
 193              		.loc 1 187 0
 194 008e 164A     		ldr	r2, .L8+28
 195 0090 0E4B     		ldr	r3, .L8
 196 0092 1100     		movs	r1, r2
 197 0094 1800     		movs	r0, r3
 198 0096 FFF7FEFF 		bl	CalibrateSensors_P4_v2_60
 188:Generated_Source\PSoC4/CapSense_1_SMS.c ****     #if(0u != CapSense_1_TOTAL_CENTROIDS_COUNT)
 189:Generated_Source\PSoC4/CapSense_1_SMS.c ****         CapSense_1_NormalizeWidgets(CapSense_1_END_OF_WIDGETS_INDEX, CapSense_1_modulationIDAC);
 190:Generated_Source\PSoC4/CapSense_1_SMS.c ****     #endif /* (0u != CapSense_1_TOTAL_CENTROIDS_COUNT)  */
 191:Generated_Source\PSoC4/CapSense_1_SMS.c ****     TuneSensitivity_P4_v2_60(&CapSense_1_config);
 199              		.loc 1 191 0
 200 009a 0C4B     		ldr	r3, .L8
 201 009c 1800     		movs	r0, r3
 202 009e FFF7FEFF 		bl	TuneSensitivity_P4_v2_60
 192:Generated_Source\PSoC4/CapSense_1_SMS.c **** 
 193:Generated_Source\PSoC4/CapSense_1_SMS.c ****     CapSense_1_EnableBaselineIDAC(&CapSense_1_config);
ARM GAS  C:\Users\d4hhm\AppData\Local\Temp\ccaKQYer.s 			page 8


 203              		.loc 1 193 0
 204 00a2 0A4B     		ldr	r3, .L8
 205 00a4 1800     		movs	r0, r3
 206 00a6 FFF7FEFF 		bl	CapSense_1_EnableBaselineIDAC
 194:Generated_Source\PSoC4/CapSense_1_SMS.c **** 
 195:Generated_Source\PSoC4/CapSense_1_SMS.c ****     for(curSensor = 0u; curSensor < CapSense_1_TOTAL_SCANSLOT_COUNT; curSensor++)
 207              		.loc 1 195 0
 208 00aa 0023     		movs	r3, #0
 209 00ac 7B60     		str	r3, [r7, #4]
 210 00ae 06E0     		b	.L6
 211              	.L7:
 196:Generated_Source\PSoC4/CapSense_1_SMS.c ****     {
 197:Generated_Source\PSoC4/CapSense_1_SMS.c ****         CapSense_1_UpdateThresholds(curSensor);
 212              		.loc 1 197 0 discriminator 3
 213 00b0 7B68     		ldr	r3, [r7, #4]
 214 00b2 1800     		movs	r0, r3
 215 00b4 FFF7FEFF 		bl	CapSense_1_UpdateThresholds
 195:Generated_Source\PSoC4/CapSense_1_SMS.c ****     {
 216              		.loc 1 195 0 discriminator 3
 217 00b8 7B68     		ldr	r3, [r7, #4]
 218 00ba 0133     		adds	r3, r3, #1
 219 00bc 7B60     		str	r3, [r7, #4]
 220              	.L6:
 195:Generated_Source\PSoC4/CapSense_1_SMS.c ****     {
 221              		.loc 1 195 0 is_stmt 0 discriminator 1
 222 00be 7B68     		ldr	r3, [r7, #4]
 223 00c0 002B     		cmp	r3, #0
 224 00c2 F5D0     		beq	.L7
 198:Generated_Source\PSoC4/CapSense_1_SMS.c ****     }
 199:Generated_Source\PSoC4/CapSense_1_SMS.c **** }
 225              		.loc 1 199 0 is_stmt 1
 226 00c4 C046     		nop
 227 00c6 BD46     		mov	sp, r7
 228 00c8 02B0     		add	sp, sp, #8
 229              		@ sp needed
 230 00ca 80BD     		pop	{r7, pc}
 231              	.L9:
 232              		.align	2
 233              	.L8:
 234 00cc 00000000 		.word	CapSense_1_config
 235 00d0 98090000 		.word	2456
 236 00d4 00000000 		.word	CapSense_1_configPointers
 237 00d8 00000000 		.word	CapSense_1_widgetResolution
 238 00dc 0000FF0F 		.word	268369920
 239 00e0 00000000 		.word	CapSense_1_senseClkDividerVal
 240 00e4 00000000 		.word	CapSense_1_sampleClkDividerVal
 241 00e8 9A0D0000 		.word	3482
 242              		.cfi_endproc
 243              	.LFE34:
 244              		.size	CapSense_1_AutoTune, .-CapSense_1_AutoTune
 245              		.section	.text.CapSense_1_UpdateThresholds,"ax",%progbits
 246              		.align	2
 247              		.global	CapSense_1_UpdateThresholds
 248              		.code	16
 249              		.thumb_func
 250              		.type	CapSense_1_UpdateThresholds, %function
 251              	CapSense_1_UpdateThresholds:
ARM GAS  C:\Users\d4hhm\AppData\Local\Temp\ccaKQYer.s 			page 9


 252              	.LFB35:
 200:Generated_Source\PSoC4/CapSense_1_SMS.c **** 
 201:Generated_Source\PSoC4/CapSense_1_SMS.c **** 
 202:Generated_Source\PSoC4/CapSense_1_SMS.c **** /*******************************************************************************
 203:Generated_Source\PSoC4/CapSense_1_SMS.c **** * Function Name: CapSense_1_UpdateThresholds
 204:Generated_Source\PSoC4/CapSense_1_SMS.c **** ********************************************************************************
 205:Generated_Source\PSoC4/CapSense_1_SMS.c **** *
 206:Generated_Source\PSoC4/CapSense_1_SMS.c **** * Summary:
 207:Generated_Source\PSoC4/CapSense_1_SMS.c **** *  The API updates the Finger Threshold, Hysteresis, Noise Threshold, and
 208:Generated_Source\PSoC4/CapSense_1_SMS.c **** *  Negative Noise Threshold in the AutoTuning (Smartsense) Mode.
 209:Generated_Source\PSoC4/CapSense_1_SMS.c **** *
 210:Generated_Source\PSoC4/CapSense_1_SMS.c **** * Parameters:
 211:Generated_Source\PSoC4/CapSense_1_SMS.c **** *  sensor: sensor number.
 212:Generated_Source\PSoC4/CapSense_1_SMS.c **** *
 213:Generated_Source\PSoC4/CapSense_1_SMS.c **** * Return:
 214:Generated_Source\PSoC4/CapSense_1_SMS.c **** *  None
 215:Generated_Source\PSoC4/CapSense_1_SMS.c **** *
 216:Generated_Source\PSoC4/CapSense_1_SMS.c **** * Global Variables:
 217:Generated_Source\PSoC4/CapSense_1_SMS.c **** *  CapSense_1_widgetNumber[] - contains widget Number for given sensor.
 218:Generated_Source\PSoC4/CapSense_1_SMS.c **** *  0 through 7 (sensor 0 is bit 0, sensor 1 is bit 1).
 219:Generated_Source\PSoC4/CapSense_1_SMS.c **** *  For other sensors the array element equals to 255.
 220:Generated_Source\PSoC4/CapSense_1_SMS.c **** *  CapSense_1_numberOfSensors[widget] - Number of sensors in the widget.
 221:Generated_Source\PSoC4/CapSense_1_SMS.c **** *   CapSense_1_fingerThreshold[] - contains the level of signal for each sensor
 222:Generated_Source\PSoC4/CapSense_1_SMS.c **** *   that determines if a finger present on the sensor.
 223:Generated_Source\PSoC4/CapSense_1_SMS.c **** *   CapSense_1_negativeNoiseThreshold[] - negative Noise Threshold
 224:Generated_Source\PSoC4/CapSense_1_SMS.c **** *   CapSense_1_hysteresis[] - the array with hysteresis values.
 225:Generated_Source\PSoC4/CapSense_1_SMS.c **** *
 226:Generated_Source\PSoC4/CapSense_1_SMS.c **** * Side Effects:
 227:Generated_Source\PSoC4/CapSense_1_SMS.c **** *  None
 228:Generated_Source\PSoC4/CapSense_1_SMS.c **** *
 229:Generated_Source\PSoC4/CapSense_1_SMS.c **** *******************************************************************************/
 230:Generated_Source\PSoC4/CapSense_1_SMS.c **** void CapSense_1_UpdateThresholds(uint32 sensor)
 231:Generated_Source\PSoC4/CapSense_1_SMS.c **** {
 253              		.loc 1 231 0
 254              		.cfi_startproc
 255              		@ args = 0, pretend = 0, frame = 16
 256              		@ frame_needed = 1, uses_anonymous_args = 0
 257 0000 90B5     		push	{r4, r7, lr}
 258              		.cfi_def_cfa_offset 12
 259              		.cfi_offset 4, -12
 260              		.cfi_offset 7, -8
 261              		.cfi_offset 14, -4
 262 0002 87B0     		sub	sp, sp, #28
 263              		.cfi_def_cfa_offset 40
 264 0004 02AF     		add	r7, sp, #8
 265              		.cfi_def_cfa 7, 32
 266 0006 7860     		str	r0, [r7, #4]
 232:Generated_Source\PSoC4/CapSense_1_SMS.c ****     uint8 fingerThreshold;
 233:Generated_Source\PSoC4/CapSense_1_SMS.c ****     uint32 widget;
 234:Generated_Source\PSoC4/CapSense_1_SMS.c **** 
 235:Generated_Source\PSoC4/CapSense_1_SMS.c ****     widget = CapSense_1_widgetNumber[sensor];
 267              		.loc 1 235 0
 268 0008 344A     		ldr	r2, .L17
 269 000a 7B68     		ldr	r3, [r7, #4]
 270 000c D318     		adds	r3, r2, r3
 271 000e 1B78     		ldrb	r3, [r3]
 272 0010 FB60     		str	r3, [r7, #12]
ARM GAS  C:\Users\d4hhm\AppData\Local\Temp\ccaKQYer.s 			page 10


 236:Generated_Source\PSoC4/CapSense_1_SMS.c **** 
 237:Generated_Source\PSoC4/CapSense_1_SMS.c ****     #if(0u != CapSense_1_FLEXIBLE_THRESHOLDS_EN)
 238:Generated_Source\PSoC4/CapSense_1_SMS.c ****         fingerThreshold = CapSense_1_fingerThreshold[widget];
 239:Generated_Source\PSoC4/CapSense_1_SMS.c ****         /* Update Threshold manually (flexible) */
 240:Generated_Source\PSoC4/CapSense_1_SMS.c ****         CapSense_1_noiseThreshold[widget] = (uint8)(fingerThreshold >> 1u);
 241:Generated_Source\PSoC4/CapSense_1_SMS.c ****         CapSense_1_negativeNoiseThreshold[widget] = (uint8)(fingerThreshold >> 1u);
 242:Generated_Source\PSoC4/CapSense_1_SMS.c ****         CapSense_1_hysteresis[widget] = (uint8)(fingerThreshold >> 3u);
 243:Generated_Source\PSoC4/CapSense_1_SMS.c ****     #else
 244:Generated_Source\PSoC4/CapSense_1_SMS.c ****         /* Calculate Finger Threshold and Noise Threshold with Smartsense (automatic) */
 245:Generated_Source\PSoC4/CapSense_1_SMS.c ****         CalculateThresholds_P4_v2_60(&CapSense_1_config, (uint8)sensor, (uint8)widget, CapSense_1_f
 273              		.loc 1 245 0
 274 0012 7B68     		ldr	r3, [r7, #4]
 275 0014 D9B2     		uxtb	r1, r3
 276 0016 FB68     		ldr	r3, [r7, #12]
 277 0018 DAB2     		uxtb	r2, r3
 278 001a 314C     		ldr	r4, .L17+4
 279 001c 3148     		ldr	r0, .L17+8
 280 001e 324B     		ldr	r3, .L17+12
 281 0020 0093     		str	r3, [sp]
 282 0022 2300     		movs	r3, r4
 283 0024 FFF7FEFF 		bl	CalculateThresholds_P4_v2_60
 246:Generated_Source\PSoC4/CapSense_1_SMS.c **** 
 247:Generated_Source\PSoC4/CapSense_1_SMS.c ****         fingerThreshold = CapSense_1_fingerThreshold[widget];
 284              		.loc 1 247 0
 285 0028 0B23     		movs	r3, #11
 286 002a FB18     		adds	r3, r7, r3
 287 002c 2C49     		ldr	r1, .L17+4
 288 002e FA68     		ldr	r2, [r7, #12]
 289 0030 8A18     		adds	r2, r1, r2
 290 0032 1278     		ldrb	r2, [r2]
 291 0034 1A70     		strb	r2, [r3]
 248:Generated_Source\PSoC4/CapSense_1_SMS.c **** 
 249:Generated_Source\PSoC4/CapSense_1_SMS.c ****         /* Update Threshold based on calculated with Smartsense (automatic) */
 250:Generated_Source\PSoC4/CapSense_1_SMS.c ****         CapSense_1_negativeNoiseThreshold[widget] = CapSense_1_noiseThreshold[widget];
 292              		.loc 1 250 0
 293 0036 2C4A     		ldr	r2, .L17+12
 294 0038 FB68     		ldr	r3, [r7, #12]
 295 003a D318     		adds	r3, r2, r3
 296 003c 1978     		ldrb	r1, [r3]
 297 003e 2B4A     		ldr	r2, .L17+16
 298 0040 FB68     		ldr	r3, [r7, #12]
 299 0042 D318     		adds	r3, r2, r3
 300 0044 0A1C     		adds	r2, r1, #0
 301 0046 1A70     		strb	r2, [r3]
 251:Generated_Source\PSoC4/CapSense_1_SMS.c **** 
 252:Generated_Source\PSoC4/CapSense_1_SMS.c ****         if(fingerThreshold < CapSense_1_THRESHOLD_1)
 302              		.loc 1 252 0
 303 0048 0B23     		movs	r3, #11
 304 004a FB18     		adds	r3, r7, r3
 305 004c 1B78     		ldrb	r3, [r3]
 306 004e DB2B     		cmp	r3, #219
 307 0050 0AD8     		bhi	.L11
 253:Generated_Source\PSoC4/CapSense_1_SMS.c ****         {
 254:Generated_Source\PSoC4/CapSense_1_SMS.c ****             CapSense_1_hysteresis[widget] = (uint8)(fingerThreshold >> 3u);
 308              		.loc 1 254 0
 309 0052 0B23     		movs	r3, #11
 310 0054 FB18     		adds	r3, r7, r3
ARM GAS  C:\Users\d4hhm\AppData\Local\Temp\ccaKQYer.s 			page 11


 311 0056 1B78     		ldrb	r3, [r3]
 312 0058 DB08     		lsrs	r3, r3, #3
 313 005a D9B2     		uxtb	r1, r3
 314 005c 244A     		ldr	r2, .L17+20
 315 005e FB68     		ldr	r3, [r7, #12]
 316 0060 D318     		adds	r3, r2, r3
 317 0062 0A1C     		adds	r2, r1, #0
 318 0064 1A70     		strb	r2, [r3]
 255:Generated_Source\PSoC4/CapSense_1_SMS.c ****         }
 256:Generated_Source\PSoC4/CapSense_1_SMS.c ****         else if(fingerThreshold <  CapSense_1_THRESHOLD_2)
 257:Generated_Source\PSoC4/CapSense_1_SMS.c ****         {
 258:Generated_Source\PSoC4/CapSense_1_SMS.c ****             CapSense_1_hysteresis[widget] = (uint8)(fingerThreshold >> 4u);
 259:Generated_Source\PSoC4/CapSense_1_SMS.c ****         }
 260:Generated_Source\PSoC4/CapSense_1_SMS.c ****         else if(fingerThreshold <  CapSense_1_THRESHOLD_3)
 261:Generated_Source\PSoC4/CapSense_1_SMS.c ****         {
 262:Generated_Source\PSoC4/CapSense_1_SMS.c ****             CapSense_1_hysteresis[widget] = (uint8)(fingerThreshold >> 5u);
 263:Generated_Source\PSoC4/CapSense_1_SMS.c ****         }
 264:Generated_Source\PSoC4/CapSense_1_SMS.c ****         else if(fingerThreshold <  CapSense_1_THRESHOLD_4)
 265:Generated_Source\PSoC4/CapSense_1_SMS.c ****         {
 266:Generated_Source\PSoC4/CapSense_1_SMS.c ****             CapSense_1_hysteresis[widget] = (uint8)(fingerThreshold >> 6u);
 267:Generated_Source\PSoC4/CapSense_1_SMS.c ****         }
 268:Generated_Source\PSoC4/CapSense_1_SMS.c ****         else
 269:Generated_Source\PSoC4/CapSense_1_SMS.c ****         {
 270:Generated_Source\PSoC4/CapSense_1_SMS.c ****             CapSense_1_hysteresis[widget] = 0u;
 271:Generated_Source\PSoC4/CapSense_1_SMS.c ****         }
 272:Generated_Source\PSoC4/CapSense_1_SMS.c ****     #endif /* (0u != CapSense_1_FLEXIBLE_THRESHOLDS_EN)  */
 273:Generated_Source\PSoC4/CapSense_1_SMS.c **** }
 319              		.loc 1 273 0
 320 0066 34E0     		b	.L16
 321              	.L11:
 256:Generated_Source\PSoC4/CapSense_1_SMS.c ****         {
 322              		.loc 1 256 0
 323 0068 0B23     		movs	r3, #11
 324 006a FB18     		adds	r3, r7, r3
 325 006c 1B78     		ldrb	r3, [r3]
 326 006e EC2B     		cmp	r3, #236
 327 0070 0AD8     		bhi	.L13
 258:Generated_Source\PSoC4/CapSense_1_SMS.c ****         }
 328              		.loc 1 258 0
 329 0072 0B23     		movs	r3, #11
 330 0074 FB18     		adds	r3, r7, r3
 331 0076 1B78     		ldrb	r3, [r3]
 332 0078 1B09     		lsrs	r3, r3, #4
 333 007a D9B2     		uxtb	r1, r3
 334 007c 1C4A     		ldr	r2, .L17+20
 335 007e FB68     		ldr	r3, [r7, #12]
 336 0080 D318     		adds	r3, r2, r3
 337 0082 0A1C     		adds	r2, r1, #0
 338 0084 1A70     		strb	r2, [r3]
 339              		.loc 1 273 0
 340 0086 24E0     		b	.L16
 341              	.L13:
 260:Generated_Source\PSoC4/CapSense_1_SMS.c ****         {
 342              		.loc 1 260 0
 343 0088 0B23     		movs	r3, #11
 344 008a FB18     		adds	r3, r7, r3
 345 008c 1B78     		ldrb	r3, [r3]
ARM GAS  C:\Users\d4hhm\AppData\Local\Temp\ccaKQYer.s 			page 12


 346 008e F42B     		cmp	r3, #244
 347 0090 0AD8     		bhi	.L14
 262:Generated_Source\PSoC4/CapSense_1_SMS.c ****         }
 348              		.loc 1 262 0
 349 0092 0B23     		movs	r3, #11
 350 0094 FB18     		adds	r3, r7, r3
 351 0096 1B78     		ldrb	r3, [r3]
 352 0098 5B09     		lsrs	r3, r3, #5
 353 009a D9B2     		uxtb	r1, r3
 354 009c 144A     		ldr	r2, .L17+20
 355 009e FB68     		ldr	r3, [r7, #12]
 356 00a0 D318     		adds	r3, r2, r3
 357 00a2 0A1C     		adds	r2, r1, #0
 358 00a4 1A70     		strb	r2, [r3]
 359              		.loc 1 273 0
 360 00a6 14E0     		b	.L16
 361              	.L14:
 264:Generated_Source\PSoC4/CapSense_1_SMS.c ****         {
 362              		.loc 1 264 0
 363 00a8 0B23     		movs	r3, #11
 364 00aa FB18     		adds	r3, r7, r3
 365 00ac 1B78     		ldrb	r3, [r3]
 366 00ae F92B     		cmp	r3, #249
 367 00b0 0AD8     		bhi	.L15
 266:Generated_Source\PSoC4/CapSense_1_SMS.c ****         }
 368              		.loc 1 266 0
 369 00b2 0B23     		movs	r3, #11
 370 00b4 FB18     		adds	r3, r7, r3
 371 00b6 1B78     		ldrb	r3, [r3]
 372 00b8 9B09     		lsrs	r3, r3, #6
 373 00ba D9B2     		uxtb	r1, r3
 374 00bc 0C4A     		ldr	r2, .L17+20
 375 00be FB68     		ldr	r3, [r7, #12]
 376 00c0 D318     		adds	r3, r2, r3
 377 00c2 0A1C     		adds	r2, r1, #0
 378 00c4 1A70     		strb	r2, [r3]
 379              		.loc 1 273 0
 380 00c6 04E0     		b	.L16
 381              	.L15:
 270:Generated_Source\PSoC4/CapSense_1_SMS.c ****         }
 382              		.loc 1 270 0
 383 00c8 094A     		ldr	r2, .L17+20
 384 00ca FB68     		ldr	r3, [r7, #12]
 385 00cc D318     		adds	r3, r2, r3
 386 00ce 0022     		movs	r2, #0
 387 00d0 1A70     		strb	r2, [r3]
 388              	.L16:
 389              		.loc 1 273 0
 390 00d2 C046     		nop
 391 00d4 BD46     		mov	sp, r7
 392 00d6 05B0     		add	sp, sp, #20
 393              		@ sp needed
 394 00d8 90BD     		pop	{r4, r7, pc}
 395              	.L18:
 396 00da C046     		.align	2
 397              	.L17:
 398 00dc 00000000 		.word	CapSense_1_widgetNumber
ARM GAS  C:\Users\d4hhm\AppData\Local\Temp\ccaKQYer.s 			page 13


 399 00e0 00000000 		.word	CapSense_1_fingerThreshold
 400 00e4 00000000 		.word	CapSense_1_config
 401 00e8 00000000 		.word	CapSense_1_noiseThreshold
 402 00ec 00000000 		.word	CapSense_1_negativeNoiseThreshold
 403 00f0 00000000 		.word	CapSense_1_hysteresis
 404              		.cfi_endproc
 405              	.LFE35:
 406              		.size	CapSense_1_UpdateThresholds, .-CapSense_1_UpdateThresholds
 407              		.section	.text.CapSense_1_SetAnalogSwitchesSrcDirect,"ax",%progbits
 408              		.align	2
 409              		.global	CapSense_1_SetAnalogSwitchesSrcDirect
 410              		.code	16
 411              		.thumb_func
 412              		.type	CapSense_1_SetAnalogSwitchesSrcDirect, %function
 413              	CapSense_1_SetAnalogSwitchesSrcDirect:
 414              	.LFB36:
 274:Generated_Source\PSoC4/CapSense_1_SMS.c **** 
 275:Generated_Source\PSoC4/CapSense_1_SMS.c **** /*******************************************************************************
 276:Generated_Source\PSoC4/CapSense_1_SMS.c **** * Function Name: CapSense_1_SetAnalogSwitchesSrcDirect
 277:Generated_Source\PSoC4/CapSense_1_SMS.c **** ********************************************************************************
 278:Generated_Source\PSoC4/CapSense_1_SMS.c **** *
 279:Generated_Source\PSoC4/CapSense_1_SMS.c **** * Summary:
 280:Generated_Source\PSoC4/CapSense_1_SMS.c **** *  This API switches the charge clock source to prescaler.
 281:Generated_Source\PSoC4/CapSense_1_SMS.c **** *
 282:Generated_Source\PSoC4/CapSense_1_SMS.c **** * Parameters:
 283:Generated_Source\PSoC4/CapSense_1_SMS.c **** *  None
 284:Generated_Source\PSoC4/CapSense_1_SMS.c **** *
 285:Generated_Source\PSoC4/CapSense_1_SMS.c **** * Return:
 286:Generated_Source\PSoC4/CapSense_1_SMS.c **** *  None
 287:Generated_Source\PSoC4/CapSense_1_SMS.c **** *
 288:Generated_Source\PSoC4/CapSense_1_SMS.c **** * Global Variables:
 289:Generated_Source\PSoC4/CapSense_1_SMS.c **** *  None
 290:Generated_Source\PSoC4/CapSense_1_SMS.c **** *
 291:Generated_Source\PSoC4/CapSense_1_SMS.c **** * Side Effects:
 292:Generated_Source\PSoC4/CapSense_1_SMS.c **** *  None
 293:Generated_Source\PSoC4/CapSense_1_SMS.c **** *
 294:Generated_Source\PSoC4/CapSense_1_SMS.c **** *******************************************************************************/
 295:Generated_Source\PSoC4/CapSense_1_SMS.c **** void CapSense_1_SetAnalogSwitchesSrcDirect(void)
 296:Generated_Source\PSoC4/CapSense_1_SMS.c **** {
 415              		.loc 1 296 0
 416              		.cfi_startproc
 417              		@ args = 0, pretend = 0, frame = 0
 418              		@ frame_needed = 1, uses_anonymous_args = 0
 419 0000 80B5     		push	{r7, lr}
 420              		.cfi_def_cfa_offset 8
 421              		.cfi_offset 7, -8
 422              		.cfi_offset 14, -4
 423 0002 00AF     		add	r7, sp, #0
 424              		.cfi_def_cfa_register 7
 297:Generated_Source\PSoC4/CapSense_1_SMS.c ****     CapSense_1_CSD_CFG_REG &= ~(CapSense_1_CSD_CFG_PRS_SELECT);
 425              		.loc 1 297 0
 426 0004 044B     		ldr	r3, .L20
 427 0006 044A     		ldr	r2, .L20
 428 0008 1268     		ldr	r2, [r2]
 429 000a 4021     		movs	r1, #64
 430 000c 8A43     		bics	r2, r1
 431 000e 1A60     		str	r2, [r3]
ARM GAS  C:\Users\d4hhm\AppData\Local\Temp\ccaKQYer.s 			page 14


 298:Generated_Source\PSoC4/CapSense_1_SMS.c **** }
 432              		.loc 1 298 0
 433 0010 C046     		nop
 434 0012 BD46     		mov	sp, r7
 435              		@ sp needed
 436 0014 80BD     		pop	{r7, pc}
 437              	.L21:
 438 0016 C046     		.align	2
 439              	.L20:
 440 0018 04002840 		.word	1076363268
 441              		.cfi_endproc
 442              	.LFE36:
 443              		.size	CapSense_1_SetAnalogSwitchesSrcDirect, .-CapSense_1_SetAnalogSwitchesSrcDirect
 444              		.section	.text.CapSense_1_DisableBaselineIDAC,"ax",%progbits
 445              		.align	2
 446              		.global	CapSense_1_DisableBaselineIDAC
 447              		.code	16
 448              		.thumb_func
 449              		.type	CapSense_1_DisableBaselineIDAC, %function
 450              	CapSense_1_DisableBaselineIDAC:
 451              	.LFB37:
 299:Generated_Source\PSoC4/CapSense_1_SMS.c **** 
 300:Generated_Source\PSoC4/CapSense_1_SMS.c **** 
 301:Generated_Source\PSoC4/CapSense_1_SMS.c **** /*******************************************************************************
 302:Generated_Source\PSoC4/CapSense_1_SMS.c **** * Function Name: CapSense_1_DisableBaselineIDAC
 303:Generated_Source\PSoC4/CapSense_1_SMS.c **** ********************************************************************************
 304:Generated_Source\PSoC4/CapSense_1_SMS.c **** *
 305:Generated_Source\PSoC4/CapSense_1_SMS.c **** * Summary:
 306:Generated_Source\PSoC4/CapSense_1_SMS.c **** *  The API disables the Compensation IDAC.
 307:Generated_Source\PSoC4/CapSense_1_SMS.c **** *
 308:Generated_Source\PSoC4/CapSense_1_SMS.c **** * Parameters:
 309:Generated_Source\PSoC4/CapSense_1_SMS.c **** *  None
 310:Generated_Source\PSoC4/CapSense_1_SMS.c **** *
 311:Generated_Source\PSoC4/CapSense_1_SMS.c **** * Return:
 312:Generated_Source\PSoC4/CapSense_1_SMS.c **** *  None
 313:Generated_Source\PSoC4/CapSense_1_SMS.c **** *
 314:Generated_Source\PSoC4/CapSense_1_SMS.c **** * Global Variables:
 315:Generated_Source\PSoC4/CapSense_1_SMS.c **** *  None
 316:Generated_Source\PSoC4/CapSense_1_SMS.c **** *
 317:Generated_Source\PSoC4/CapSense_1_SMS.c **** * Side Effects:
 318:Generated_Source\PSoC4/CapSense_1_SMS.c **** *  None
 319:Generated_Source\PSoC4/CapSense_1_SMS.c **** *
 320:Generated_Source\PSoC4/CapSense_1_SMS.c **** *******************************************************************************/
 321:Generated_Source\PSoC4/CapSense_1_SMS.c **** void CapSense_1_DisableBaselineIDAC(void)
 322:Generated_Source\PSoC4/CapSense_1_SMS.c **** {
 452              		.loc 1 322 0
 453              		.cfi_startproc
 454              		@ args = 0, pretend = 0, frame = 8
 455              		@ frame_needed = 1, uses_anonymous_args = 0
 456 0000 80B5     		push	{r7, lr}
 457              		.cfi_def_cfa_offset 8
 458              		.cfi_offset 7, -8
 459              		.cfi_offset 14, -4
 460 0002 82B0     		sub	sp, sp, #8
 461              		.cfi_def_cfa_offset 16
 462 0004 00AF     		add	r7, sp, #0
 463              		.cfi_def_cfa_register 7
ARM GAS  C:\Users\d4hhm\AppData\Local\Temp\ccaKQYer.s 			page 15


 323:Generated_Source\PSoC4/CapSense_1_SMS.c ****     uint32 newRegValue;
 324:Generated_Source\PSoC4/CapSense_1_SMS.c **** 
 325:Generated_Source\PSoC4/CapSense_1_SMS.c ****     newRegValue = CapSense_1_CSD_IDAC_REG;
 464              		.loc 1 325 0
 465 0006 094B     		ldr	r3, .L23
 466 0008 1B68     		ldr	r3, [r3]
 467 000a 7B60     		str	r3, [r7, #4]
 326:Generated_Source\PSoC4/CapSense_1_SMS.c **** 
 327:Generated_Source\PSoC4/CapSense_1_SMS.c ****     newRegValue &= ~(CapSense_1_CSD_IDAC1_MODE_MASK | CapSense_1_CSD_IDAC2_MODE_MASK);
 468              		.loc 1 327 0
 469 000c 7B68     		ldr	r3, [r7, #4]
 470 000e 084A     		ldr	r2, .L23+4
 471 0010 1340     		ands	r3, r2
 472 0012 7B60     		str	r3, [r7, #4]
 328:Generated_Source\PSoC4/CapSense_1_SMS.c ****     newRegValue |= CapSense_1_CSD_IDAC1_MODE_VARIABLE;
 473              		.loc 1 328 0
 474 0014 7B68     		ldr	r3, [r7, #4]
 475 0016 8022     		movs	r2, #128
 476 0018 9200     		lsls	r2, r2, #2
 477 001a 1343     		orrs	r3, r2
 478 001c 7B60     		str	r3, [r7, #4]
 329:Generated_Source\PSoC4/CapSense_1_SMS.c **** 
 330:Generated_Source\PSoC4/CapSense_1_SMS.c ****     CapSense_1_CSD_IDAC_REG = newRegValue;
 479              		.loc 1 330 0
 480 001e 034B     		ldr	r3, .L23
 481 0020 7A68     		ldr	r2, [r7, #4]
 482 0022 1A60     		str	r2, [r3]
 331:Generated_Source\PSoC4/CapSense_1_SMS.c **** }
 483              		.loc 1 331 0
 484 0024 C046     		nop
 485 0026 BD46     		mov	sp, r7
 486 0028 02B0     		add	sp, sp, #8
 487              		@ sp needed
 488 002a 80BD     		pop	{r7, pc}
 489              	.L24:
 490              		.align	2
 491              	.L23:
 492 002c 08002840 		.word	1076363272
 493 0030 FFFCFFFC 		.word	-50332417
 494              		.cfi_endproc
 495              	.LFE37:
 496              		.size	CapSense_1_DisableBaselineIDAC, .-CapSense_1_DisableBaselineIDAC
 497              		.section	.text.CapSense_1_EnableBaselineIDAC,"ax",%progbits
 498              		.align	2
 499              		.global	CapSense_1_EnableBaselineIDAC
 500              		.code	16
 501              		.thumb_func
 502              		.type	CapSense_1_EnableBaselineIDAC, %function
 503              	CapSense_1_EnableBaselineIDAC:
 504              	.LFB38:
 332:Generated_Source\PSoC4/CapSense_1_SMS.c **** 
 333:Generated_Source\PSoC4/CapSense_1_SMS.c **** 
 334:Generated_Source\PSoC4/CapSense_1_SMS.c **** /*******************************************************************************
 335:Generated_Source\PSoC4/CapSense_1_SMS.c **** * Function Name: CapSense_1_EnableBaselineIDAC
 336:Generated_Source\PSoC4/CapSense_1_SMS.c **** ********************************************************************************
 337:Generated_Source\PSoC4/CapSense_1_SMS.c **** *
 338:Generated_Source\PSoC4/CapSense_1_SMS.c **** * Summary:
ARM GAS  C:\Users\d4hhm\AppData\Local\Temp\ccaKQYer.s 			page 16


 339:Generated_Source\PSoC4/CapSense_1_SMS.c **** *  The API enables the Compensation IDAC.
 340:Generated_Source\PSoC4/CapSense_1_SMS.c **** *
 341:Generated_Source\PSoC4/CapSense_1_SMS.c **** * Parameters:
 342:Generated_Source\PSoC4/CapSense_1_SMS.c **** *  None
 343:Generated_Source\PSoC4/CapSense_1_SMS.c **** *
 344:Generated_Source\PSoC4/CapSense_1_SMS.c **** * Return:
 345:Generated_Source\PSoC4/CapSense_1_SMS.c **** *  None
 346:Generated_Source\PSoC4/CapSense_1_SMS.c **** *
 347:Generated_Source\PSoC4/CapSense_1_SMS.c **** * Global Variables:
 348:Generated_Source\PSoC4/CapSense_1_SMS.c **** *  CapSense_1_compensationIDAC[] - used to store a 7-bit idac value for all the sensors.
 349:Generated_Source\PSoC4/CapSense_1_SMS.c **** *
 350:Generated_Source\PSoC4/CapSense_1_SMS.c **** * Side Effects:
 351:Generated_Source\PSoC4/CapSense_1_SMS.c **** *  None
 352:Generated_Source\PSoC4/CapSense_1_SMS.c **** *
 353:Generated_Source\PSoC4/CapSense_1_SMS.c **** *******************************************************************************/
 354:Generated_Source\PSoC4/CapSense_1_SMS.c **** void  CapSense_1_EnableBaselineIDAC(const CapSense_1_CONFIG_TYPE_P4_v2_60 *config)
 355:Generated_Source\PSoC4/CapSense_1_SMS.c **** {
 505              		.loc 1 355 0
 506              		.cfi_startproc
 507              		@ args = 0, pretend = 0, frame = 16
 508              		@ frame_needed = 1, uses_anonymous_args = 0
 509 0000 80B5     		push	{r7, lr}
 510              		.cfi_def_cfa_offset 8
 511              		.cfi_offset 7, -8
 512              		.cfi_offset 14, -4
 513 0002 84B0     		sub	sp, sp, #16
 514              		.cfi_def_cfa_offset 24
 515 0004 00AF     		add	r7, sp, #0
 516              		.cfi_def_cfa_register 7
 517 0006 7860     		str	r0, [r7, #4]
 356:Generated_Source\PSoC4/CapSense_1_SMS.c ****     uint32 curSensor;
 357:Generated_Source\PSoC4/CapSense_1_SMS.c ****     uint32 newRegValue;
 358:Generated_Source\PSoC4/CapSense_1_SMS.c **** 
 359:Generated_Source\PSoC4/CapSense_1_SMS.c ****     for(curSensor = 0u; curSensor < config->totalScanslotsNum; curSensor++)
 518              		.loc 1 359 0
 519 0008 0023     		movs	r3, #0
 520 000a FB60     		str	r3, [r7, #12]
 521 000c 19E0     		b	.L26
 522              	.L27:
 360:Generated_Source\PSoC4/CapSense_1_SMS.c ****     {
 361:Generated_Source\PSoC4/CapSense_1_SMS.c ****         CapSense_1_compensationIDAC[curSensor] = CapSense_1_modulationIDAC[curSensor] / 2u;
 523              		.loc 1 361 0 discriminator 3
 524 000e 1C4A     		ldr	r2, .L28
 525 0010 FB68     		ldr	r3, [r7, #12]
 526 0012 D318     		adds	r3, r2, r3
 527 0014 1B78     		ldrb	r3, [r3]
 528 0016 5B08     		lsrs	r3, r3, #1
 529 0018 D9B2     		uxtb	r1, r3
 530 001a 1A4A     		ldr	r2, .L28+4
 531 001c FB68     		ldr	r3, [r7, #12]
 532 001e D318     		adds	r3, r2, r3
 533 0020 0A1C     		adds	r2, r1, #0
 534 0022 1A70     		strb	r2, [r3]
 362:Generated_Source\PSoC4/CapSense_1_SMS.c ****         CapSense_1_modulationIDAC[curSensor] = (CapSense_1_modulationIDAC[curSensor] + 1u) / 2u;
 535              		.loc 1 362 0 discriminator 3
 536 0024 164A     		ldr	r2, .L28
 537 0026 FB68     		ldr	r3, [r7, #12]
ARM GAS  C:\Users\d4hhm\AppData\Local\Temp\ccaKQYer.s 			page 17


 538 0028 D318     		adds	r3, r2, r3
 539 002a 1B78     		ldrb	r3, [r3]
 540 002c 0133     		adds	r3, r3, #1
 541 002e 5B08     		lsrs	r3, r3, #1
 542 0030 D9B2     		uxtb	r1, r3
 543 0032 134A     		ldr	r2, .L28
 544 0034 FB68     		ldr	r3, [r7, #12]
 545 0036 D318     		adds	r3, r2, r3
 546 0038 0A1C     		adds	r2, r1, #0
 547 003a 1A70     		strb	r2, [r3]
 359:Generated_Source\PSoC4/CapSense_1_SMS.c ****     {
 548              		.loc 1 359 0 discriminator 3
 549 003c FB68     		ldr	r3, [r7, #12]
 550 003e 0133     		adds	r3, r3, #1
 551 0040 FB60     		str	r3, [r7, #12]
 552              	.L26:
 359:Generated_Source\PSoC4/CapSense_1_SMS.c ****     {
 553              		.loc 1 359 0 is_stmt 0 discriminator 1
 554 0042 7B68     		ldr	r3, [r7, #4]
 555 0044 1B78     		ldrb	r3, [r3]
 556 0046 1A00     		movs	r2, r3
 557 0048 FB68     		ldr	r3, [r7, #12]
 558 004a 9A42     		cmp	r2, r3
 559 004c DFD8     		bhi	.L27
 363:Generated_Source\PSoC4/CapSense_1_SMS.c ****     }
 364:Generated_Source\PSoC4/CapSense_1_SMS.c **** 
 365:Generated_Source\PSoC4/CapSense_1_SMS.c ****     CyIntDisable(CapSense_1_ISR_NUMBER);
 560              		.loc 1 365 0 is_stmt 1
 561 004e 1020     		movs	r0, #16
 562 0050 FFF7FEFF 		bl	CyIntDisable
 366:Generated_Source\PSoC4/CapSense_1_SMS.c **** 
 367:Generated_Source\PSoC4/CapSense_1_SMS.c ****     newRegValue = CapSense_1_CSD_IDAC_REG;
 563              		.loc 1 367 0
 564 0054 0C4B     		ldr	r3, .L28+8
 565 0056 1B68     		ldr	r3, [r3]
 566 0058 BB60     		str	r3, [r7, #8]
 368:Generated_Source\PSoC4/CapSense_1_SMS.c ****     newRegValue &= ~(CapSense_1_CSD_IDAC1_MODE_MASK | CapSense_1_CSD_IDAC2_MODE_MASK);
 567              		.loc 1 368 0
 568 005a BB68     		ldr	r3, [r7, #8]
 569 005c 0B4A     		ldr	r2, .L28+12
 570 005e 1340     		ands	r3, r2
 571 0060 BB60     		str	r3, [r7, #8]
 369:Generated_Source\PSoC4/CapSense_1_SMS.c ****     newRegValue |= (CapSense_1_CSD_IDAC1_MODE_VARIABLE | CapSense_1_CSD_IDAC2_MODE_FIXED);
 572              		.loc 1 369 0
 573 0062 BB68     		ldr	r3, [r7, #8]
 574 0064 0A4A     		ldr	r2, .L28+16
 575 0066 1343     		orrs	r3, r2
 576 0068 BB60     		str	r3, [r7, #8]
 370:Generated_Source\PSoC4/CapSense_1_SMS.c ****     CapSense_1_CSD_IDAC_REG = newRegValue;
 577              		.loc 1 370 0
 578 006a 074B     		ldr	r3, .L28+8
 579 006c BA68     		ldr	r2, [r7, #8]
 580 006e 1A60     		str	r2, [r3]
 371:Generated_Source\PSoC4/CapSense_1_SMS.c **** 
 372:Generated_Source\PSoC4/CapSense_1_SMS.c ****     CyIntEnable(CapSense_1_ISR_NUMBER);
 581              		.loc 1 372 0
 582 0070 1020     		movs	r0, #16
ARM GAS  C:\Users\d4hhm\AppData\Local\Temp\ccaKQYer.s 			page 18


 583 0072 FFF7FEFF 		bl	CyIntEnable
 373:Generated_Source\PSoC4/CapSense_1_SMS.c **** }
 584              		.loc 1 373 0
 585 0076 C046     		nop
 586 0078 BD46     		mov	sp, r7
 587 007a 04B0     		add	sp, sp, #16
 588              		@ sp needed
 589 007c 80BD     		pop	{r7, pc}
 590              	.L29:
 591 007e C046     		.align	2
 592              	.L28:
 593 0080 00000000 		.word	CapSense_1_modulationIDAC
 594 0084 00000000 		.word	CapSense_1_compensationIDAC
 595 0088 08002840 		.word	1076363272
 596 008c FFFCFFFC 		.word	-50332417
 597 0090 00020001 		.word	16777728
 598              		.cfi_endproc
 599              	.LFE38:
 600              		.size	CapSense_1_EnableBaselineIDAC, .-CapSense_1_EnableBaselineIDAC
 601              		.section	.text.CapSense_1_SetSensitivity,"ax",%progbits
 602              		.align	2
 603              		.global	CapSense_1_SetSensitivity
 604              		.code	16
 605              		.thumb_func
 606              		.type	CapSense_1_SetSensitivity, %function
 607              	CapSense_1_SetSensitivity:
 608              	.LFB39:
 374:Generated_Source\PSoC4/CapSense_1_SMS.c **** 
 375:Generated_Source\PSoC4/CapSense_1_SMS.c **** 
 376:Generated_Source\PSoC4/CapSense_1_SMS.c **** /*******************************************************************************
 377:Generated_Source\PSoC4/CapSense_1_SMS.c **** * Function Name: CapSense_1_SetSensitivity
 378:Generated_Source\PSoC4/CapSense_1_SMS.c **** ********************************************************************************
 379:Generated_Source\PSoC4/CapSense_1_SMS.c **** *
 380:Generated_Source\PSoC4/CapSense_1_SMS.c **** * Summary:
 381:Generated_Source\PSoC4/CapSense_1_SMS.c **** *  This API sets the sensitivity value for the sensor. The sensitivity
 382:Generated_Source\PSoC4/CapSense_1_SMS.c **** *  value is used during the auto-tuning algorithm executed as part of the CapSense_Start API.
 383:Generated_Source\PSoC4/CapSense_1_SMS.c **** *  This API is called by the application layer prior to calling the CapSense_Start API.
 384:Generated_Source\PSoC4/CapSense_1_SMS.c **** *  Calling this API after execution of CapSense_Start API has no effect.
 385:Generated_Source\PSoC4/CapSense_1_SMS.c **** *
 386:Generated_Source\PSoC4/CapSense_1_SMS.c **** * Parameters:
 387:Generated_Source\PSoC4/CapSense_1_SMS.c **** *  sensor  Sensor index
 388:Generated_Source\PSoC4/CapSense_1_SMS.c **** *  data    Sensitivity of the sensor. Possible values are below
 389:Generated_Source\PSoC4/CapSense_1_SMS.c **** *  1 - 0.1pf sensitivity
 390:Generated_Source\PSoC4/CapSense_1_SMS.c **** *  2 - 0.2pf sensitivity
 391:Generated_Source\PSoC4/CapSense_1_SMS.c **** *  3 - 0.3pf sensitivity
 392:Generated_Source\PSoC4/CapSense_1_SMS.c **** *  4 - 0.4pf sensitivity
 393:Generated_Source\PSoC4/CapSense_1_SMS.c **** *  5 - 0.5pf sensitivity
 394:Generated_Source\PSoC4/CapSense_1_SMS.c **** *  6 - 0.6pf sensitivity
 395:Generated_Source\PSoC4/CapSense_1_SMS.c **** *  7 - 0.7pf sensitivity
 396:Generated_Source\PSoC4/CapSense_1_SMS.c **** *  8 - 0.8pf sensitivity
 397:Generated_Source\PSoC4/CapSense_1_SMS.c **** *  9 - 0.9pf sensitivity
 398:Generated_Source\PSoC4/CapSense_1_SMS.c **** *  10 - 1.0pf sensitivity
 399:Generated_Source\PSoC4/CapSense_1_SMS.c **** *  All other values, set sensitivity to 1.0pf
 400:Generated_Source\PSoC4/CapSense_1_SMS.c **** *
 401:Generated_Source\PSoC4/CapSense_1_SMS.c **** *  Return Value:
 402:Generated_Source\PSoC4/CapSense_1_SMS.c **** *   None
 403:Generated_Source\PSoC4/CapSense_1_SMS.c **** *
ARM GAS  C:\Users\d4hhm\AppData\Local\Temp\ccaKQYer.s 			page 19


 404:Generated_Source\PSoC4/CapSense_1_SMS.c **** * Global Variables:
 405:Generated_Source\PSoC4/CapSense_1_SMS.c **** * CapSense_1_sensorSensitivity[] - This 8-bits array contains Sensitivity in the LSB nibble
 406:Generated_Source\PSoC4/CapSense_1_SMS.c **** *                                and Noise Reset Counter value in the MSB nibble.
 407:Generated_Source\PSoC4/CapSense_1_SMS.c **** *
 408:Generated_Source\PSoC4/CapSense_1_SMS.c **** * Side Effects:
 409:Generated_Source\PSoC4/CapSense_1_SMS.c **** *  None
 410:Generated_Source\PSoC4/CapSense_1_SMS.c **** *
 411:Generated_Source\PSoC4/CapSense_1_SMS.c **** *******************************************************************************/
 412:Generated_Source\PSoC4/CapSense_1_SMS.c **** void CapSense_1_SetSensitivity(uint32 sensor, uint32 value)
 413:Generated_Source\PSoC4/CapSense_1_SMS.c **** {
 609              		.loc 1 413 0
 610              		.cfi_startproc
 611              		@ args = 0, pretend = 0, frame = 8
 612              		@ frame_needed = 1, uses_anonymous_args = 0
 613 0000 80B5     		push	{r7, lr}
 614              		.cfi_def_cfa_offset 8
 615              		.cfi_offset 7, -8
 616              		.cfi_offset 14, -4
 617 0002 82B0     		sub	sp, sp, #8
 618              		.cfi_def_cfa_offset 16
 619 0004 00AF     		add	r7, sp, #0
 620              		.cfi_def_cfa_register 7
 621 0006 7860     		str	r0, [r7, #4]
 622 0008 3960     		str	r1, [r7]
 414:Generated_Source\PSoC4/CapSense_1_SMS.c ****     if(value > 10u)
 623              		.loc 1 414 0
 624 000a 3B68     		ldr	r3, [r7]
 625 000c 0A2B     		cmp	r3, #10
 626 000e 01D9     		bls	.L31
 415:Generated_Source\PSoC4/CapSense_1_SMS.c ****     {
 416:Generated_Source\PSoC4/CapSense_1_SMS.c ****         value = 10u;
 627              		.loc 1 416 0
 628 0010 0A23     		movs	r3, #10
 629 0012 3B60     		str	r3, [r7]
 630              	.L31:
 417:Generated_Source\PSoC4/CapSense_1_SMS.c ****     }
 418:Generated_Source\PSoC4/CapSense_1_SMS.c **** 
 419:Generated_Source\PSoC4/CapSense_1_SMS.c ****     /* Clear SensorSensitivity value in LSB nibble */
 420:Generated_Source\PSoC4/CapSense_1_SMS.c ****     CapSense_1_sensorSensitivity[sensor] &= (uint8)~CapSense_1_SENSITIVITY_MASK;
 631              		.loc 1 420 0
 632 0014 0F4A     		ldr	r2, .L32
 633 0016 7B68     		ldr	r3, [r7, #4]
 634 0018 D318     		adds	r3, r2, r3
 635 001a 1B78     		ldrb	r3, [r3]
 636 001c 0F22     		movs	r2, #15
 637 001e 9343     		bics	r3, r2
 638 0020 D9B2     		uxtb	r1, r3
 639 0022 0C4A     		ldr	r2, .L32
 640 0024 7B68     		ldr	r3, [r7, #4]
 641 0026 D318     		adds	r3, r2, r3
 642 0028 0A1C     		adds	r2, r1, #0
 643 002a 1A70     		strb	r2, [r3]
 421:Generated_Source\PSoC4/CapSense_1_SMS.c ****     /* Set SensorSensitivity value in LSB nibble */
 422:Generated_Source\PSoC4/CapSense_1_SMS.c ****     CapSense_1_sensorSensitivity[sensor] |= (uint8)value;
 644              		.loc 1 422 0
 645 002c 094A     		ldr	r2, .L32
 646 002e 7B68     		ldr	r3, [r7, #4]
ARM GAS  C:\Users\d4hhm\AppData\Local\Temp\ccaKQYer.s 			page 20


 647 0030 D318     		adds	r3, r2, r3
 648 0032 1B78     		ldrb	r3, [r3]
 649 0034 5AB2     		sxtb	r2, r3
 650 0036 3B68     		ldr	r3, [r7]
 651 0038 5BB2     		sxtb	r3, r3
 652 003a 1343     		orrs	r3, r2
 653 003c 5BB2     		sxtb	r3, r3
 654 003e D9B2     		uxtb	r1, r3
 655 0040 044A     		ldr	r2, .L32
 656 0042 7B68     		ldr	r3, [r7, #4]
 657 0044 D318     		adds	r3, r2, r3
 658 0046 0A1C     		adds	r2, r1, #0
 659 0048 1A70     		strb	r2, [r3]
 423:Generated_Source\PSoC4/CapSense_1_SMS.c **** }
 660              		.loc 1 423 0
 661 004a C046     		nop
 662 004c BD46     		mov	sp, r7
 663 004e 02B0     		add	sp, sp, #8
 664              		@ sp needed
 665 0050 80BD     		pop	{r7, pc}
 666              	.L33:
 667 0052 C046     		.align	2
 668              	.L32:
 669 0054 00000000 		.word	CapSense_1_sensorSensitivity
 670              		.cfi_endproc
 671              	.LFE39:
 672              		.size	CapSense_1_SetSensitivity, .-CapSense_1_SetSensitivity
 673              		.section	.text.CapSense_1_GetSensitivityCoefficient,"ax",%progbits
 674              		.align	2
 675              		.global	CapSense_1_GetSensitivityCoefficient
 676              		.code	16
 677              		.thumb_func
 678              		.type	CapSense_1_GetSensitivityCoefficient, %function
 679              	CapSense_1_GetSensitivityCoefficient:
 680              	.LFB40:
 424:Generated_Source\PSoC4/CapSense_1_SMS.c **** 
 425:Generated_Source\PSoC4/CapSense_1_SMS.c **** 
 426:Generated_Source\PSoC4/CapSense_1_SMS.c **** /*******************************************************************************
 427:Generated_Source\PSoC4/CapSense_1_SMS.c **** * Function Name: CapSense_1_GetSensitivityCoefficient
 428:Generated_Source\PSoC4/CapSense_1_SMS.c **** ********************************************************************************
 429:Generated_Source\PSoC4/CapSense_1_SMS.c **** *
 430:Generated_Source\PSoC4/CapSense_1_SMS.c **** * Summary:
 431:Generated_Source\PSoC4/CapSense_1_SMS.c **** *  This API returns the K coefficient for the appropriate sensor.
 432:Generated_Source\PSoC4/CapSense_1_SMS.c **** *
 433:Generated_Source\PSoC4/CapSense_1_SMS.c **** * Parameters:
 434:Generated_Source\PSoC4/CapSense_1_SMS.c **** *  sensor:  Sensor index
 435:Generated_Source\PSoC4/CapSense_1_SMS.c **** *
 436:Generated_Source\PSoC4/CapSense_1_SMS.c **** *  Return Value:
 437:Generated_Source\PSoC4/CapSense_1_SMS.c **** *   K - value for the appropriate sensor.
 438:Generated_Source\PSoC4/CapSense_1_SMS.c **** *
 439:Generated_Source\PSoC4/CapSense_1_SMS.c **** * Global Variables:
 440:Generated_Source\PSoC4/CapSense_1_SMS.c **** *  CapSense_1_kValueTbl[] - This 8-bits array contains the K value for each sensor.
 441:Generated_Source\PSoC4/CapSense_1_SMS.c **** *
 442:Generated_Source\PSoC4/CapSense_1_SMS.c **** * Side Effects:
 443:Generated_Source\PSoC4/CapSense_1_SMS.c **** *  None
 444:Generated_Source\PSoC4/CapSense_1_SMS.c **** *
 445:Generated_Source\PSoC4/CapSense_1_SMS.c **** *******************************************************************************/
ARM GAS  C:\Users\d4hhm\AppData\Local\Temp\ccaKQYer.s 			page 21


 446:Generated_Source\PSoC4/CapSense_1_SMS.c **** uint8 CapSense_1_GetSensitivityCoefficient(uint32 sensor)
 447:Generated_Source\PSoC4/CapSense_1_SMS.c **** {
 681              		.loc 1 447 0
 682              		.cfi_startproc
 683              		@ args = 0, pretend = 0, frame = 8
 684              		@ frame_needed = 1, uses_anonymous_args = 0
 685 0000 80B5     		push	{r7, lr}
 686              		.cfi_def_cfa_offset 8
 687              		.cfi_offset 7, -8
 688              		.cfi_offset 14, -4
 689 0002 82B0     		sub	sp, sp, #8
 690              		.cfi_def_cfa_offset 16
 691 0004 00AF     		add	r7, sp, #0
 692              		.cfi_def_cfa_register 7
 693 0006 7860     		str	r0, [r7, #4]
 448:Generated_Source\PSoC4/CapSense_1_SMS.c ****     return (CapSense_1_kValueTbl[sensor]);
 694              		.loc 1 448 0
 695 0008 034A     		ldr	r2, .L36
 696 000a 7B68     		ldr	r3, [r7, #4]
 697 000c D318     		adds	r3, r2, r3
 698 000e 1B78     		ldrb	r3, [r3]
 449:Generated_Source\PSoC4/CapSense_1_SMS.c **** }
 699              		.loc 1 449 0
 700 0010 1800     		movs	r0, r3
 701 0012 BD46     		mov	sp, r7
 702 0014 02B0     		add	sp, sp, #8
 703              		@ sp needed
 704 0016 80BD     		pop	{r7, pc}
 705              	.L37:
 706              		.align	2
 707              	.L36:
 708 0018 00000000 		.word	CapSense_1_kValueTbl
 709              		.cfi_endproc
 710              	.LFE40:
 711              		.size	CapSense_1_GetSensitivityCoefficient, .-CapSense_1_GetSensitivityCoefficient
 712              		.section	.text.CapSense_1_GetNoiseEnvelope,"ax",%progbits
 713              		.align	2
 714              		.global	CapSense_1_GetNoiseEnvelope
 715              		.code	16
 716              		.thumb_func
 717              		.type	CapSense_1_GetNoiseEnvelope, %function
 718              	CapSense_1_GetNoiseEnvelope:
 719              	.LFB41:
 450:Generated_Source\PSoC4/CapSense_1_SMS.c **** 
 451:Generated_Source\PSoC4/CapSense_1_SMS.c **** 
 452:Generated_Source\PSoC4/CapSense_1_SMS.c **** /*******************************************************************************
 453:Generated_Source\PSoC4/CapSense_1_SMS.c **** * Function Name: CapSense_1_GetNoiseEnvelope
 454:Generated_Source\PSoC4/CapSense_1_SMS.c **** ********************************************************************************
 455:Generated_Source\PSoC4/CapSense_1_SMS.c **** *
 456:Generated_Source\PSoC4/CapSense_1_SMS.c **** * Summary:
 457:Generated_Source\PSoC4/CapSense_1_SMS.c **** *  This function returns the noise value of a
 458:Generated_Source\PSoC4/CapSense_1_SMS.c **** *  component.
 459:Generated_Source\PSoC4/CapSense_1_SMS.c **** *
 460:Generated_Source\PSoC4/CapSense_1_SMS.c **** * Parameters:
 461:Generated_Source\PSoC4/CapSense_1_SMS.c **** *  sensor - Sensor number.
 462:Generated_Source\PSoC4/CapSense_1_SMS.c **** *
 463:Generated_Source\PSoC4/CapSense_1_SMS.c **** * Return:
ARM GAS  C:\Users\d4hhm\AppData\Local\Temp\ccaKQYer.s 			page 22


 464:Generated_Source\PSoC4/CapSense_1_SMS.c **** *  The noise envelope value of the sensor
 465:Generated_Source\PSoC4/CapSense_1_SMS.c **** *  indicated by argument.
 466:Generated_Source\PSoC4/CapSense_1_SMS.c **** *
 467:Generated_Source\PSoC4/CapSense_1_SMS.c **** * Global Variables:
 468:Generated_Source\PSoC4/CapSense_1_SMS.c **** *  CapSense_1_noiseEnvelopeTbl[] - array with Noise Envelope.
 469:Generated_Source\PSoC4/CapSense_1_SMS.c **** *
 470:Generated_Source\PSoC4/CapSense_1_SMS.c **** * Side Effects:
 471:Generated_Source\PSoC4/CapSense_1_SMS.c **** *  None
 472:Generated_Source\PSoC4/CapSense_1_SMS.c **** *
 473:Generated_Source\PSoC4/CapSense_1_SMS.c **** *******************************************************************************/
 474:Generated_Source\PSoC4/CapSense_1_SMS.c **** uint16 CapSense_1_GetNoiseEnvelope(uint32 sensor)
 475:Generated_Source\PSoC4/CapSense_1_SMS.c **** {
 720              		.loc 1 475 0
 721              		.cfi_startproc
 722              		@ args = 0, pretend = 0, frame = 8
 723              		@ frame_needed = 1, uses_anonymous_args = 0
 724 0000 80B5     		push	{r7, lr}
 725              		.cfi_def_cfa_offset 8
 726              		.cfi_offset 7, -8
 727              		.cfi_offset 14, -4
 728 0002 82B0     		sub	sp, sp, #8
 729              		.cfi_def_cfa_offset 16
 730 0004 00AF     		add	r7, sp, #0
 731              		.cfi_def_cfa_register 7
 732 0006 7860     		str	r0, [r7, #4]
 476:Generated_Source\PSoC4/CapSense_1_SMS.c ****     return((uint16)((uint16)CapSense_1_noiseEnvelopeTbl[sensor] << 1u) + 1u);
 733              		.loc 1 476 0
 734 0008 064A     		ldr	r2, .L40
 735 000a 7B68     		ldr	r3, [r7, #4]
 736 000c D318     		adds	r3, r2, r3
 737 000e 1B78     		ldrb	r3, [r3]
 738 0010 9BB2     		uxth	r3, r3
 739 0012 DB18     		adds	r3, r3, r3
 740 0014 9BB2     		uxth	r3, r3
 741 0016 0133     		adds	r3, r3, #1
 742 0018 9BB2     		uxth	r3, r3
 477:Generated_Source\PSoC4/CapSense_1_SMS.c **** }
 743              		.loc 1 477 0
 744 001a 1800     		movs	r0, r3
 745 001c BD46     		mov	sp, r7
 746 001e 02B0     		add	sp, sp, #8
 747              		@ sp needed
 748 0020 80BD     		pop	{r7, pc}
 749              	.L41:
 750 0022 C046     		.align	2
 751              	.L40:
 752 0024 00000000 		.word	CapSense_1_noiseEnvelopeTbl
 753              		.cfi_endproc
 754              	.LFE41:
 755              		.size	CapSense_1_GetNoiseEnvelope, .-CapSense_1_GetNoiseEnvelope
 756              		.global	__aeabi_uidiv
 757              		.section	.text.CapSense_1_GetNormalizedDiffCountData,"ax",%progbits
 758              		.align	2
 759              		.global	CapSense_1_GetNormalizedDiffCountData
 760              		.code	16
 761              		.thumb_func
 762              		.type	CapSense_1_GetNormalizedDiffCountData, %function
ARM GAS  C:\Users\d4hhm\AppData\Local\Temp\ccaKQYer.s 			page 23


 763              	CapSense_1_GetNormalizedDiffCountData:
 764              	.LFB42:
 478:Generated_Source\PSoC4/CapSense_1_SMS.c **** 
 479:Generated_Source\PSoC4/CapSense_1_SMS.c **** 
 480:Generated_Source\PSoC4/CapSense_1_SMS.c **** /*******************************************************************************
 481:Generated_Source\PSoC4/CapSense_1_SMS.c **** * Function Name: CapSense_1_GetNormalizedDiffCountData
 482:Generated_Source\PSoC4/CapSense_1_SMS.c **** ********************************************************************************
 483:Generated_Source\PSoC4/CapSense_1_SMS.c **** *
 484:Generated_Source\PSoC4/CapSense_1_SMS.c **** * Summary:
 485:Generated_Source\PSoC4/CapSense_1_SMS.c **** *  This API returns normalized difference count data.
 486:Generated_Source\PSoC4/CapSense_1_SMS.c **** *
 487:Generated_Source\PSoC4/CapSense_1_SMS.c **** * Parameters:
 488:Generated_Source\PSoC4/CapSense_1_SMS.c **** *  sensor:  Sensor number.
 489:Generated_Source\PSoC4/CapSense_1_SMS.c **** *
 490:Generated_Source\PSoC4/CapSense_1_SMS.c **** * Return:
 491:Generated_Source\PSoC4/CapSense_1_SMS.c **** *  This API returns a normalized count value of the sensor indicated by the
 492:Generated_Source\PSoC4/CapSense_1_SMS.c **** *  argument.
 493:Generated_Source\PSoC4/CapSense_1_SMS.c **** *
 494:Generated_Source\PSoC4/CapSense_1_SMS.c **** * Global Variables:
 495:Generated_Source\PSoC4/CapSense_1_SMS.c **** *  CapSense_1_sensorSignal[] - array with difference counts for sensors
 496:Generated_Source\PSoC4/CapSense_1_SMS.c **** *
 497:Generated_Source\PSoC4/CapSense_1_SMS.c **** * Side Effects:
 498:Generated_Source\PSoC4/CapSense_1_SMS.c **** *  None
 499:Generated_Source\PSoC4/CapSense_1_SMS.c **** *
 500:Generated_Source\PSoC4/CapSense_1_SMS.c **** *******************************************************************************/
 501:Generated_Source\PSoC4/CapSense_1_SMS.c **** uint16 CapSense_1_GetNormalizedDiffCountData(uint32 sensor)
 502:Generated_Source\PSoC4/CapSense_1_SMS.c **** {
 765              		.loc 1 502 0
 766              		.cfi_startproc
 767              		@ args = 0, pretend = 0, frame = 8
 768              		@ frame_needed = 1, uses_anonymous_args = 0
 769 0000 80B5     		push	{r7, lr}
 770              		.cfi_def_cfa_offset 8
 771              		.cfi_offset 7, -8
 772              		.cfi_offset 14, -4
 773 0002 82B0     		sub	sp, sp, #8
 774              		.cfi_def_cfa_offset 16
 775 0004 00AF     		add	r7, sp, #0
 776              		.cfi_def_cfa_register 7
 777 0006 7860     		str	r0, [r7, #4]
 503:Generated_Source\PSoC4/CapSense_1_SMS.c ****     return (uint16)(((uint32)CapSense_1_sensorSignal[sensor] << 7u) / CapSense_1_kValueTbl[sensor])
 778              		.loc 1 503 0
 779 0008 084A     		ldr	r2, .L44
 780 000a 7B68     		ldr	r3, [r7, #4]
 781 000c D318     		adds	r3, r2, r3
 782 000e 1B78     		ldrb	r3, [r3]
 783 0010 D801     		lsls	r0, r3, #7
 784 0012 074A     		ldr	r2, .L44+4
 785 0014 7B68     		ldr	r3, [r7, #4]
 786 0016 D318     		adds	r3, r2, r3
 787 0018 1B78     		ldrb	r3, [r3]
 788 001a 1900     		movs	r1, r3
 789 001c FFF7FEFF 		bl	__aeabi_uidiv
 790 0020 0300     		movs	r3, r0
 791 0022 9BB2     		uxth	r3, r3
 504:Generated_Source\PSoC4/CapSense_1_SMS.c **** }
 792              		.loc 1 504 0
ARM GAS  C:\Users\d4hhm\AppData\Local\Temp\ccaKQYer.s 			page 24


 793 0024 1800     		movs	r0, r3
 794 0026 BD46     		mov	sp, r7
 795 0028 02B0     		add	sp, sp, #8
 796              		@ sp needed
 797 002a 80BD     		pop	{r7, pc}
 798              	.L45:
 799              		.align	2
 800              	.L44:
 801 002c 00000000 		.word	CapSense_1_sensorSignal
 802 0030 00000000 		.word	CapSense_1_kValueTbl
 803              		.cfi_endproc
 804              	.LFE42:
 805              		.size	CapSense_1_GetNormalizedDiffCountData, .-CapSense_1_GetNormalizedDiffCountData
 806              		.text
 807              	.Letext0:
 808              		.file 2 "Generated_Source\\PSoC4\\cytypes.h"
 809              		.file 3 "Generated_Source\\PSoC4\\CapSense_1_PVT.h"
 810              		.file 4 "Generated_Source\\PSoC4\\CapSense_1.h"
 811              		.file 5 "Generated_Source\\PSoC4\\CapSense_1_CSHL.h"