ARM GAS  C:\Users\d4hhm\AppData\Local\Temp\ccL7RPka.s 			page 1


   1              		.syntax unified
   2              		.cpu cortex-m0
   3              		.fpu softvfp
   4              		.eabi_attribute 20, 1
   5              		.eabi_attribute 21, 1
   6              		.eabi_attribute 23, 3
   7              		.eabi_attribute 24, 1
   8              		.eabi_attribute 25, 1
   9              		.eabi_attribute 26, 1
  10              		.eabi_attribute 30, 6
  11              		.eabi_attribute 34, 0
  12              		.eabi_attribute 18, 4
  13              		.thumb
  14              		.syntax unified
  15              		.file	"cyfitter_cfg.c"
  16              		.text
  17              	.Ltext0:
  18              		.cfi_sections	.debug_frame
  19              		.section	.text.CYMEMZERO,"ax",%progbits
  20              		.align	2
  21              		.code	16
  22              		.thumb_func
  23              		.type	CYMEMZERO, %function
  24              	CYMEMZERO:
  25              	.LFB2:
  26              		.file 1 "Generated_Source\\PSoC4\\cyfitter_cfg.c"
   1:Generated_Source\PSoC4/cyfitter_cfg.c **** 
   2:Generated_Source\PSoC4/cyfitter_cfg.c **** /*******************************************************************************
   3:Generated_Source\PSoC4/cyfitter_cfg.c **** * File Name: cyfitter_cfg.c
   4:Generated_Source\PSoC4/cyfitter_cfg.c **** * 
   5:Generated_Source\PSoC4/cyfitter_cfg.c **** * PSoC Creator  4.2
   6:Generated_Source\PSoC4/cyfitter_cfg.c **** *
   7:Generated_Source\PSoC4/cyfitter_cfg.c **** * Description:
   8:Generated_Source\PSoC4/cyfitter_cfg.c **** * This file contains device initialization code.
   9:Generated_Source\PSoC4/cyfitter_cfg.c **** * Except for the user defined sections in CyClockStartupError(), this file should not be modified.
  10:Generated_Source\PSoC4/cyfitter_cfg.c **** * This file is automatically generated by PSoC Creator.
  11:Generated_Source\PSoC4/cyfitter_cfg.c **** *
  12:Generated_Source\PSoC4/cyfitter_cfg.c **** ********************************************************************************
  13:Generated_Source\PSoC4/cyfitter_cfg.c **** * Copyright (c) 2007-2018 Cypress Semiconductor.  All rights reserved.
  14:Generated_Source\PSoC4/cyfitter_cfg.c **** * You may use this file only in accordance with the license, terms, conditions, 
  15:Generated_Source\PSoC4/cyfitter_cfg.c **** * disclaimers, and limitations in the end user license agreement accompanying 
  16:Generated_Source\PSoC4/cyfitter_cfg.c **** * the software package with which this file was provided.
  17:Generated_Source\PSoC4/cyfitter_cfg.c **** ********************************************************************************/
  18:Generated_Source\PSoC4/cyfitter_cfg.c **** 
  19:Generated_Source\PSoC4/cyfitter_cfg.c **** #include <string.h>
  20:Generated_Source\PSoC4/cyfitter_cfg.c **** #include "cytypes.h"
  21:Generated_Source\PSoC4/cyfitter_cfg.c **** #include "cydevice_trm.h"
  22:Generated_Source\PSoC4/cyfitter_cfg.c **** #include "cyfitter.h"
  23:Generated_Source\PSoC4/cyfitter_cfg.c **** #include "CyLib.h"
  24:Generated_Source\PSoC4/cyfitter_cfg.c **** #include "CyLFClk.h"
  25:Generated_Source\PSoC4/cyfitter_cfg.c **** #include "cyfitter_cfg.h"
  26:Generated_Source\PSoC4/cyfitter_cfg.c **** #include "cyapicallbacks.h"
  27:Generated_Source\PSoC4/cyfitter_cfg.c **** 
  28:Generated_Source\PSoC4/cyfitter_cfg.c **** #define CY_NEED_CYCLOCKSTARTUPERROR 1
  29:Generated_Source\PSoC4/cyfitter_cfg.c **** 
  30:Generated_Source\PSoC4/cyfitter_cfg.c **** 
  31:Generated_Source\PSoC4/cyfitter_cfg.c **** #if defined(__GNUC__) || defined(__ARMCC_VERSION)
ARM GAS  C:\Users\d4hhm\AppData\Local\Temp\ccL7RPka.s 			page 2


  32:Generated_Source\PSoC4/cyfitter_cfg.c ****     #define CYPACKED 
  33:Generated_Source\PSoC4/cyfitter_cfg.c ****     #define CYPACKED_ATTR __attribute__ ((packed))
  34:Generated_Source\PSoC4/cyfitter_cfg.c ****     #define CYALIGNED __attribute__ ((aligned))
  35:Generated_Source\PSoC4/cyfitter_cfg.c ****     #define CY_CFG_UNUSED __attribute__ ((unused))
  36:Generated_Source\PSoC4/cyfitter_cfg.c ****     #ifndef CY_CFG_SECTION
  37:Generated_Source\PSoC4/cyfitter_cfg.c ****         #define CY_CFG_SECTION __attribute__ ((section(".psocinit")))
  38:Generated_Source\PSoC4/cyfitter_cfg.c ****     #endif
  39:Generated_Source\PSoC4/cyfitter_cfg.c ****     
  40:Generated_Source\PSoC4/cyfitter_cfg.c ****     #if defined(__ARMCC_VERSION)
  41:Generated_Source\PSoC4/cyfitter_cfg.c ****         #define CY_CFG_MEMORY_BARRIER() __memory_changed()
  42:Generated_Source\PSoC4/cyfitter_cfg.c ****     #else
  43:Generated_Source\PSoC4/cyfitter_cfg.c ****         #define CY_CFG_MEMORY_BARRIER() __sync_synchronize()
  44:Generated_Source\PSoC4/cyfitter_cfg.c ****     #endif
  45:Generated_Source\PSoC4/cyfitter_cfg.c ****     
  46:Generated_Source\PSoC4/cyfitter_cfg.c **** #elif defined(__ICCARM__)
  47:Generated_Source\PSoC4/cyfitter_cfg.c ****     #include <intrinsics.h>
  48:Generated_Source\PSoC4/cyfitter_cfg.c **** 
  49:Generated_Source\PSoC4/cyfitter_cfg.c ****     #define CYPACKED __packed
  50:Generated_Source\PSoC4/cyfitter_cfg.c ****     #define CYPACKED_ATTR 
  51:Generated_Source\PSoC4/cyfitter_cfg.c ****     #define CYALIGNED _Pragma("data_alignment=4")
  52:Generated_Source\PSoC4/cyfitter_cfg.c ****     #define CY_CFG_UNUSED _Pragma("diag_suppress=Pe177")
  53:Generated_Source\PSoC4/cyfitter_cfg.c ****     #define CY_CFG_SECTION _Pragma("location=\".psocinit\"")
  54:Generated_Source\PSoC4/cyfitter_cfg.c ****     
  55:Generated_Source\PSoC4/cyfitter_cfg.c ****     #define CY_CFG_MEMORY_BARRIER() __DMB()
  56:Generated_Source\PSoC4/cyfitter_cfg.c ****     
  57:Generated_Source\PSoC4/cyfitter_cfg.c **** #else
  58:Generated_Source\PSoC4/cyfitter_cfg.c ****     #error Unsupported toolchain
  59:Generated_Source\PSoC4/cyfitter_cfg.c **** #endif
  60:Generated_Source\PSoC4/cyfitter_cfg.c **** 
  61:Generated_Source\PSoC4/cyfitter_cfg.c **** #ifndef CYCODE
  62:Generated_Source\PSoC4/cyfitter_cfg.c ****     #define CYCODE
  63:Generated_Source\PSoC4/cyfitter_cfg.c **** #endif
  64:Generated_Source\PSoC4/cyfitter_cfg.c **** #ifndef CYDATA
  65:Generated_Source\PSoC4/cyfitter_cfg.c ****     #define CYDATA
  66:Generated_Source\PSoC4/cyfitter_cfg.c **** #endif
  67:Generated_Source\PSoC4/cyfitter_cfg.c **** #ifndef CYFAR
  68:Generated_Source\PSoC4/cyfitter_cfg.c ****     #define CYFAR
  69:Generated_Source\PSoC4/cyfitter_cfg.c **** #endif
  70:Generated_Source\PSoC4/cyfitter_cfg.c **** #ifndef CYXDATA
  71:Generated_Source\PSoC4/cyfitter_cfg.c ****     #define CYXDATA
  72:Generated_Source\PSoC4/cyfitter_cfg.c **** #endif
  73:Generated_Source\PSoC4/cyfitter_cfg.c **** 
  74:Generated_Source\PSoC4/cyfitter_cfg.c **** 
  75:Generated_Source\PSoC4/cyfitter_cfg.c **** CY_CFG_UNUSED
  76:Generated_Source\PSoC4/cyfitter_cfg.c **** static void CYMEMZERO(void *s, size_t n);
  77:Generated_Source\PSoC4/cyfitter_cfg.c **** CY_CFG_UNUSED
  78:Generated_Source\PSoC4/cyfitter_cfg.c **** static void CYMEMZERO(void *s, size_t n)
  79:Generated_Source\PSoC4/cyfitter_cfg.c **** {
  27              		.loc 1 79 0
  28              		.cfi_startproc
  29              		@ args = 0, pretend = 0, frame = 8
  30              		@ frame_needed = 1, uses_anonymous_args = 0
  31 0000 80B5     		push	{r7, lr}
  32              		.cfi_def_cfa_offset 8
  33              		.cfi_offset 7, -8
  34              		.cfi_offset 14, -4
  35 0002 82B0     		sub	sp, sp, #8
ARM GAS  C:\Users\d4hhm\AppData\Local\Temp\ccL7RPka.s 			page 3


  36              		.cfi_def_cfa_offset 16
  37 0004 00AF     		add	r7, sp, #0
  38              		.cfi_def_cfa_register 7
  39 0006 7860     		str	r0, [r7, #4]
  40 0008 3960     		str	r1, [r7]
  80:Generated_Source\PSoC4/cyfitter_cfg.c **** 	(void)memset(s, 0, n);
  41              		.loc 1 80 0
  42 000a 3A68     		ldr	r2, [r7]
  43 000c 7B68     		ldr	r3, [r7, #4]
  44 000e 0021     		movs	r1, #0
  45 0010 1800     		movs	r0, r3
  46 0012 FFF7FEFF 		bl	memset
  81:Generated_Source\PSoC4/cyfitter_cfg.c **** }
  47              		.loc 1 81 0
  48 0016 C046     		nop
  49 0018 BD46     		mov	sp, r7
  50 001a 02B0     		add	sp, sp, #8
  51              		@ sp needed
  52 001c 80BD     		pop	{r7, pc}
  53              		.cfi_endproc
  54              	.LFE2:
  55              		.size	CYMEMZERO, .-CYMEMZERO
  56 001e C046     		.section	.text.CYCONFIGCPY,"ax",%progbits
  57              		.align	2
  58              		.code	16
  59              		.thumb_func
  60              		.type	CYCONFIGCPY, %function
  61              	CYCONFIGCPY:
  62              	.LFB3:
  82:Generated_Source\PSoC4/cyfitter_cfg.c **** CY_CFG_UNUSED
  83:Generated_Source\PSoC4/cyfitter_cfg.c **** static void CYCONFIGCPY(void *dest, const void *src, size_t n);
  84:Generated_Source\PSoC4/cyfitter_cfg.c **** CY_CFG_UNUSED
  85:Generated_Source\PSoC4/cyfitter_cfg.c **** static void CYCONFIGCPY(void *dest, const void *src, size_t n)
  86:Generated_Source\PSoC4/cyfitter_cfg.c **** {
  63              		.loc 1 86 0
  64              		.cfi_startproc
  65              		@ args = 0, pretend = 0, frame = 16
  66              		@ frame_needed = 1, uses_anonymous_args = 0
  67 0000 80B5     		push	{r7, lr}
  68              		.cfi_def_cfa_offset 8
  69              		.cfi_offset 7, -8
  70              		.cfi_offset 14, -4
  71 0002 84B0     		sub	sp, sp, #16
  72              		.cfi_def_cfa_offset 24
  73 0004 00AF     		add	r7, sp, #0
  74              		.cfi_def_cfa_register 7
  75 0006 F860     		str	r0, [r7, #12]
  76 0008 B960     		str	r1, [r7, #8]
  77 000a 7A60     		str	r2, [r7, #4]
  87:Generated_Source\PSoC4/cyfitter_cfg.c **** 	(void)memcpy(dest, src, n);
  78              		.loc 1 87 0
  79 000c 7A68     		ldr	r2, [r7, #4]
  80 000e B968     		ldr	r1, [r7, #8]
  81 0010 FB68     		ldr	r3, [r7, #12]
  82 0012 1800     		movs	r0, r3
  83 0014 FFF7FEFF 		bl	memcpy
  88:Generated_Source\PSoC4/cyfitter_cfg.c **** }
ARM GAS  C:\Users\d4hhm\AppData\Local\Temp\ccL7RPka.s 			page 4


  84              		.loc 1 88 0
  85 0018 C046     		nop
  86 001a BD46     		mov	sp, r7
  87 001c 04B0     		add	sp, sp, #16
  88              		@ sp needed
  89 001e 80BD     		pop	{r7, pc}
  90              		.cfi_endproc
  91              	.LFE3:
  92              		.size	CYCONFIGCPY, .-CYCONFIGCPY
  93              		.section	.text.CYCONFIGCPYCODE,"ax",%progbits
  94              		.align	2
  95              		.code	16
  96              		.thumb_func
  97              		.type	CYCONFIGCPYCODE, %function
  98              	CYCONFIGCPYCODE:
  99              	.LFB4:
  89:Generated_Source\PSoC4/cyfitter_cfg.c **** CY_CFG_UNUSED
  90:Generated_Source\PSoC4/cyfitter_cfg.c **** static void CYCONFIGCPYCODE(void *dest, const void *src, size_t n);
  91:Generated_Source\PSoC4/cyfitter_cfg.c **** CY_CFG_UNUSED
  92:Generated_Source\PSoC4/cyfitter_cfg.c **** static void CYCONFIGCPYCODE(void *dest, const void *src, size_t n)
  93:Generated_Source\PSoC4/cyfitter_cfg.c **** {
 100              		.loc 1 93 0
 101              		.cfi_startproc
 102              		@ args = 0, pretend = 0, frame = 16
 103              		@ frame_needed = 1, uses_anonymous_args = 0
 104 0000 80B5     		push	{r7, lr}
 105              		.cfi_def_cfa_offset 8
 106              		.cfi_offset 7, -8
 107              		.cfi_offset 14, -4
 108 0002 84B0     		sub	sp, sp, #16
 109              		.cfi_def_cfa_offset 24
 110 0004 00AF     		add	r7, sp, #0
 111              		.cfi_def_cfa_register 7
 112 0006 F860     		str	r0, [r7, #12]
 113 0008 B960     		str	r1, [r7, #8]
 114 000a 7A60     		str	r2, [r7, #4]
  94:Generated_Source\PSoC4/cyfitter_cfg.c **** 	(void)memcpy(dest, src, n);
 115              		.loc 1 94 0
 116 000c 7A68     		ldr	r2, [r7, #4]
 117 000e B968     		ldr	r1, [r7, #8]
 118 0010 FB68     		ldr	r3, [r7, #12]
 119 0012 1800     		movs	r0, r3
 120 0014 FFF7FEFF 		bl	memcpy
  95:Generated_Source\PSoC4/cyfitter_cfg.c **** }
 121              		.loc 1 95 0
 122 0018 C046     		nop
 123 001a BD46     		mov	sp, r7
 124 001c 04B0     		add	sp, sp, #16
 125              		@ sp needed
 126 001e 80BD     		pop	{r7, pc}
 127              		.cfi_endproc
 128              	.LFE4:
 129              		.size	CYCONFIGCPYCODE, .-CYCONFIGCPYCODE
 130              		.section	.text.CyClockStartupError,"ax",%progbits
 131              		.align	2
 132              		.code	16
 133              		.thumb_func
ARM GAS  C:\Users\d4hhm\AppData\Local\Temp\ccL7RPka.s 			page 5


 134              		.type	CyClockStartupError, %function
 135              	CyClockStartupError:
 136              	.LFB5:
  96:Generated_Source\PSoC4/cyfitter_cfg.c **** 
  97:Generated_Source\PSoC4/cyfitter_cfg.c **** 
  98:Generated_Source\PSoC4/cyfitter_cfg.c **** 
  99:Generated_Source\PSoC4/cyfitter_cfg.c **** 
 100:Generated_Source\PSoC4/cyfitter_cfg.c **** /* Clock startup error codes                                                   */
 101:Generated_Source\PSoC4/cyfitter_cfg.c **** #define CYCLOCKSTART_NO_ERROR    0u
 102:Generated_Source\PSoC4/cyfitter_cfg.c **** #define CYCLOCKSTART_XTAL_ERROR  1u
 103:Generated_Source\PSoC4/cyfitter_cfg.c **** #define CYCLOCKSTART_32KHZ_ERROR 2u
 104:Generated_Source\PSoC4/cyfitter_cfg.c **** #define CYCLOCKSTART_PLL_ERROR   3u
 105:Generated_Source\PSoC4/cyfitter_cfg.c **** #define CYCLOCKSTART_FLL_ERROR   4u
 106:Generated_Source\PSoC4/cyfitter_cfg.c **** #define CYCLOCKSTART_WCO_ERROR   5u
 107:Generated_Source\PSoC4/cyfitter_cfg.c **** 
 108:Generated_Source\PSoC4/cyfitter_cfg.c **** 
 109:Generated_Source\PSoC4/cyfitter_cfg.c **** #ifdef CY_NEED_CYCLOCKSTARTUPERROR
 110:Generated_Source\PSoC4/cyfitter_cfg.c **** /*******************************************************************************
 111:Generated_Source\PSoC4/cyfitter_cfg.c **** * Function Name: CyClockStartupError
 112:Generated_Source\PSoC4/cyfitter_cfg.c **** ********************************************************************************
 113:Generated_Source\PSoC4/cyfitter_cfg.c **** * Summary:
 114:Generated_Source\PSoC4/cyfitter_cfg.c **** *  If an error is encountered during clock configuration (crystal startup error,
 115:Generated_Source\PSoC4/cyfitter_cfg.c **** *  PLL lock error, etc.), the system will end up here.  Unless reimplemented by
 116:Generated_Source\PSoC4/cyfitter_cfg.c **** *  the customer, this function will stop in an infinite loop.
 117:Generated_Source\PSoC4/cyfitter_cfg.c **** *
 118:Generated_Source\PSoC4/cyfitter_cfg.c **** * Parameters:
 119:Generated_Source\PSoC4/cyfitter_cfg.c **** *   void
 120:Generated_Source\PSoC4/cyfitter_cfg.c **** *
 121:Generated_Source\PSoC4/cyfitter_cfg.c **** * Return:
 122:Generated_Source\PSoC4/cyfitter_cfg.c **** *   void
 123:Generated_Source\PSoC4/cyfitter_cfg.c **** *
 124:Generated_Source\PSoC4/cyfitter_cfg.c **** *******************************************************************************/
 125:Generated_Source\PSoC4/cyfitter_cfg.c **** CY_CFG_UNUSED
 126:Generated_Source\PSoC4/cyfitter_cfg.c **** static void CyClockStartupError(uint8 errorCode);
 127:Generated_Source\PSoC4/cyfitter_cfg.c **** CY_CFG_UNUSED
 128:Generated_Source\PSoC4/cyfitter_cfg.c **** static void CyClockStartupError(uint8 errorCode)
 129:Generated_Source\PSoC4/cyfitter_cfg.c **** {
 137              		.loc 1 129 0
 138              		.cfi_startproc
 139              		@ args = 0, pretend = 0, frame = 8
 140              		@ frame_needed = 1, uses_anonymous_args = 0
 141 0000 80B5     		push	{r7, lr}
 142              		.cfi_def_cfa_offset 8
 143              		.cfi_offset 7, -8
 144              		.cfi_offset 14, -4
 145 0002 82B0     		sub	sp, sp, #8
 146              		.cfi_def_cfa_offset 16
 147 0004 00AF     		add	r7, sp, #0
 148              		.cfi_def_cfa_register 7
 149 0006 0200     		movs	r2, r0
 150 0008 FB1D     		adds	r3, r7, #7
 151 000a 1A70     		strb	r2, [r3]
 130:Generated_Source\PSoC4/cyfitter_cfg.c ****     /* To remove the compiler warning if errorCode not used.                */
 131:Generated_Source\PSoC4/cyfitter_cfg.c ****     errorCode = errorCode;
 152              		.loc 1 131 0
 153 000c FB1D     		adds	r3, r7, #7
 154 000e FA1D     		adds	r2, r7, #7
ARM GAS  C:\Users\d4hhm\AppData\Local\Temp\ccL7RPka.s 			page 6


 155 0010 1278     		ldrb	r2, [r2]
 156 0012 1A70     		strb	r2, [r3]
 157              	.L5:
 132:Generated_Source\PSoC4/cyfitter_cfg.c **** 
 133:Generated_Source\PSoC4/cyfitter_cfg.c ****     /* If we have a clock startup error (bad MHz crystal, PLL lock, etc.),  */
 134:Generated_Source\PSoC4/cyfitter_cfg.c ****     /* we will end up here to allow the customer to implement something to  */
 135:Generated_Source\PSoC4/cyfitter_cfg.c ****     /* deal with the clock condition.                                       */
 136:Generated_Source\PSoC4/cyfitter_cfg.c **** 
 137:Generated_Source\PSoC4/cyfitter_cfg.c **** #ifdef CY_CFG_CLOCK_STARTUP_ERROR_CALLBACK
 138:Generated_Source\PSoC4/cyfitter_cfg.c ****     CY_CFG_Clock_Startup_ErrorCallback();
 139:Generated_Source\PSoC4/cyfitter_cfg.c **** #else
 140:Generated_Source\PSoC4/cyfitter_cfg.c ****     /*  If not using CY_CFG_CLOCK_STARTUP_ERROR_CALLBACK, place your clock startup code here. */
 141:Generated_Source\PSoC4/cyfitter_cfg.c ****     /* `#START CyClockStartupError` */
 142:Generated_Source\PSoC4/cyfitter_cfg.c **** 
 143:Generated_Source\PSoC4/cyfitter_cfg.c **** 
 144:Generated_Source\PSoC4/cyfitter_cfg.c **** 
 145:Generated_Source\PSoC4/cyfitter_cfg.c ****     /* `#END` */
 146:Generated_Source\PSoC4/cyfitter_cfg.c **** 
 147:Generated_Source\PSoC4/cyfitter_cfg.c ****     while(1) {}
 158              		.loc 1 147 0 discriminator 1
 159 0014 FEE7     		b	.L5
 160              		.cfi_endproc
 161              	.LFE5:
 162              		.size	CyClockStartupError, .-CyClockStartupError
 163 0016 C046     		.section	.text.cfg_write_bytes32,"ax",%progbits
 164              		.align	2
 165              		.code	16
 166              		.thumb_func
 167              		.type	cfg_write_bytes32, %function
 168              	cfg_write_bytes32:
 169              	.LFB6:
 148:Generated_Source\PSoC4/cyfitter_cfg.c **** #endif /* CY_CFG_CLOCK_STARTUP_ERROR_CALLBACK */
 149:Generated_Source\PSoC4/cyfitter_cfg.c **** }
 150:Generated_Source\PSoC4/cyfitter_cfg.c **** #endif
 151:Generated_Source\PSoC4/cyfitter_cfg.c **** 
 152:Generated_Source\PSoC4/cyfitter_cfg.c **** #define CY_CFG_BASE_ADDR_COUNT 3u
 153:Generated_Source\PSoC4/cyfitter_cfg.c **** CYPACKED typedef struct
 154:Generated_Source\PSoC4/cyfitter_cfg.c **** {
 155:Generated_Source\PSoC4/cyfitter_cfg.c **** 	uint8 offset;
 156:Generated_Source\PSoC4/cyfitter_cfg.c **** 	uint8 value;
 157:Generated_Source\PSoC4/cyfitter_cfg.c **** } CYPACKED_ATTR cy_cfg_addrvalue_t;
 158:Generated_Source\PSoC4/cyfitter_cfg.c **** 
 159:Generated_Source\PSoC4/cyfitter_cfg.c **** 
 160:Generated_Source\PSoC4/cyfitter_cfg.c **** 
 161:Generated_Source\PSoC4/cyfitter_cfg.c **** /*******************************************************************************
 162:Generated_Source\PSoC4/cyfitter_cfg.c **** * Function Name: cfg_write_bytes32
 163:Generated_Source\PSoC4/cyfitter_cfg.c **** ********************************************************************************
 164:Generated_Source\PSoC4/cyfitter_cfg.c **** * Summary:
 165:Generated_Source\PSoC4/cyfitter_cfg.c **** *  This function is used for setting up the chip configuration areas that
 166:Generated_Source\PSoC4/cyfitter_cfg.c **** *  contain relatively sparse data.
 167:Generated_Source\PSoC4/cyfitter_cfg.c **** *
 168:Generated_Source\PSoC4/cyfitter_cfg.c **** * Parameters:
 169:Generated_Source\PSoC4/cyfitter_cfg.c **** *   void
 170:Generated_Source\PSoC4/cyfitter_cfg.c **** *
 171:Generated_Source\PSoC4/cyfitter_cfg.c **** * Return:
 172:Generated_Source\PSoC4/cyfitter_cfg.c **** *   void
 173:Generated_Source\PSoC4/cyfitter_cfg.c **** *
ARM GAS  C:\Users\d4hhm\AppData\Local\Temp\ccL7RPka.s 			page 7


 174:Generated_Source\PSoC4/cyfitter_cfg.c **** *******************************************************************************/
 175:Generated_Source\PSoC4/cyfitter_cfg.c **** static void cfg_write_bytes32(const uint32 addr_table[], const cy_cfg_addrvalue_t data_table[]);
 176:Generated_Source\PSoC4/cyfitter_cfg.c **** static void cfg_write_bytes32(const uint32 addr_table[], const cy_cfg_addrvalue_t data_table[])
 177:Generated_Source\PSoC4/cyfitter_cfg.c **** {
 170              		.loc 1 177 0
 171              		.cfi_startproc
 172              		@ args = 0, pretend = 0, frame = 24
 173              		@ frame_needed = 1, uses_anonymous_args = 0
 174 0000 80B5     		push	{r7, lr}
 175              		.cfi_def_cfa_offset 8
 176              		.cfi_offset 7, -8
 177              		.cfi_offset 14, -4
 178 0002 86B0     		sub	sp, sp, #24
 179              		.cfi_def_cfa_offset 32
 180 0004 00AF     		add	r7, sp, #0
 181              		.cfi_def_cfa_register 7
 182 0006 7860     		str	r0, [r7, #4]
 183 0008 3960     		str	r1, [r7]
 178:Generated_Source\PSoC4/cyfitter_cfg.c **** 	/* For 32-bit little-endian architectures */
 179:Generated_Source\PSoC4/cyfitter_cfg.c **** 	uint32 i, j = 0u;
 184              		.loc 1 179 0
 185 000a 0023     		movs	r3, #0
 186 000c 3B61     		str	r3, [r7, #16]
 180:Generated_Source\PSoC4/cyfitter_cfg.c **** 	for (i = 0u; i < CY_CFG_BASE_ADDR_COUNT; i++)
 187              		.loc 1 180 0
 188 000e 0023     		movs	r3, #0
 189 0010 7B61     		str	r3, [r7, #20]
 190 0012 2FE0     		b	.L7
 191              	.L10:
 192              	.LBB2:
 181:Generated_Source\PSoC4/cyfitter_cfg.c **** 	{
 182:Generated_Source\PSoC4/cyfitter_cfg.c **** 		uint32 baseAddr = addr_table[i];
 193              		.loc 1 182 0
 194 0014 7B69     		ldr	r3, [r7, #20]
 195 0016 9B00     		lsls	r3, r3, #2
 196 0018 7A68     		ldr	r2, [r7, #4]
 197 001a D318     		adds	r3, r2, r3
 198 001c 1B68     		ldr	r3, [r3]
 199 001e BB60     		str	r3, [r7, #8]
 183:Generated_Source\PSoC4/cyfitter_cfg.c **** 		uint8 count = (uint8)baseAddr;
 200              		.loc 1 183 0
 201 0020 0F23     		movs	r3, #15
 202 0022 FB18     		adds	r3, r7, r3
 203 0024 BA68     		ldr	r2, [r7, #8]
 204 0026 1A70     		strb	r2, [r3]
 184:Generated_Source\PSoC4/cyfitter_cfg.c **** 		baseAddr &= 0xFFFFFF00u;
 205              		.loc 1 184 0
 206 0028 BB68     		ldr	r3, [r7, #8]
 207 002a FF22     		movs	r2, #255
 208 002c 9343     		bics	r3, r2
 209 002e BB60     		str	r3, [r7, #8]
 185:Generated_Source\PSoC4/cyfitter_cfg.c **** 		while (count != 0u)
 210              		.loc 1 185 0
 211 0030 18E0     		b	.L8
 212              	.L9:
 186:Generated_Source\PSoC4/cyfitter_cfg.c **** 		{
 187:Generated_Source\PSoC4/cyfitter_cfg.c **** 			CY_SET_REG8((void *)(baseAddr + data_table[j].offset), data_table[j].value);
ARM GAS  C:\Users\d4hhm\AppData\Local\Temp\ccL7RPka.s 			page 8


 213              		.loc 1 187 0
 214 0032 3B69     		ldr	r3, [r7, #16]
 215 0034 5B00     		lsls	r3, r3, #1
 216 0036 3A68     		ldr	r2, [r7]
 217 0038 D318     		adds	r3, r2, r3
 218 003a 1B78     		ldrb	r3, [r3]
 219 003c 1A00     		movs	r2, r3
 220 003e BB68     		ldr	r3, [r7, #8]
 221 0040 D318     		adds	r3, r2, r3
 222 0042 1900     		movs	r1, r3
 223 0044 3B69     		ldr	r3, [r7, #16]
 224 0046 5B00     		lsls	r3, r3, #1
 225 0048 3A68     		ldr	r2, [r7]
 226 004a D318     		adds	r3, r2, r3
 227 004c 5B78     		ldrb	r3, [r3, #1]
 228 004e 0B70     		strb	r3, [r1]
 188:Generated_Source\PSoC4/cyfitter_cfg.c **** 			j++;
 229              		.loc 1 188 0
 230 0050 3B69     		ldr	r3, [r7, #16]
 231 0052 0133     		adds	r3, r3, #1
 232 0054 3B61     		str	r3, [r7, #16]
 189:Generated_Source\PSoC4/cyfitter_cfg.c **** 			count--;
 233              		.loc 1 189 0
 234 0056 0F23     		movs	r3, #15
 235 0058 FB18     		adds	r3, r7, r3
 236 005a 1A78     		ldrb	r2, [r3]
 237 005c 0F23     		movs	r3, #15
 238 005e FB18     		adds	r3, r7, r3
 239 0060 013A     		subs	r2, r2, #1
 240 0062 1A70     		strb	r2, [r3]
 241              	.L8:
 185:Generated_Source\PSoC4/cyfitter_cfg.c **** 		{
 242              		.loc 1 185 0
 243 0064 0F23     		movs	r3, #15
 244 0066 FB18     		adds	r3, r7, r3
 245 0068 1B78     		ldrb	r3, [r3]
 246 006a 002B     		cmp	r3, #0
 247 006c E1D1     		bne	.L9
 248              	.LBE2:
 180:Generated_Source\PSoC4/cyfitter_cfg.c **** 	{
 249              		.loc 1 180 0 discriminator 2
 250 006e 7B69     		ldr	r3, [r7, #20]
 251 0070 0133     		adds	r3, r3, #1
 252 0072 7B61     		str	r3, [r7, #20]
 253              	.L7:
 180:Generated_Source\PSoC4/cyfitter_cfg.c **** 	{
 254              		.loc 1 180 0 is_stmt 0 discriminator 1
 255 0074 7B69     		ldr	r3, [r7, #20]
 256 0076 022B     		cmp	r3, #2
 257 0078 CCD9     		bls	.L10
 190:Generated_Source\PSoC4/cyfitter_cfg.c **** 		}
 191:Generated_Source\PSoC4/cyfitter_cfg.c **** 	}
 192:Generated_Source\PSoC4/cyfitter_cfg.c **** }
 258              		.loc 1 192 0 is_stmt 1
 259 007a C046     		nop
 260 007c BD46     		mov	sp, r7
 261 007e 06B0     		add	sp, sp, #24
ARM GAS  C:\Users\d4hhm\AppData\Local\Temp\ccL7RPka.s 			page 9


 262              		@ sp needed
 263 0080 80BD     		pop	{r7, pc}
 264              		.cfi_endproc
 265              	.LFE6:
 266              		.size	cfg_write_bytes32, .-cfg_write_bytes32
 267 0082 C046     		.section	.psocinit,"ax",%progbits
 268              		.align	2
 269              		.code	16
 270              		.thumb_func
 271              		.type	ClockSetup, %function
 272              	ClockSetup:
 273              	.LFB7:
 193:Generated_Source\PSoC4/cyfitter_cfg.c **** 
 194:Generated_Source\PSoC4/cyfitter_cfg.c **** 
 195:Generated_Source\PSoC4/cyfitter_cfg.c **** /*******************************************************************************
 196:Generated_Source\PSoC4/cyfitter_cfg.c **** * Function Name: ClockSetup
 197:Generated_Source\PSoC4/cyfitter_cfg.c **** ********************************************************************************
 198:Generated_Source\PSoC4/cyfitter_cfg.c **** *
 199:Generated_Source\PSoC4/cyfitter_cfg.c **** * Summary:
 200:Generated_Source\PSoC4/cyfitter_cfg.c **** *   Performs the initialization of all of the clocks in the device based on the
 201:Generated_Source\PSoC4/cyfitter_cfg.c **** *   settings in the Clock tab of the DWR.  This includes enabling the requested
 202:Generated_Source\PSoC4/cyfitter_cfg.c **** *   clocks and setting the necessary dividers to produce the desired frequency. 
 203:Generated_Source\PSoC4/cyfitter_cfg.c **** *
 204:Generated_Source\PSoC4/cyfitter_cfg.c **** * Parameters:
 205:Generated_Source\PSoC4/cyfitter_cfg.c **** *   void
 206:Generated_Source\PSoC4/cyfitter_cfg.c **** *
 207:Generated_Source\PSoC4/cyfitter_cfg.c **** * Return:
 208:Generated_Source\PSoC4/cyfitter_cfg.c **** *   void
 209:Generated_Source\PSoC4/cyfitter_cfg.c **** *
 210:Generated_Source\PSoC4/cyfitter_cfg.c **** *******************************************************************************/
 211:Generated_Source\PSoC4/cyfitter_cfg.c **** static void ClockSetup(void);
 212:Generated_Source\PSoC4/cyfitter_cfg.c **** CY_CFG_SECTION
 213:Generated_Source\PSoC4/cyfitter_cfg.c **** static void ClockSetup(void)
 214:Generated_Source\PSoC4/cyfitter_cfg.c **** {
 274              		.loc 1 214 0
 275              		.cfi_startproc
 276              		@ args = 0, pretend = 0, frame = 8
 277              		@ frame_needed = 1, uses_anonymous_args = 0
 278 0000 80B5     		push	{r7, lr}
 279              		.cfi_def_cfa_offset 8
 280              		.cfi_offset 7, -8
 281              		.cfi_offset 14, -4
 282 0002 82B0     		sub	sp, sp, #8
 283              		.cfi_def_cfa_offset 16
 284 0004 00AF     		add	r7, sp, #0
 285              		.cfi_def_cfa_register 7
 215:Generated_Source\PSoC4/cyfitter_cfg.c **** 	uint8 ecoStatus;
 216:Generated_Source\PSoC4/cyfitter_cfg.c **** 
 217:Generated_Source\PSoC4/cyfitter_cfg.c **** 	/* Set Flash Cycles based on max possible frequency in case a glitch occurs during ClockSetup(). *
 218:Generated_Source\PSoC4/cyfitter_cfg.c **** 	CY_SET_REG32((void CYXDATA *)(CYREG_CPUSS_FLASH_CTL), (0x0012u));
 286              		.loc 1 218 0
 287 0006 3F4B     		ldr	r3, .L14
 288 0008 1222     		movs	r2, #18
 289 000a 1A60     		str	r2, [r3]
 219:Generated_Source\PSoC4/cyfitter_cfg.c **** 
 220:Generated_Source\PSoC4/cyfitter_cfg.c **** 	/* Start the WCO */
 221:Generated_Source\PSoC4/cyfitter_cfg.c **** 	CySysClkWcoStart();
ARM GAS  C:\Users\d4hhm\AppData\Local\Temp\ccL7RPka.s 			page 10


 290              		.loc 1 221 0
 291 000c FFF7FEFF 		bl	CySysClkWcoStart
 222:Generated_Source\PSoC4/cyfitter_cfg.c **** 	CyDelayCycles(12000000u); /* WCO may take up to 500ms to start */
 292              		.loc 1 222 0
 293 0010 3D4B     		ldr	r3, .L14+4
 294 0012 1800     		movs	r0, r3
 295 0014 FFF7FEFF 		bl	CyDelayCycles
 223:Generated_Source\PSoC4/cyfitter_cfg.c **** 	(void)CySysClkWcoSetPowerMode(CY_SYS_CLK_WCO_LPM);    /* Switch to the low power mode */
 296              		.loc 1 223 0
 297 0018 0120     		movs	r0, #1
 298 001a FFF7FEFF 		bl	CySysClkWcoSetPowerMode
 224:Generated_Source\PSoC4/cyfitter_cfg.c **** 
 225:Generated_Source\PSoC4/cyfitter_cfg.c **** 	/* Setup and trim IMO based on desired frequency. */
 226:Generated_Source\PSoC4/cyfitter_cfg.c **** 	CySysClkWriteImoFreq(48u);
 299              		.loc 1 226 0
 300 001e 3020     		movs	r0, #48
 301 0020 FFF7FEFF 		bl	CySysClkWriteImoFreq
 227:Generated_Source\PSoC4/cyfitter_cfg.c **** 	/* CYDEV_WDT_CONFIG Starting address: CYDEV_WDT_CONFIG */
 228:Generated_Source\PSoC4/cyfitter_cfg.c **** 	CY_SET_REG32((void *)(CYREG_WDT_CONFIG), 0x40000000u);
 302              		.loc 1 228 0
 303 0024 394B     		ldr	r3, .L14+8
 304 0026 8022     		movs	r2, #128
 305 0028 D205     		lsls	r2, r2, #23
 306 002a 1A60     		str	r2, [r3]
 229:Generated_Source\PSoC4/cyfitter_cfg.c **** 
 230:Generated_Source\PSoC4/cyfitter_cfg.c **** 
 231:Generated_Source\PSoC4/cyfitter_cfg.c **** 	/* Enable fast start mode for XO */
 232:Generated_Source\PSoC4/cyfitter_cfg.c **** 	CY_SET_REG32((void*)CYREG_BLE_BLERD_BB_XO, CY_GET_REG32((void*)CYREG_BLE_BLERD_BB_XO) | (uint32)0x
 307              		.loc 1 232 0
 308 002c 384B     		ldr	r3, .L14+12
 309 002e 384A     		ldr	r2, .L14+12
 310 0030 1268     		ldr	r2, [r2]
 311 0032 0221     		movs	r1, #2
 312 0034 0A43     		orrs	r2, r1
 313 0036 1A60     		str	r2, [r3]
 233:Generated_Source\PSoC4/cyfitter_cfg.c **** 	CY_SET_REG32((void *)(CYREG_BLE_BLERD_BB_XO_CAPTRIM), 0x00006969u);
 314              		.loc 1 233 0
 315 0038 364B     		ldr	r3, .L14+16
 316 003a 374A     		ldr	r2, .L14+20
 317 003c 1A60     		str	r2, [r3]
 234:Generated_Source\PSoC4/cyfitter_cfg.c **** 	/*Set XTAL(ECO) divider*/
 235:Generated_Source\PSoC4/cyfitter_cfg.c **** 	CY_SET_REG32((void *)(CYREG_BLE_BLESS_XTAL_CLK_DIV_CONFIG), 0x00000000u);
 318              		.loc 1 235 0
 319 003e 374B     		ldr	r3, .L14+24
 320 0040 0022     		movs	r2, #0
 321 0042 1A60     		str	r2, [r3]
 236:Generated_Source\PSoC4/cyfitter_cfg.c **** 	/* Disable Crystal Stable Interrupt before enabling ECO */
 237:Generated_Source\PSoC4/cyfitter_cfg.c **** 	CY_SET_REG32((void*)CYREG_BLE_BLESS_LL_DSM_CTRL, CY_GET_REG32((void*)CYREG_BLE_BLESS_LL_DSM_CTRL) 
 322              		.loc 1 237 0
 323 0044 364B     		ldr	r3, .L14+28
 324 0046 364A     		ldr	r2, .L14+28
 325 0048 1268     		ldr	r2, [r2]
 326 004a 0821     		movs	r1, #8
 327 004c 8A43     		bics	r2, r1
 328 004e 1A60     		str	r2, [r3]
 238:Generated_Source\PSoC4/cyfitter_cfg.c **** 	/* Start the ECO and check status since it is needed for HFCLK */
 239:Generated_Source\PSoC4/cyfitter_cfg.c **** 	ecoStatus = CySysClkEcoStart(2000u);
ARM GAS  C:\Users\d4hhm\AppData\Local\Temp\ccL7RPka.s 			page 11


 329              		.loc 1 239 0
 330 0050 FA23     		movs	r3, #250
 331 0052 DB00     		lsls	r3, r3, #3
 332 0054 1800     		movs	r0, r3
 333 0056 FFF7FEFF 		bl	CySysClkEcoStart
 334 005a 0200     		movs	r2, r0
 335 005c FB1D     		adds	r3, r7, #7
 336 005e 1A70     		strb	r2, [r3]
 240:Generated_Source\PSoC4/cyfitter_cfg.c **** 	if (ecoStatus != CYRET_SUCCESS)
 337              		.loc 1 240 0
 338 0060 FB1D     		adds	r3, r7, #7
 339 0062 1B78     		ldrb	r3, [r3]
 340 0064 002B     		cmp	r3, #0
 341 0066 02D0     		beq	.L12
 241:Generated_Source\PSoC4/cyfitter_cfg.c **** 	{
 242:Generated_Source\PSoC4/cyfitter_cfg.c **** 		CyClockStartupError(CYCLOCKSTART_XTAL_ERROR);
 342              		.loc 1 242 0
 343 0068 0120     		movs	r0, #1
 344 006a FFF7FEFF 		bl	CyClockStartupError
 345              	.L12:
 243:Generated_Source\PSoC4/cyfitter_cfg.c **** 	}
 244:Generated_Source\PSoC4/cyfitter_cfg.c **** 	CyDelayUs(1500u); /* Wait to stabilize */
 346              		.loc 1 244 0
 347 006e 2D4B     		ldr	r3, .L14+32
 348 0070 1800     		movs	r0, r3
 349 0072 FFF7FEFF 		bl	CyDelayUs
 245:Generated_Source\PSoC4/cyfitter_cfg.c **** 
 246:Generated_Source\PSoC4/cyfitter_cfg.c **** 	/* Setup phase aligned clocks */
 247:Generated_Source\PSoC4/cyfitter_cfg.c **** 	CY_SET_REG32((void *)CYREG_PERI_DIV_16_CTL0, 0x0000FE00u);
 350              		.loc 1 247 0
 351 0076 2C4B     		ldr	r3, .L14+36
 352 0078 FE22     		movs	r2, #254
 353 007a 1202     		lsls	r2, r2, #8
 354 007c 1A60     		str	r2, [r3]
 248:Generated_Source\PSoC4/cyfitter_cfg.c **** 	CY_SET_REG32((void *)CYREG_PERI_DIV_CMD, 0x8000FF40u);
 355              		.loc 1 248 0
 356 007e 2B4B     		ldr	r3, .L14+40
 357 0080 2B4A     		ldr	r2, .L14+44
 358 0082 1A60     		str	r2, [r3]
 249:Generated_Source\PSoC4/cyfitter_cfg.c **** 	CY_SET_REG32((void *)CYREG_PERI_DIV_16_CTL1, 0x0000FE00u);
 359              		.loc 1 249 0
 360 0084 2B4B     		ldr	r3, .L14+48
 361 0086 FE22     		movs	r2, #254
 362 0088 1202     		lsls	r2, r2, #8
 363 008a 1A60     		str	r2, [r3]
 250:Generated_Source\PSoC4/cyfitter_cfg.c **** 	CY_SET_REG32((void *)CYREG_PERI_DIV_CMD, 0x8000FF41u);
 364              		.loc 1 250 0
 365 008c 274B     		ldr	r3, .L14+40
 366 008e 2A4A     		ldr	r2, .L14+52
 367 0090 1A60     		str	r2, [r3]
 251:Generated_Source\PSoC4/cyfitter_cfg.c **** 	CY_SET_REG32((void *)CYREG_PERI_DIV_16_CTL2, 0x00000E00u);
 368              		.loc 1 251 0
 369 0092 2A4B     		ldr	r3, .L14+56
 370 0094 E022     		movs	r2, #224
 371 0096 1201     		lsls	r2, r2, #4
 372 0098 1A60     		str	r2, [r3]
 252:Generated_Source\PSoC4/cyfitter_cfg.c **** 	CY_SET_REG32((void *)CYREG_PERI_DIV_CMD, 0x8000FF42u);
ARM GAS  C:\Users\d4hhm\AppData\Local\Temp\ccL7RPka.s 			page 12


 373              		.loc 1 252 0
 374 009a 244B     		ldr	r3, .L14+40
 375 009c 284A     		ldr	r2, .L14+60
 376 009e 1A60     		str	r2, [r3]
 253:Generated_Source\PSoC4/cyfitter_cfg.c **** 
 254:Generated_Source\PSoC4/cyfitter_cfg.c **** 	/* CYDEV_CLK_SELECT Starting address: CYDEV_CLK_SELECT */
 255:Generated_Source\PSoC4/cyfitter_cfg.c **** 	CY_SET_REG32((void *)(CYREG_CLK_SELECT), 0x00000092u);
 377              		.loc 1 255 0
 378 00a0 284B     		ldr	r3, .L14+64
 379 00a2 9222     		movs	r2, #146
 380 00a4 1A60     		str	r2, [r3]
 256:Generated_Source\PSoC4/cyfitter_cfg.c **** 
 257:Generated_Source\PSoC4/cyfitter_cfg.c **** 	/* CYDEV_CLK_IMO_CONFIG Starting address: CYDEV_CLK_IMO_CONFIG */
 258:Generated_Source\PSoC4/cyfitter_cfg.c **** 	CY_SET_REG32((void *)(CYREG_CLK_IMO_CONFIG), 0x80000000u);
 381              		.loc 1 258 0
 382 00a6 284B     		ldr	r3, .L14+68
 383 00a8 8022     		movs	r2, #128
 384 00aa 1206     		lsls	r2, r2, #24
 385 00ac 1A60     		str	r2, [r3]
 259:Generated_Source\PSoC4/cyfitter_cfg.c **** 
 260:Generated_Source\PSoC4/cyfitter_cfg.c **** 	/* CYDEV_PERI_PCLK_CTL5 Starting address: CYDEV_PERI_PCLK_CTL5 */
 261:Generated_Source\PSoC4/cyfitter_cfg.c **** 	CY_SET_REG32((void *)(CYREG_PERI_PCLK_CTL5), 0x00000040u);
 386              		.loc 1 261 0
 387 00ae 274B     		ldr	r3, .L14+72
 388 00b0 4022     		movs	r2, #64
 389 00b2 1A60     		str	r2, [r3]
 262:Generated_Source\PSoC4/cyfitter_cfg.c **** 
 263:Generated_Source\PSoC4/cyfitter_cfg.c **** 	/* CYDEV_PERI_PCLK_CTL4 Starting address: CYDEV_PERI_PCLK_CTL4 */
 264:Generated_Source\PSoC4/cyfitter_cfg.c **** 	CY_SET_REG32((void *)(CYREG_PERI_PCLK_CTL4), 0x00000041u);
 390              		.loc 1 264 0
 391 00b4 264B     		ldr	r3, .L14+76
 392 00b6 4122     		movs	r2, #65
 393 00b8 1A60     		str	r2, [r3]
 265:Generated_Source\PSoC4/cyfitter_cfg.c **** 
 266:Generated_Source\PSoC4/cyfitter_cfg.c **** 	/* CYDEV_PERI_PCLK_CTL1 Starting address: CYDEV_PERI_PCLK_CTL1 */
 267:Generated_Source\PSoC4/cyfitter_cfg.c **** 	CY_SET_REG32((void *)(CYREG_PERI_PCLK_CTL1), 0x00000042u);
 394              		.loc 1 267 0
 395 00ba 264B     		ldr	r3, .L14+80
 396 00bc 4222     		movs	r2, #66
 397 00be 1A60     		str	r2, [r3]
 268:Generated_Source\PSoC4/cyfitter_cfg.c **** 
 269:Generated_Source\PSoC4/cyfitter_cfg.c **** 	(void)CyIntSetVector(8u, &CySysWdtIsr);
 398              		.loc 1 269 0
 399 00c0 254B     		ldr	r3, .L14+84
 400 00c2 1900     		movs	r1, r3
 401 00c4 0820     		movs	r0, #8
 402 00c6 FFF7FEFF 		bl	CyIntSetVector
 270:Generated_Source\PSoC4/cyfitter_cfg.c **** 	CyIntEnable(8u);
 403              		.loc 1 270 0
 404 00ca 0820     		movs	r0, #8
 405 00cc FFF7FEFF 		bl	CyIntEnable
 271:Generated_Source\PSoC4/cyfitter_cfg.c **** 	CY_SET_REG32((void *)(CYREG_WDT_MATCH), 0x00003FFFu);
 406              		.loc 1 271 0
 407 00d0 224B     		ldr	r3, .L14+88
 408 00d2 234A     		ldr	r2, .L14+92
 409 00d4 1A60     		str	r2, [r3]
 272:Generated_Source\PSoC4/cyfitter_cfg.c **** 	CY_SET_REG32((void *)(CYREG_WDT_CONFIG), 0x40000005u);
ARM GAS  C:\Users\d4hhm\AppData\Local\Temp\ccL7RPka.s 			page 13


 410              		.loc 1 272 0
 411 00d6 0D4B     		ldr	r3, .L14+8
 412 00d8 224A     		ldr	r2, .L14+96
 413 00da 1A60     		str	r2, [r3]
 273:Generated_Source\PSoC4/cyfitter_cfg.c **** 	CY_SET_REG32((void *)(CYREG_WDT_CONTROL), 0x00000008u);
 414              		.loc 1 273 0
 415 00dc 224B     		ldr	r3, .L14+100
 416 00de 0822     		movs	r2, #8
 417 00e0 1A60     		str	r2, [r3]
 274:Generated_Source\PSoC4/cyfitter_cfg.c **** 	while ((CY_GET_XTND_REG32((void CYFAR *)(CYREG_WDT_CONTROL)) & 0x00000008u) != 0u) { }
 418              		.loc 1 274 0
 419 00e2 C046     		nop
 420              	.L13:
 421              		.loc 1 274 0 is_stmt 0 discriminator 1
 422 00e4 204B     		ldr	r3, .L14+100
 423 00e6 1B68     		ldr	r3, [r3]
 424 00e8 0822     		movs	r2, #8
 425 00ea 1340     		ands	r3, r2
 426 00ec FAD1     		bne	.L13
 275:Generated_Source\PSoC4/cyfitter_cfg.c **** 	CY_SET_REG32((void *)(CYREG_WDT_CONTROL), 0x00000001u);
 427              		.loc 1 275 0 is_stmt 1
 428 00ee 1E4B     		ldr	r3, .L14+100
 429 00f0 0122     		movs	r2, #1
 430 00f2 1A60     		str	r2, [r3]
 276:Generated_Source\PSoC4/cyfitter_cfg.c **** 	/* Set Flash Cycles based on newly configured 24.00MHz HFCLK. */
 277:Generated_Source\PSoC4/cyfitter_cfg.c **** 	CY_SET_REG32((void CYXDATA *)(CYREG_CPUSS_FLASH_CTL), (0x0011u));
 431              		.loc 1 277 0
 432 00f4 034B     		ldr	r3, .L14
 433 00f6 1122     		movs	r2, #17
 434 00f8 1A60     		str	r2, [r3]
 278:Generated_Source\PSoC4/cyfitter_cfg.c **** }
 435              		.loc 1 278 0
 436 00fa C046     		nop
 437 00fc BD46     		mov	sp, r7
 438 00fe 02B0     		add	sp, sp, #8
 439              		@ sp needed
 440 0100 80BD     		pop	{r7, pc}
 441              	.L15:
 442 0102 C046     		.align	2
 443              	.L14:
 444 0104 30001040 		.word	1074790448
 445 0108 001BB700 		.word	12000000
 446 010c 0C020B40 		.word	1074463244
 447 0110 78002E40 		.word	1076756600
 448 0114 7C002E40 		.word	1076756604
 449 0118 69690000 		.word	26985
 450 011c 64F02E40 		.word	1076818020
 451 0120 6CF02E40 		.word	1076818028
 452 0124 DC050000 		.word	1500
 453 0128 00030140 		.word	1073808128
 454 012c 00000140 		.word	1073807360
 455 0130 40FF0080 		.word	-2147418304
 456 0134 04030140 		.word	1073808132
 457 0138 41FF0080 		.word	-2147418303
 458 013c 08030140 		.word	1073808136
 459 0140 42FF0080 		.word	-2147418302
 460 0144 00010B40 		.word	1074462976
ARM GAS  C:\Users\d4hhm\AppData\Local\Temp\ccL7RPka.s 			page 14


 461 0148 08010B40 		.word	1074462984
 462 014c 14010140 		.word	1073807636
 463 0150 10010140 		.word	1073807632
 464 0154 04010140 		.word	1073807620
 465 0158 00000000 		.word	CySysWdtIsr
 466 015c 08020B40 		.word	1074463240
 467 0160 FF3F0000 		.word	16383
 468 0164 05000040 		.word	1073741829
 469 0168 10020B40 		.word	1074463248
 470              		.cfi_endproc
 471              	.LFE7:
 472              		.size	ClockSetup, .-ClockSetup
 473              		.section	.text.AnalogSetDefault,"ax",%progbits
 474              		.align	2
 475              		.code	16
 476              		.thumb_func
 477              		.type	AnalogSetDefault, %function
 478              	AnalogSetDefault:
 479              	.LFB8:
 279:Generated_Source\PSoC4/cyfitter_cfg.c **** 
 280:Generated_Source\PSoC4/cyfitter_cfg.c **** 
 281:Generated_Source\PSoC4/cyfitter_cfg.c **** /* Analog API Functions */
 282:Generated_Source\PSoC4/cyfitter_cfg.c **** 
 283:Generated_Source\PSoC4/cyfitter_cfg.c **** 
 284:Generated_Source\PSoC4/cyfitter_cfg.c **** /*******************************************************************************
 285:Generated_Source\PSoC4/cyfitter_cfg.c **** * Function Name: AnalogSetDefault
 286:Generated_Source\PSoC4/cyfitter_cfg.c **** ********************************************************************************
 287:Generated_Source\PSoC4/cyfitter_cfg.c **** *
 288:Generated_Source\PSoC4/cyfitter_cfg.c **** * Summary:
 289:Generated_Source\PSoC4/cyfitter_cfg.c **** *  Sets up the analog portions of the chip to default values based on chip
 290:Generated_Source\PSoC4/cyfitter_cfg.c **** *  configuration options from the project.
 291:Generated_Source\PSoC4/cyfitter_cfg.c **** *
 292:Generated_Source\PSoC4/cyfitter_cfg.c **** * Parameters:
 293:Generated_Source\PSoC4/cyfitter_cfg.c **** *  void
 294:Generated_Source\PSoC4/cyfitter_cfg.c **** *
 295:Generated_Source\PSoC4/cyfitter_cfg.c **** * Return:
 296:Generated_Source\PSoC4/cyfitter_cfg.c **** *  void
 297:Generated_Source\PSoC4/cyfitter_cfg.c **** *
 298:Generated_Source\PSoC4/cyfitter_cfg.c **** *******************************************************************************/
 299:Generated_Source\PSoC4/cyfitter_cfg.c **** static void AnalogSetDefault(void);
 300:Generated_Source\PSoC4/cyfitter_cfg.c **** static void AnalogSetDefault(void)
 301:Generated_Source\PSoC4/cyfitter_cfg.c **** {
 480              		.loc 1 301 0
 481              		.cfi_startproc
 482              		@ args = 0, pretend = 0, frame = 0
 483              		@ frame_needed = 1, uses_anonymous_args = 0
 484 0000 80B5     		push	{r7, lr}
 485              		.cfi_def_cfa_offset 8
 486              		.cfi_offset 7, -8
 487              		.cfi_offset 14, -4
 488 0002 00AF     		add	r7, sp, #0
 489              		.cfi_def_cfa_register 7
 302:Generated_Source\PSoC4/cyfitter_cfg.c **** 	CY_SET_XTND_REG32((void CYFAR *)CYREG_CTBM0_DFT_CTRL, 0x00000003u);
 490              		.loc 1 302 0
 491 0004 074B     		ldr	r3, .L17
 492 0006 0322     		movs	r2, #3
 493 0008 1A60     		str	r2, [r3]
ARM GAS  C:\Users\d4hhm\AppData\Local\Temp\ccL7RPka.s 			page 15


 303:Generated_Source\PSoC4/cyfitter_cfg.c **** 	CY_SET_XTND_REG32((void CYFAR *)CYREG_CTBM1_DFT_CTRL, 0x00000003u);
 494              		.loc 1 303 0
 495 000a 074B     		ldr	r3, .L17+4
 496 000c 0322     		movs	r2, #3
 497 000e 1A60     		str	r2, [r3]
 304:Generated_Source\PSoC4/cyfitter_cfg.c **** 	CY_SET_XTND_REG32((void CYFAR *)CYREG_PASS_DSAB_DSAB_CTRL, 0x00000000u);
 498              		.loc 1 304 0
 499 0010 064B     		ldr	r3, .L17+8
 500 0012 0022     		movs	r2, #0
 501 0014 1A60     		str	r2, [r3]
 305:Generated_Source\PSoC4/cyfitter_cfg.c **** 	SetAnalogRoutingPumps(1);
 502              		.loc 1 305 0
 503 0016 0120     		movs	r0, #1
 504 0018 FFF7FEFF 		bl	SetAnalogRoutingPumps
 306:Generated_Source\PSoC4/cyfitter_cfg.c **** }
 505              		.loc 1 306 0
 506 001c C046     		nop
 507 001e BD46     		mov	sp, r7
 508              		@ sp needed
 509 0020 80BD     		pop	{r7, pc}
 510              	.L18:
 511 0022 C046     		.align	2
 512              	.L17:
 513 0024 30003040 		.word	1076887600
 514 0028 30003140 		.word	1076953136
 515 002c 000E3F40 		.word	1077874176
 516              		.cfi_endproc
 517              	.LFE8:
 518              		.size	AnalogSetDefault, .-AnalogSetDefault
 519              		.section	.text.SetAnalogRoutingPumps,"ax",%progbits
 520              		.align	2
 521              		.global	SetAnalogRoutingPumps
 522              		.code	16
 523              		.thumb_func
 524              		.type	SetAnalogRoutingPumps, %function
 525              	SetAnalogRoutingPumps:
 526              	.LFB9:
 307:Generated_Source\PSoC4/cyfitter_cfg.c **** 
 308:Generated_Source\PSoC4/cyfitter_cfg.c **** 
 309:Generated_Source\PSoC4/cyfitter_cfg.c **** /*******************************************************************************
 310:Generated_Source\PSoC4/cyfitter_cfg.c **** * Function Name: SetAnalogRoutingPumps
 311:Generated_Source\PSoC4/cyfitter_cfg.c **** ********************************************************************************
 312:Generated_Source\PSoC4/cyfitter_cfg.c **** *
 313:Generated_Source\PSoC4/cyfitter_cfg.c **** * Summary:
 314:Generated_Source\PSoC4/cyfitter_cfg.c **** * Enables or disables the analog pumps feeding analog routing switches.
 315:Generated_Source\PSoC4/cyfitter_cfg.c **** * Intended to be called at startup, based on the Vdda system configuration;
 316:Generated_Source\PSoC4/cyfitter_cfg.c **** * may be called during operation when the user informs us that the Vdda voltage crossed the pump th
 317:Generated_Source\PSoC4/cyfitter_cfg.c **** *
 318:Generated_Source\PSoC4/cyfitter_cfg.c **** * Parameters:
 319:Generated_Source\PSoC4/cyfitter_cfg.c **** *  enabled - 1 to enable the pumps, 0 to disable the pumps
 320:Generated_Source\PSoC4/cyfitter_cfg.c **** *
 321:Generated_Source\PSoC4/cyfitter_cfg.c **** * Return:
 322:Generated_Source\PSoC4/cyfitter_cfg.c **** *  void
 323:Generated_Source\PSoC4/cyfitter_cfg.c **** *
 324:Generated_Source\PSoC4/cyfitter_cfg.c **** *******************************************************************************/
 325:Generated_Source\PSoC4/cyfitter_cfg.c **** void SetAnalogRoutingPumps(uint8 enabled)
 326:Generated_Source\PSoC4/cyfitter_cfg.c **** {
ARM GAS  C:\Users\d4hhm\AppData\Local\Temp\ccL7RPka.s 			page 16


 527              		.loc 1 326 0
 528              		.cfi_startproc
 529              		@ args = 0, pretend = 0, frame = 16
 530              		@ frame_needed = 1, uses_anonymous_args = 0
 531 0000 80B5     		push	{r7, lr}
 532              		.cfi_def_cfa_offset 8
 533              		.cfi_offset 7, -8
 534              		.cfi_offset 14, -4
 535 0002 84B0     		sub	sp, sp, #16
 536              		.cfi_def_cfa_offset 24
 537 0004 00AF     		add	r7, sp, #0
 538              		.cfi_def_cfa_register 7
 539 0006 0200     		movs	r2, r0
 540 0008 FB1D     		adds	r3, r7, #7
 541 000a 1A70     		strb	r2, [r3]
 327:Generated_Source\PSoC4/cyfitter_cfg.c **** 	uint32 regValue = CY_GET_XTND_REG32((void *)(CYREG_SAR_PUMP_CTRL));
 542              		.loc 1 327 0
 543 000c 154B     		ldr	r3, .L24
 544 000e 1B68     		ldr	r3, [r3]
 545 0010 FB60     		str	r3, [r7, #12]
 328:Generated_Source\PSoC4/cyfitter_cfg.c **** 	if (enabled != 0u)
 546              		.loc 1 328 0
 547 0012 FB1D     		adds	r3, r7, #7
 548 0014 1B78     		ldrb	r3, [r3]
 549 0016 002B     		cmp	r3, #0
 550 0018 05D0     		beq	.L20
 329:Generated_Source\PSoC4/cyfitter_cfg.c **** 	{
 330:Generated_Source\PSoC4/cyfitter_cfg.c **** 		regValue |= 0x80000000u;
 551              		.loc 1 330 0
 552 001a FB68     		ldr	r3, [r7, #12]
 553 001c 8022     		movs	r2, #128
 554 001e 1206     		lsls	r2, r2, #24
 555 0020 1343     		orrs	r3, r2
 556 0022 FB60     		str	r3, [r7, #12]
 557 0024 03E0     		b	.L21
 558              	.L20:
 331:Generated_Source\PSoC4/cyfitter_cfg.c **** 	}
 332:Generated_Source\PSoC4/cyfitter_cfg.c **** 	else
 333:Generated_Source\PSoC4/cyfitter_cfg.c **** 	{
 334:Generated_Source\PSoC4/cyfitter_cfg.c **** 		regValue &= ~0x80000000u;
 559              		.loc 1 334 0
 560 0026 FB68     		ldr	r3, [r7, #12]
 561 0028 5B00     		lsls	r3, r3, #1
 562 002a 5B08     		lsrs	r3, r3, #1
 563 002c FB60     		str	r3, [r7, #12]
 564              	.L21:
 335:Generated_Source\PSoC4/cyfitter_cfg.c **** 	}
 336:Generated_Source\PSoC4/cyfitter_cfg.c **** 	CY_SET_XTND_REG32((void *)(CYREG_SAR_PUMP_CTRL), regValue);
 565              		.loc 1 336 0
 566 002e 0D4B     		ldr	r3, .L24
 567 0030 FA68     		ldr	r2, [r7, #12]
 568 0032 1A60     		str	r2, [r3]
 337:Generated_Source\PSoC4/cyfitter_cfg.c **** 	regValue = CY_GET_XTND_REG32((void *)(CYREG_CLK_IMO_CONFIG));
 569              		.loc 1 337 0
 570 0034 0C4B     		ldr	r3, .L24+4
 571 0036 1B68     		ldr	r3, [r3]
 572 0038 FB60     		str	r3, [r7, #12]
ARM GAS  C:\Users\d4hhm\AppData\Local\Temp\ccL7RPka.s 			page 17


 338:Generated_Source\PSoC4/cyfitter_cfg.c **** 	if (enabled != 0u)
 573              		.loc 1 338 0
 574 003a FB1D     		adds	r3, r7, #7
 575 003c 1B78     		ldrb	r3, [r3]
 576 003e 002B     		cmp	r3, #0
 577 0040 05D0     		beq	.L22
 339:Generated_Source\PSoC4/cyfitter_cfg.c **** 	{
 340:Generated_Source\PSoC4/cyfitter_cfg.c **** 		regValue |= 0x02000000u;
 578              		.loc 1 340 0
 579 0042 FB68     		ldr	r3, [r7, #12]
 580 0044 8022     		movs	r2, #128
 581 0046 9204     		lsls	r2, r2, #18
 582 0048 1343     		orrs	r3, r2
 583 004a FB60     		str	r3, [r7, #12]
 584 004c 03E0     		b	.L23
 585              	.L22:
 341:Generated_Source\PSoC4/cyfitter_cfg.c **** 	}
 342:Generated_Source\PSoC4/cyfitter_cfg.c **** 	else
 343:Generated_Source\PSoC4/cyfitter_cfg.c **** 	{
 344:Generated_Source\PSoC4/cyfitter_cfg.c **** 		regValue &= ~0x02000000u;
 586              		.loc 1 344 0
 587 004e FB68     		ldr	r3, [r7, #12]
 588 0050 064A     		ldr	r2, .L24+8
 589 0052 1340     		ands	r3, r2
 590 0054 FB60     		str	r3, [r7, #12]
 591              	.L23:
 345:Generated_Source\PSoC4/cyfitter_cfg.c **** 	}
 346:Generated_Source\PSoC4/cyfitter_cfg.c **** 	CY_SET_XTND_REG32((void *)(CYREG_CLK_IMO_CONFIG), regValue);
 592              		.loc 1 346 0
 593 0056 044B     		ldr	r3, .L24+4
 594 0058 FA68     		ldr	r2, [r7, #12]
 595 005a 1A60     		str	r2, [r3]
 347:Generated_Source\PSoC4/cyfitter_cfg.c **** }
 596              		.loc 1 347 0
 597 005c C046     		nop
 598 005e BD46     		mov	sp, r7
 599 0060 04B0     		add	sp, sp, #16
 600              		@ sp needed
 601 0062 80BD     		pop	{r7, pc}
 602              	.L25:
 603              		.align	2
 604              	.L24:
 605 0064 80033A40 		.word	1077543808
 606 0068 08010B40 		.word	1074462984
 607 006c FFFFFFFD 		.word	-33554433
 608              		.cfi_endproc
 609              	.LFE9:
 610              		.size	SetAnalogRoutingPumps, .-SetAnalogRoutingPumps
 611              		.section	.psocinit
 612              		.align	2
 613              		.global	cyfitter_cfg
 614              		.code	16
 615              		.thumb_func
 616              		.type	cyfitter_cfg, %function
 617              	cyfitter_cfg:
 618              	.LFB10:
 348:Generated_Source\PSoC4/cyfitter_cfg.c **** 
ARM GAS  C:\Users\d4hhm\AppData\Local\Temp\ccL7RPka.s 			page 18


 349:Generated_Source\PSoC4/cyfitter_cfg.c **** 
 350:Generated_Source\PSoC4/cyfitter_cfg.c **** 
 351:Generated_Source\PSoC4/cyfitter_cfg.c **** 
 352:Generated_Source\PSoC4/cyfitter_cfg.c **** /*******************************************************************************
 353:Generated_Source\PSoC4/cyfitter_cfg.c **** * Function Name: cyfitter_cfg
 354:Generated_Source\PSoC4/cyfitter_cfg.c **** ********************************************************************************
 355:Generated_Source\PSoC4/cyfitter_cfg.c **** * Summary:
 356:Generated_Source\PSoC4/cyfitter_cfg.c **** *  This function is called by the start-up code for the selected device. It
 357:Generated_Source\PSoC4/cyfitter_cfg.c **** *  performs all of the necessary device configuration based on the design
 358:Generated_Source\PSoC4/cyfitter_cfg.c **** *  settings.  This includes settings from the Design Wide Resources (DWR) such
 359:Generated_Source\PSoC4/cyfitter_cfg.c **** *  as Clocks and Pins as well as any component configuration that is necessary.
 360:Generated_Source\PSoC4/cyfitter_cfg.c **** *
 361:Generated_Source\PSoC4/cyfitter_cfg.c **** * Parameters:
 362:Generated_Source\PSoC4/cyfitter_cfg.c **** *   void
 363:Generated_Source\PSoC4/cyfitter_cfg.c **** *
 364:Generated_Source\PSoC4/cyfitter_cfg.c **** * Return:
 365:Generated_Source\PSoC4/cyfitter_cfg.c **** *   void
 366:Generated_Source\PSoC4/cyfitter_cfg.c **** *
 367:Generated_Source\PSoC4/cyfitter_cfg.c **** *******************************************************************************/
 368:Generated_Source\PSoC4/cyfitter_cfg.c **** CY_CFG_SECTION
 369:Generated_Source\PSoC4/cyfitter_cfg.c **** void cyfitter_cfg(void)
 370:Generated_Source\PSoC4/cyfitter_cfg.c **** {
 619              		.loc 1 370 0
 620              		.cfi_startproc
 621              		@ args = 0, pretend = 0, frame = 8
 622              		@ frame_needed = 1, uses_anonymous_args = 0
 623 016c 80B5     		push	{r7, lr}
 624              		.cfi_def_cfa_offset 8
 625              		.cfi_offset 7, -8
 626              		.cfi_offset 14, -4
 627 016e 82B0     		sub	sp, sp, #8
 628              		.cfi_def_cfa_offset 16
 629 0170 00AF     		add	r7, sp, #0
 630              		.cfi_def_cfa_register 7
 371:Generated_Source\PSoC4/cyfitter_cfg.c **** 	/* Disable interrupts by default. Let user enable if/when they want. */
 372:Generated_Source\PSoC4/cyfitter_cfg.c **** 	CyGlobalIntDisable;
 631              		.loc 1 372 0
 632              		.syntax divided
 633              	@ 372 "Generated_Source\PSoC4\cyfitter_cfg.c" 1
 634 0172 72B6     		CPSID   i
 635              	@ 0 "" 2
 373:Generated_Source\PSoC4/cyfitter_cfg.c **** 
 374:Generated_Source\PSoC4/cyfitter_cfg.c **** 	CY_SET_REG32((void *)(CYREG_BLE_BLESS_LL_DSM_CTRL), 0x00000000u);
 636              		.loc 1 374 0
 637              		.thumb
 638              		.syntax unified
 639 0174 394B     		ldr	r3, .L29
 640 0176 0022     		movs	r2, #0
 641 0178 1A60     		str	r2, [r3]
 642              	.LBB3:
 375:Generated_Source\PSoC4/cyfitter_cfg.c **** 
 376:Generated_Source\PSoC4/cyfitter_cfg.c **** 	{
 377:Generated_Source\PSoC4/cyfitter_cfg.c **** 		static const uint32 CYCODE cy_cfg_addr_table[] = {
 378:Generated_Source\PSoC4/cyfitter_cfg.c **** 			0x400F3204u, /* Base address: 0x400F3200 Count: 4 */
 379:Generated_Source\PSoC4/cyfitter_cfg.c **** 			0x400F3303u, /* Base address: 0x400F3300 Count: 3 */
 380:Generated_Source\PSoC4/cyfitter_cfg.c **** 			0x400F4106u, /* Base address: 0x400F4100 Count: 6 */
 381:Generated_Source\PSoC4/cyfitter_cfg.c **** 		};
ARM GAS  C:\Users\d4hhm\AppData\Local\Temp\ccL7RPka.s 			page 19


 382:Generated_Source\PSoC4/cyfitter_cfg.c **** 
 383:Generated_Source\PSoC4/cyfitter_cfg.c **** 		static const cy_cfg_addrvalue_t CYCODE cy_cfg_data_table[] = {
 384:Generated_Source\PSoC4/cyfitter_cfg.c **** 			{0x38u, 0x80u},
 385:Generated_Source\PSoC4/cyfitter_cfg.c **** 			{0x3Eu, 0x40u},
 386:Generated_Source\PSoC4/cyfitter_cfg.c **** 			{0x58u, 0x04u},
 387:Generated_Source\PSoC4/cyfitter_cfg.c **** 			{0x5Fu, 0x01u},
 388:Generated_Source\PSoC4/cyfitter_cfg.c **** 			{0x1Fu, 0x80u},
 389:Generated_Source\PSoC4/cyfitter_cfg.c **** 			{0x83u, 0x80u},
 390:Generated_Source\PSoC4/cyfitter_cfg.c **** 			{0x87u, 0x80u},
 391:Generated_Source\PSoC4/cyfitter_cfg.c **** 			{0x3Bu, 0x02u},
 392:Generated_Source\PSoC4/cyfitter_cfg.c **** 			{0x3Fu, 0x02u},
 393:Generated_Source\PSoC4/cyfitter_cfg.c **** 			{0x83u, 0x01u},
 394:Generated_Source\PSoC4/cyfitter_cfg.c **** 			{0x87u, 0x01u},
 395:Generated_Source\PSoC4/cyfitter_cfg.c **** 			{0xCEu, 0xC0u},
 396:Generated_Source\PSoC4/cyfitter_cfg.c **** 			{0xE6u, 0x30u},
 397:Generated_Source\PSoC4/cyfitter_cfg.c **** 		};
 398:Generated_Source\PSoC4/cyfitter_cfg.c **** 
 399:Generated_Source\PSoC4/cyfitter_cfg.c **** 
 400:Generated_Source\PSoC4/cyfitter_cfg.c **** 
 401:Generated_Source\PSoC4/cyfitter_cfg.c **** 		CYPACKED typedef struct {
 402:Generated_Source\PSoC4/cyfitter_cfg.c **** 			void CYFAR *address;
 403:Generated_Source\PSoC4/cyfitter_cfg.c **** 			uint16 size;
 404:Generated_Source\PSoC4/cyfitter_cfg.c **** 		} CYPACKED_ATTR cfg_memset_t;
 405:Generated_Source\PSoC4/cyfitter_cfg.c **** 
 406:Generated_Source\PSoC4/cyfitter_cfg.c **** 		static const cfg_memset_t CYCODE cfg_memset_list[] = {
 407:Generated_Source\PSoC4/cyfitter_cfg.c **** 			/* address, size */
 408:Generated_Source\PSoC4/cyfitter_cfg.c **** 			{(void CYFAR *)(CYDEV_UDB_P0_U0_BASE), 1024u},
 409:Generated_Source\PSoC4/cyfitter_cfg.c **** 			{(void CYFAR *)(CYDEV_UDB_DSI0_BASE), 1024u},
 410:Generated_Source\PSoC4/cyfitter_cfg.c **** 		};
 411:Generated_Source\PSoC4/cyfitter_cfg.c **** 
 412:Generated_Source\PSoC4/cyfitter_cfg.c **** 		uint8 CYDATA i;
 413:Generated_Source\PSoC4/cyfitter_cfg.c **** 
 414:Generated_Source\PSoC4/cyfitter_cfg.c **** 		/* Zero out critical memory blocks before beginning configuration */
 415:Generated_Source\PSoC4/cyfitter_cfg.c **** 		for (i = 0u; i < (sizeof(cfg_memset_list)/sizeof(cfg_memset_list[0])); i++)
 643              		.loc 1 415 0
 644 017a FB1D     		adds	r3, r7, #7
 645 017c 0022     		movs	r2, #0
 646 017e 1A70     		strb	r2, [r3]
 647 0180 22E0     		b	.L27
 648              	.L28:
 649              	.LBB4:
 416:Generated_Source\PSoC4/cyfitter_cfg.c **** 		{
 417:Generated_Source\PSoC4/cyfitter_cfg.c **** 			const cfg_memset_t CYCODE * CYDATA ms = &cfg_memset_list[i];
 650              		.loc 1 417 0 discriminator 3
 651 0182 FB1D     		adds	r3, r7, #7
 652 0184 1A78     		ldrb	r2, [r3]
 653 0186 1300     		movs	r3, r2
 654 0188 5B00     		lsls	r3, r3, #1
 655 018a 9B18     		adds	r3, r3, r2
 656 018c 5B00     		lsls	r3, r3, #1
 657 018e 344A     		ldr	r2, .L29+4
 658 0190 9B18     		adds	r3, r3, r2
 659 0192 3B60     		str	r3, [r7]
 418:Generated_Source\PSoC4/cyfitter_cfg.c **** 			CYMEMZERO(ms->address, (size_t)(uint32)(ms->size));
 660              		.loc 1 418 0 discriminator 3
 661 0194 3B68     		ldr	r3, [r7]
 662 0196 1A78     		ldrb	r2, [r3]
ARM GAS  C:\Users\d4hhm\AppData\Local\Temp\ccL7RPka.s 			page 20


 663 0198 5978     		ldrb	r1, [r3, #1]
 664 019a 0902     		lsls	r1, r1, #8
 665 019c 0A43     		orrs	r2, r1
 666 019e 9978     		ldrb	r1, [r3, #2]
 667 01a0 0904     		lsls	r1, r1, #16
 668 01a2 0A43     		orrs	r2, r1
 669 01a4 DB78     		ldrb	r3, [r3, #3]
 670 01a6 1B06     		lsls	r3, r3, #24
 671 01a8 1343     		orrs	r3, r2
 672 01aa 1800     		movs	r0, r3
 673 01ac 3B68     		ldr	r3, [r7]
 674 01ae 1A79     		ldrb	r2, [r3, #4]
 675 01b0 5B79     		ldrb	r3, [r3, #5]
 676 01b2 1B02     		lsls	r3, r3, #8
 677 01b4 1343     		orrs	r3, r2
 678 01b6 9BB2     		uxth	r3, r3
 679 01b8 1900     		movs	r1, r3
 680 01ba FFF7FEFF 		bl	CYMEMZERO
 681              	.LBE4:
 415:Generated_Source\PSoC4/cyfitter_cfg.c **** 		{
 682              		.loc 1 415 0 discriminator 3
 683 01be FB1D     		adds	r3, r7, #7
 684 01c0 1A78     		ldrb	r2, [r3]
 685 01c2 FB1D     		adds	r3, r7, #7
 686 01c4 0132     		adds	r2, r2, #1
 687 01c6 1A70     		strb	r2, [r3]
 688              	.L27:
 415:Generated_Source\PSoC4/cyfitter_cfg.c **** 		{
 689              		.loc 1 415 0 is_stmt 0 discriminator 1
 690 01c8 FB1D     		adds	r3, r7, #7
 691 01ca 1B78     		ldrb	r3, [r3]
 692 01cc 012B     		cmp	r3, #1
 693 01ce D8D9     		bls	.L28
 419:Generated_Source\PSoC4/cyfitter_cfg.c **** 		}
 420:Generated_Source\PSoC4/cyfitter_cfg.c **** 
 421:Generated_Source\PSoC4/cyfitter_cfg.c **** 		cfg_write_bytes32(cy_cfg_addr_table, cy_cfg_data_table);
 694              		.loc 1 421 0 is_stmt 1
 695 01d0 244A     		ldr	r2, .L29+8
 696 01d2 254B     		ldr	r3, .L29+12
 697 01d4 1100     		movs	r1, r2
 698 01d6 1800     		movs	r0, r3
 699 01d8 FFF7FEFF 		bl	cfg_write_bytes32
 422:Generated_Source\PSoC4/cyfitter_cfg.c **** 
 423:Generated_Source\PSoC4/cyfitter_cfg.c **** 		/* PWR_BG_CONFIG Starting address: CYDEV_PWR_BG_CONFIG */
 424:Generated_Source\PSoC4/cyfitter_cfg.c **** 		CY_SET_REG32((void *)(CYREG_PWR_BG_CONFIG), 0x00040000u);
 700              		.loc 1 424 0
 701 01dc 234B     		ldr	r3, .L29+16
 702 01de 8022     		movs	r2, #128
 703 01e0 D202     		lsls	r2, r2, #11
 704 01e2 1A60     		str	r2, [r3]
 425:Generated_Source\PSoC4/cyfitter_cfg.c **** 
 426:Generated_Source\PSoC4/cyfitter_cfg.c **** 		/* HSIOM Starting address: CYDEV_HSIOM_BASE */
 427:Generated_Source\PSoC4/cyfitter_cfg.c **** 		CY_SET_REG32((void *)(CYDEV_HSIOM_BASE), 0xEEEE0000u);
 705              		.loc 1 427 0
 706 01e4 224B     		ldr	r3, .L29+20
 707 01e6 234A     		ldr	r2, .L29+24
 708 01e8 1A60     		str	r2, [r3]
ARM GAS  C:\Users\d4hhm\AppData\Local\Temp\ccL7RPka.s 			page 21


 428:Generated_Source\PSoC4/cyfitter_cfg.c **** 
 429:Generated_Source\PSoC4/cyfitter_cfg.c **** 		/* UDB_PA_0 Starting address: CYDEV_UDB_PA0_BASE */
 430:Generated_Source\PSoC4/cyfitter_cfg.c **** 		CY_SET_REG32((void *)(CYDEV_UDB_PA0_BASE), 0x00990000u);
 709              		.loc 1 430 0
 710 01ea 234B     		ldr	r3, .L29+28
 711 01ec 9922     		movs	r2, #153
 712 01ee 1204     		lsls	r2, r2, #16
 713 01f0 1A60     		str	r2, [r3]
 431:Generated_Source\PSoC4/cyfitter_cfg.c **** 
 432:Generated_Source\PSoC4/cyfitter_cfg.c **** 		/* UDB_PA_3 Starting address: CYDEV_UDB_PA3_BASE */
 433:Generated_Source\PSoC4/cyfitter_cfg.c **** 		CY_SET_REG32((void *)(CYDEV_UDB_PA3_BASE), 0x00990000u);
 714              		.loc 1 433 0
 715 01f2 224B     		ldr	r3, .L29+32
 716 01f4 9922     		movs	r2, #153
 717 01f6 1204     		lsls	r2, r2, #16
 718 01f8 1A60     		str	r2, [r3]
 434:Generated_Source\PSoC4/cyfitter_cfg.c **** 
 435:Generated_Source\PSoC4/cyfitter_cfg.c **** 		/* Enable UDB array and digital routing */
 436:Generated_Source\PSoC4/cyfitter_cfg.c **** 		CY_SET_XTND_REG8((void *)CYREG_UDB_UDBIF_WAIT_CFG, (uint8)((CY_GET_XTND_REG8((void *)CYREG_UDB_UD
 719              		.loc 1 436 0
 720 01fa 214A     		ldr	r2, .L29+36
 721 01fc 204B     		ldr	r3, .L29+36
 722 01fe 1B78     		ldrb	r3, [r3]
 723 0200 DBB2     		uxtb	r3, r3
 724 0202 3C21     		movs	r1, #60
 725 0204 8B43     		bics	r3, r1
 726 0206 DBB2     		uxtb	r3, r3
 727 0208 1421     		movs	r1, #20
 728 020a 0B43     		orrs	r3, r1
 729 020c DBB2     		uxtb	r3, r3
 730 020e 1370     		strb	r3, [r2]
 437:Generated_Source\PSoC4/cyfitter_cfg.c **** 		CY_SET_XTND_REG8((void *)CYREG_UDB_UDBIF_BANK_CTL, (uint8)(CY_GET_XTND_REG8((void *)CYREG_UDB_UDB
 731              		.loc 1 437 0
 732 0210 1C4A     		ldr	r2, .L29+40
 733 0212 1C4B     		ldr	r3, .L29+40
 734 0214 1B78     		ldrb	r3, [r3]
 735 0216 DBB2     		uxtb	r3, r3
 736 0218 1621     		movs	r1, #22
 737 021a 0B43     		orrs	r3, r1
 738 021c DBB2     		uxtb	r3, r3
 739 021e 1370     		strb	r3, [r2]
 740              	.LBE3:
 438:Generated_Source\PSoC4/cyfitter_cfg.c **** 	}
 439:Generated_Source\PSoC4/cyfitter_cfg.c **** 
 440:Generated_Source\PSoC4/cyfitter_cfg.c **** 	/* Perform second pass device configuration. These items must be configured in specific order afte
 441:Generated_Source\PSoC4/cyfitter_cfg.c **** 	/* IOPINS0_0 Starting address: CYDEV_GPIO_PRT0_BASE */
 442:Generated_Source\PSoC4/cyfitter_cfg.c **** 	CY_SET_REG32((void *)(CYDEV_GPIO_PRT0_BASE), 0x00000030u);
 741              		.loc 1 442 0
 742 0220 194B     		ldr	r3, .L29+44
 743 0222 3022     		movs	r2, #48
 744 0224 1A60     		str	r2, [r3]
 443:Generated_Source\PSoC4/cyfitter_cfg.c **** 	CY_SET_REG32((void *)(CYREG_GPIO_PRT0_PC), 0x00DA4000u);
 745              		.loc 1 443 0
 746 0226 194B     		ldr	r3, .L29+48
 747 0228 194A     		ldr	r2, .L29+52
 748 022a 1A60     		str	r2, [r3]
 444:Generated_Source\PSoC4/cyfitter_cfg.c **** 
ARM GAS  C:\Users\d4hhm\AppData\Local\Temp\ccL7RPka.s 			page 22


 445:Generated_Source\PSoC4/cyfitter_cfg.c **** 	/* IOPINS0_3 Starting address: CYDEV_GPIO_PRT3_BASE */
 446:Generated_Source\PSoC4/cyfitter_cfg.c **** 	CY_SET_REG32((void *)(CYDEV_GPIO_PRT3_BASE), 0x00000090u);
 749              		.loc 1 446 0
 750 022c 194B     		ldr	r3, .L29+56
 751 022e 9022     		movs	r2, #144
 752 0230 1A60     		str	r2, [r3]
 447:Generated_Source\PSoC4/cyfitter_cfg.c **** 	CY_SET_REG32((void *)(CYREG_GPIO_PRT3_PC), 0x00006000u);
 753              		.loc 1 447 0
 754 0232 194B     		ldr	r3, .L29+60
 755 0234 C022     		movs	r2, #192
 756 0236 D201     		lsls	r2, r2, #7
 757 0238 1A60     		str	r2, [r3]
 448:Generated_Source\PSoC4/cyfitter_cfg.c **** 	CY_SET_REG32((void *)(CYREG_GPIO_PRT3_PC2), 0x00000090u);
 758              		.loc 1 448 0
 759 023a 184B     		ldr	r3, .L29+64
 760 023c 9022     		movs	r2, #144
 761 023e 1A60     		str	r2, [r3]
 449:Generated_Source\PSoC4/cyfitter_cfg.c **** 
 450:Generated_Source\PSoC4/cyfitter_cfg.c **** 	/* IOPINS0_4 Starting address: CYDEV_GPIO_PRT4_BASE */
 451:Generated_Source\PSoC4/cyfitter_cfg.c **** 	CY_SET_REG32((void *)(CYDEV_GPIO_PRT4_BASE), 0x00000001u);
 762              		.loc 1 451 0
 763 0240 174B     		ldr	r3, .L29+68
 764 0242 0122     		movs	r2, #1
 765 0244 1A60     		str	r2, [r3]
 452:Generated_Source\PSoC4/cyfitter_cfg.c **** 	CY_SET_REG32((void *)(CYREG_GPIO_PRT4_PC2), 0x00000001u);
 766              		.loc 1 452 0
 767 0246 174B     		ldr	r3, .L29+72
 768 0248 0122     		movs	r2, #1
 769 024a 1A60     		str	r2, [r3]
 453:Generated_Source\PSoC4/cyfitter_cfg.c **** 
 454:Generated_Source\PSoC4/cyfitter_cfg.c **** 
 455:Generated_Source\PSoC4/cyfitter_cfg.c **** 	/* Setup clocks based on selections from Clock DWR */
 456:Generated_Source\PSoC4/cyfitter_cfg.c **** 	ClockSetup();
 770              		.loc 1 456 0
 771 024c FFF7D8FE 		bl	ClockSetup
 457:Generated_Source\PSoC4/cyfitter_cfg.c **** 
 458:Generated_Source\PSoC4/cyfitter_cfg.c **** 	/* Perform basic analog initialization to defaults */
 459:Generated_Source\PSoC4/cyfitter_cfg.c **** 	AnalogSetDefault();
 772              		.loc 1 459 0
 773 0250 FFF7FEFF 		bl	AnalogSetDefault
 460:Generated_Source\PSoC4/cyfitter_cfg.c **** 
 461:Generated_Source\PSoC4/cyfitter_cfg.c **** }
 774              		.loc 1 461 0
 775 0254 C046     		nop
 776 0256 BD46     		mov	sp, r7
 777 0258 02B0     		add	sp, sp, #8
 778              		@ sp needed
 779 025a 80BD     		pop	{r7, pc}
 780              	.L30:
 781              		.align	2
 782              	.L29:
 783 025c 6CF02E40 		.word	1076818028
 784 0260 00000000 		.word	cfg_memset_list.4923
 785 0264 18000000 		.word	cy_cfg_data_table.4918
 786 0268 0C000000 		.word	cy_cfg_addr_table.4917
 787 026c 14000B40 		.word	1074462740
 788 0270 00000240 		.word	1073872896
ARM GAS  C:\Users\d4hhm\AppData\Local\Temp\ccL7RPka.s 			page 23


 789 0274 0000EEEE 		.word	-286392320
 790 0278 00500F40 		.word	1074745344
 791 027c 30500F40 		.word	1074745392
 792 0280 01700F40 		.word	1074753537
 793 0284 00700F40 		.word	1074753536
 794 0288 00000440 		.word	1074003968
 795 028c 08000440 		.word	1074003976
 796 0290 0040DA00 		.word	14303232
 797 0294 00030440 		.word	1074004736
 798 0298 08030440 		.word	1074004744
 799 029c 18030440 		.word	1074004760
 800 02a0 00040440 		.word	1074004992
 801 02a4 18040440 		.word	1074005016
 802              		.cfi_endproc
 803              	.LFE10:
 804              		.size	cyfitter_cfg, .-cyfitter_cfg
 805              		.section	.rodata
 806              		.align	2
 807              		.type	cfg_memset_list.4923, %object
 808              		.size	cfg_memset_list.4923, 12
 809              	cfg_memset_list.4923:
 810 0000 00300F40 		.word	1074737152
 811 0004 0004     		.short	1024
 812 0006 00400F40 		.4byte	1074741248
 813 000a 0004     		.short	1024
 814              		.align	2
 815              		.type	cy_cfg_addr_table.4917, %object
 816              		.size	cy_cfg_addr_table.4917, 12
 817              	cy_cfg_addr_table.4917:
 818 000c 04320F40 		.word	1074737668
 819 0010 03330F40 		.word	1074737923
 820 0014 06410F40 		.word	1074741510
 821              		.align	2
 822              		.type	cy_cfg_data_table.4918, %object
 823              		.size	cy_cfg_data_table.4918, 26
 824              	cy_cfg_data_table.4918:
 825 0018 38       		.byte	56
 826 0019 80       		.byte	-128
 827 001a 3E       		.byte	62
 828 001b 40       		.byte	64
 829 001c 58       		.byte	88
 830 001d 04       		.byte	4
 831 001e 5F       		.byte	95
 832 001f 01       		.byte	1
 833 0020 1F       		.byte	31
 834 0021 80       		.byte	-128
 835 0022 83       		.byte	-125
 836 0023 80       		.byte	-128
 837 0024 87       		.byte	-121
 838 0025 80       		.byte	-128
 839 0026 3B       		.byte	59
 840 0027 02       		.byte	2
 841 0028 3F       		.byte	63
 842 0029 02       		.byte	2
 843 002a 83       		.byte	-125
 844 002b 01       		.byte	1
 845 002c 87       		.byte	-121
ARM GAS  C:\Users\d4hhm\AppData\Local\Temp\ccL7RPka.s 			page 24


 846 002d 01       		.byte	1
 847 002e CE       		.byte	-50
 848 002f C0       		.byte	-64
 849 0030 E6       		.byte	-26
 850 0031 30       		.byte	48
 851              		.text
 852              	.Letext0:
 853              		.file 2 "c:\\program files (x86)\\cypress\\psoc creator\\4.2\\psoc creator\\import\\gnu\\arm\\5.4.
 854              		.file 3 "Generated_Source\\PSoC4\\cytypes.h"
 855              		.section	.debug_info,"",%progbits
 856              	.Ldebug_info0:
 857 0000 C6030000 		.4byte	0x3c6
 858 0004 0400     		.2byte	0x4
 859 0006 00000000 		.4byte	.Ldebug_abbrev0
 860 000a 04       		.byte	0x4
 861 000b 01       		.uleb128 0x1
 862 000c 21010000 		.4byte	.LASF46
 863 0010 0C       		.byte	0xc
 864 0011 E5020000 		.4byte	.LASF47
 865 0015 2E000000 		.4byte	.LASF48
 866 0019 00000000 		.4byte	.Ldebug_ranges0+0
 867 001d 00000000 		.4byte	0
 868 0021 00000000 		.4byte	.Ldebug_line0
 869 0025 02       		.uleb128 0x2
 870 0026 04       		.byte	0x4
 871 0027 05       		.byte	0x5
 872 0028 696E7400 		.ascii	"int\000"
 873 002c 03       		.uleb128 0x3
 874 002d 16000000 		.4byte	.LASF12
 875 0031 02       		.byte	0x2
 876 0032 D8       		.byte	0xd8
 877 0033 37000000 		.4byte	0x37
 878 0037 04       		.uleb128 0x4
 879 0038 04       		.byte	0x4
 880 0039 07       		.byte	0x7
 881 003a 27020000 		.4byte	.LASF0
 882 003e 04       		.uleb128 0x4
 883 003f 08       		.byte	0x8
 884 0040 05       		.byte	0x5
 885 0041 85020000 		.4byte	.LASF1
 886 0045 04       		.uleb128 0x4
 887 0046 08       		.byte	0x8
 888 0047 04       		.byte	0x4
 889 0048 CD020000 		.4byte	.LASF2
 890 004c 04       		.uleb128 0x4
 891 004d 01       		.byte	0x1
 892 004e 06       		.byte	0x6
 893 004f D9020000 		.4byte	.LASF3
 894 0053 04       		.uleb128 0x4
 895 0054 01       		.byte	0x1
 896 0055 08       		.byte	0x8
 897 0056 C5010000 		.4byte	.LASF4
 898 005a 04       		.uleb128 0x4
 899 005b 02       		.byte	0x2
 900 005c 05       		.byte	0x5
 901 005d B2020000 		.4byte	.LASF5
 902 0061 04       		.uleb128 0x4
ARM GAS  C:\Users\d4hhm\AppData\Local\Temp\ccL7RPka.s 			page 25


 903 0062 02       		.byte	0x2
 904 0063 07       		.byte	0x7
 905 0064 72020000 		.4byte	.LASF6
 906 0068 04       		.uleb128 0x4
 907 0069 04       		.byte	0x4
 908 006a 05       		.byte	0x5
 909 006b C4020000 		.4byte	.LASF7
 910 006f 04       		.uleb128 0x4
 911 0070 04       		.byte	0x4
 912 0071 07       		.byte	0x7
 913 0072 FF000000 		.4byte	.LASF8
 914 0076 04       		.uleb128 0x4
 915 0077 08       		.byte	0x8
 916 0078 07       		.byte	0x7
 917 0079 3C020000 		.4byte	.LASF9
 918 007d 04       		.uleb128 0x4
 919 007e 04       		.byte	0x4
 920 007f 07       		.byte	0x7
 921 0080 69020000 		.4byte	.LASF10
 922 0084 05       		.uleb128 0x5
 923 0085 04       		.byte	0x4
 924 0086 04       		.uleb128 0x4
 925 0087 01       		.byte	0x1
 926 0088 08       		.byte	0x8
 927 0089 93020000 		.4byte	.LASF11
 928 008d 06       		.uleb128 0x6
 929 008e 11010000 		.4byte	.LASF13
 930 0092 03       		.byte	0x3
 931 0093 E601     		.2byte	0x1e6
 932 0095 53000000 		.4byte	0x53
 933 0099 06       		.uleb128 0x6
 934 009a 04020000 		.4byte	.LASF14
 935 009e 03       		.byte	0x3
 936 009f E701     		.2byte	0x1e7
 937 00a1 61000000 		.4byte	0x61
 938 00a5 06       		.uleb128 0x6
 939 00a6 20020000 		.4byte	.LASF15
 940 00aa 03       		.byte	0x3
 941 00ab E801     		.2byte	0x1e8
 942 00ad 6F000000 		.4byte	0x6f
 943 00b1 04       		.uleb128 0x4
 944 00b2 04       		.byte	0x4
 945 00b3 04       		.byte	0x4
 946 00b4 C6000000 		.4byte	.LASF16
 947 00b8 04       		.uleb128 0x4
 948 00b9 08       		.byte	0x8
 949 00ba 04       		.byte	0x4
 950 00bb D3010000 		.4byte	.LASF17
 951 00bf 06       		.uleb128 0x6
 952 00c0 FA000000 		.4byte	.LASF18
 953 00c4 03       		.byte	0x3
 954 00c5 9002     		.2byte	0x290
 955 00c7 CB000000 		.4byte	0xcb
 956 00cb 07       		.uleb128 0x7
 957 00cc 8D000000 		.4byte	0x8d
 958 00d0 06       		.uleb128 0x6
 959 00d1 10000000 		.4byte	.LASF19
ARM GAS  C:\Users\d4hhm\AppData\Local\Temp\ccL7RPka.s 			page 26


 960 00d5 03       		.byte	0x3
 961 00d6 9202     		.2byte	0x292
 962 00d8 DC000000 		.4byte	0xdc
 963 00dc 07       		.uleb128 0x7
 964 00dd A5000000 		.4byte	0xa5
 965 00e1 08       		.uleb128 0x8
 966 00e2 02       		.byte	0x2
 967 00e3 01       		.byte	0x1
 968 00e4 99       		.byte	0x99
 969 00e5 02010000 		.4byte	0x102
 970 00e9 09       		.uleb128 0x9
 971 00ea AB020000 		.4byte	.LASF20
 972 00ee 01       		.byte	0x1
 973 00ef 9B       		.byte	0x9b
 974 00f0 8D000000 		.4byte	0x8d
 975 00f4 00       		.byte	0
 976 00f5 09       		.uleb128 0x9
 977 00f6 8B000000 		.4byte	.LASF21
 978 00fa 01       		.byte	0x1
 979 00fb 9C       		.byte	0x9c
 980 00fc 8D000000 		.4byte	0x8d
 981 0100 01       		.byte	0x1
 982 0101 00       		.byte	0
 983 0102 03       		.uleb128 0x3
 984 0103 98020000 		.4byte	.LASF22
 985 0107 01       		.byte	0x1
 986 0108 9D       		.byte	0x9d
 987 0109 E1000000 		.4byte	0xe1
 988 010d 0A       		.uleb128 0xa
 989 010e 17010000 		.4byte	.LASF23
 990 0112 01       		.byte	0x1
 991 0113 4E       		.byte	0x4e
 992 0114 00000000 		.4byte	.LFB2
 993 0118 1E000000 		.4byte	.LFE2-.LFB2
 994 011c 01       		.uleb128 0x1
 995 011d 9C       		.byte	0x9c
 996 011e 3B010000 		.4byte	0x13b
 997 0122 0B       		.uleb128 0xb
 998 0123 7300     		.ascii	"s\000"
 999 0125 01       		.byte	0x1
 1000 0126 4E       		.byte	0x4e
 1001 0127 84000000 		.4byte	0x84
 1002 012b 02       		.uleb128 0x2
 1003 012c 91       		.byte	0x91
 1004 012d 74       		.sleb128 -12
 1005 012e 0B       		.uleb128 0xb
 1006 012f 6E00     		.ascii	"n\000"
 1007 0131 01       		.byte	0x1
 1008 0132 4E       		.byte	0x4e
 1009 0133 2C000000 		.4byte	0x2c
 1010 0137 02       		.uleb128 0x2
 1011 0138 91       		.byte	0x91
 1012 0139 70       		.sleb128 -16
 1013 013a 00       		.byte	0
 1014 013b 0A       		.uleb128 0xa
 1015 013c 14030000 		.4byte	.LASF24
 1016 0140 01       		.byte	0x1
ARM GAS  C:\Users\d4hhm\AppData\Local\Temp\ccL7RPka.s 			page 27


 1017 0141 55       		.byte	0x55
 1018 0142 00000000 		.4byte	.LFB3
 1019 0146 20000000 		.4byte	.LFE3-.LFB3
 1020 014a 01       		.uleb128 0x1
 1021 014b 9C       		.byte	0x9c
 1022 014c 79010000 		.4byte	0x179
 1023 0150 0C       		.uleb128 0xc
 1024 0151 E0000000 		.4byte	.LASF25
 1025 0155 01       		.byte	0x1
 1026 0156 55       		.byte	0x55
 1027 0157 84000000 		.4byte	0x84
 1028 015b 02       		.uleb128 0x2
 1029 015c 91       		.byte	0x91
 1030 015d 74       		.sleb128 -12
 1031 015e 0B       		.uleb128 0xb
 1032 015f 73726300 		.ascii	"src\000"
 1033 0163 01       		.byte	0x1
 1034 0164 55       		.byte	0x55
 1035 0165 79010000 		.4byte	0x179
 1036 0169 02       		.uleb128 0x2
 1037 016a 91       		.byte	0x91
 1038 016b 70       		.sleb128 -16
 1039 016c 0B       		.uleb128 0xb
 1040 016d 6E00     		.ascii	"n\000"
 1041 016f 01       		.byte	0x1
 1042 0170 55       		.byte	0x55
 1043 0171 2C000000 		.4byte	0x2c
 1044 0175 02       		.uleb128 0x2
 1045 0176 91       		.byte	0x91
 1046 0177 6C       		.sleb128 -20
 1047 0178 00       		.byte	0
 1048 0179 0D       		.uleb128 0xd
 1049 017a 04       		.byte	0x4
 1050 017b 7F010000 		.4byte	0x17f
 1051 017f 0E       		.uleb128 0xe
 1052 0180 0A       		.uleb128 0xa
 1053 0181 00000000 		.4byte	.LASF26
 1054 0185 01       		.byte	0x1
 1055 0186 5C       		.byte	0x5c
 1056 0187 00000000 		.4byte	.LFB4
 1057 018b 20000000 		.4byte	.LFE4-.LFB4
 1058 018f 01       		.uleb128 0x1
 1059 0190 9C       		.byte	0x9c
 1060 0191 BE010000 		.4byte	0x1be
 1061 0195 0C       		.uleb128 0xc
 1062 0196 E0000000 		.4byte	.LASF25
 1063 019a 01       		.byte	0x1
 1064 019b 5C       		.byte	0x5c
 1065 019c 84000000 		.4byte	0x84
 1066 01a0 02       		.uleb128 0x2
 1067 01a1 91       		.byte	0x91
 1068 01a2 74       		.sleb128 -12
 1069 01a3 0B       		.uleb128 0xb
 1070 01a4 73726300 		.ascii	"src\000"
 1071 01a8 01       		.byte	0x1
 1072 01a9 5C       		.byte	0x5c
 1073 01aa 79010000 		.4byte	0x179
ARM GAS  C:\Users\d4hhm\AppData\Local\Temp\ccL7RPka.s 			page 28


 1074 01ae 02       		.uleb128 0x2
 1075 01af 91       		.byte	0x91
 1076 01b0 70       		.sleb128 -16
 1077 01b1 0B       		.uleb128 0xb
 1078 01b2 6E00     		.ascii	"n\000"
 1079 01b4 01       		.byte	0x1
 1080 01b5 5C       		.byte	0x5c
 1081 01b6 2C000000 		.4byte	0x2c
 1082 01ba 02       		.uleb128 0x2
 1083 01bb 91       		.byte	0x91
 1084 01bc 6C       		.sleb128 -20
 1085 01bd 00       		.byte	0
 1086 01be 0F       		.uleb128 0xf
 1087 01bf CC000000 		.4byte	.LASF27
 1088 01c3 01       		.byte	0x1
 1089 01c4 80       		.byte	0x80
 1090 01c5 00000000 		.4byte	.LFB5
 1091 01c9 16000000 		.4byte	.LFE5-.LFB5
 1092 01cd 01       		.uleb128 0x1
 1093 01ce 9C       		.byte	0x9c
 1094 01cf E2010000 		.4byte	0x1e2
 1095 01d3 0C       		.uleb128 0xc
 1096 01d4 16020000 		.4byte	.LASF28
 1097 01d8 01       		.byte	0x1
 1098 01d9 80       		.byte	0x80
 1099 01da 8D000000 		.4byte	0x8d
 1100 01de 02       		.uleb128 0x2
 1101 01df 91       		.byte	0x91
 1102 01e0 77       		.sleb128 -9
 1103 01e1 00       		.byte	0
 1104 01e2 0F       		.uleb128 0xf
 1105 01e3 DA010000 		.4byte	.LASF29
 1106 01e7 01       		.byte	0x1
 1107 01e8 B0       		.byte	0xb0
 1108 01e9 00000000 		.4byte	.LFB6
 1109 01ed 82000000 		.4byte	.LFE6-.LFB6
 1110 01f1 01       		.uleb128 0x1
 1111 01f2 9C       		.byte	0x9c
 1112 01f3 52020000 		.4byte	0x252
 1113 01f7 0C       		.uleb128 0xc
 1114 01f8 F9010000 		.4byte	.LASF30
 1115 01fc 01       		.byte	0x1
 1116 01fd B0       		.byte	0xb0
 1117 01fe 52020000 		.4byte	0x252
 1118 0202 02       		.uleb128 0x2
 1119 0203 91       		.byte	0x91
 1120 0204 64       		.sleb128 -28
 1121 0205 0C       		.uleb128 0xc
 1122 0206 0B020000 		.4byte	.LASF31
 1123 020a 01       		.byte	0x1
 1124 020b B0       		.byte	0xb0
 1125 020c 5D020000 		.4byte	0x25d
 1126 0210 02       		.uleb128 0x2
 1127 0211 91       		.byte	0x91
 1128 0212 60       		.sleb128 -32
 1129 0213 10       		.uleb128 0x10
 1130 0214 6900     		.ascii	"i\000"
ARM GAS  C:\Users\d4hhm\AppData\Local\Temp\ccL7RPka.s 			page 29


 1131 0216 01       		.byte	0x1
 1132 0217 B3       		.byte	0xb3
 1133 0218 A5000000 		.4byte	0xa5
 1134 021c 02       		.uleb128 0x2
 1135 021d 91       		.byte	0x91
 1136 021e 74       		.sleb128 -12
 1137 021f 10       		.uleb128 0x10
 1138 0220 6A00     		.ascii	"j\000"
 1139 0222 01       		.byte	0x1
 1140 0223 B3       		.byte	0xb3
 1141 0224 A5000000 		.4byte	0xa5
 1142 0228 02       		.uleb128 0x2
 1143 0229 91       		.byte	0x91
 1144 022a 70       		.sleb128 -16
 1145 022b 11       		.uleb128 0x11
 1146 022c 14000000 		.4byte	.LBB2
 1147 0230 5A000000 		.4byte	.LBE2-.LBB2
 1148 0234 12       		.uleb128 0x12
 1149 0235 60020000 		.4byte	.LASF32
 1150 0239 01       		.byte	0x1
 1151 023a B6       		.byte	0xb6
 1152 023b A5000000 		.4byte	0xa5
 1153 023f 02       		.uleb128 0x2
 1154 0240 91       		.byte	0x91
 1155 0241 68       		.sleb128 -24
 1156 0242 12       		.uleb128 0x12
 1157 0243 91000000 		.4byte	.LASF33
 1158 0247 01       		.byte	0x1
 1159 0248 B7       		.byte	0xb7
 1160 0249 8D000000 		.4byte	0x8d
 1161 024d 02       		.uleb128 0x2
 1162 024e 91       		.byte	0x91
 1163 024f 6F       		.sleb128 -17
 1164 0250 00       		.byte	0
 1165 0251 00       		.byte	0
 1166 0252 0D       		.uleb128 0xd
 1167 0253 04       		.byte	0x4
 1168 0254 58020000 		.4byte	0x258
 1169 0258 13       		.uleb128 0x13
 1170 0259 A5000000 		.4byte	0xa5
 1171 025d 0D       		.uleb128 0xd
 1172 025e 04       		.byte	0x4
 1173 025f 63020000 		.4byte	0x263
 1174 0263 13       		.uleb128 0x13
 1175 0264 02010000 		.4byte	0x102
 1176 0268 0A       		.uleb128 0xa
 1177 0269 97000000 		.4byte	.LASF34
 1178 026d 01       		.byte	0x1
 1179 026e D5       		.byte	0xd5
 1180 026f 00000000 		.4byte	.LFB7
 1181 0273 6C010000 		.4byte	.LFE7-.LFB7
 1182 0277 01       		.uleb128 0x1
 1183 0278 9C       		.byte	0x9c
 1184 0279 8C020000 		.4byte	0x28c
 1185 027d 12       		.uleb128 0x12
 1186 027e 20030000 		.4byte	.LASF35
 1187 0282 01       		.byte	0x1
ARM GAS  C:\Users\d4hhm\AppData\Local\Temp\ccL7RPka.s 			page 30


 1188 0283 D7       		.byte	0xd7
 1189 0284 8D000000 		.4byte	0x8d
 1190 0288 02       		.uleb128 0x2
 1191 0289 91       		.byte	0x91
 1192 028a 77       		.sleb128 -9
 1193 028b 00       		.byte	0
 1194 028c 14       		.uleb128 0x14
 1195 028d 1D000000 		.4byte	.LASF49
 1196 0291 01       		.byte	0x1
 1197 0292 2C01     		.2byte	0x12c
 1198 0294 00000000 		.4byte	.LFB8
 1199 0298 30000000 		.4byte	.LFE8-.LFB8
 1200 029c 01       		.uleb128 0x1
 1201 029d 9C       		.byte	0x9c
 1202 029e 15       		.uleb128 0x15
 1203 029f AF010000 		.4byte	.LASF38
 1204 02a3 01       		.byte	0x1
 1205 02a4 4501     		.2byte	0x145
 1206 02a6 00000000 		.4byte	.LFB9
 1207 02aa 70000000 		.4byte	.LFE9-.LFB9
 1208 02ae 01       		.uleb128 0x1
 1209 02af 9C       		.byte	0x9c
 1210 02b0 D3020000 		.4byte	0x2d3
 1211 02b4 16       		.uleb128 0x16
 1212 02b5 BC020000 		.4byte	.LASF36
 1213 02b9 01       		.byte	0x1
 1214 02ba 4501     		.2byte	0x145
 1215 02bc 8D000000 		.4byte	0x8d
 1216 02c0 02       		.uleb128 0x2
 1217 02c1 91       		.byte	0x91
 1218 02c2 6F       		.sleb128 -17
 1219 02c3 17       		.uleb128 0x17
 1220 02c4 0B030000 		.4byte	.LASF37
 1221 02c8 01       		.byte	0x1
 1222 02c9 4701     		.2byte	0x147
 1223 02cb A5000000 		.4byte	0xa5
 1224 02cf 02       		.uleb128 0x2
 1225 02d0 91       		.byte	0x91
 1226 02d1 74       		.sleb128 -12
 1227 02d2 00       		.byte	0
 1228 02d3 18       		.uleb128 0x18
 1229 02d4 EC010000 		.4byte	.LASF39
 1230 02d8 01       		.byte	0x1
 1231 02d9 7101     		.2byte	0x171
 1232 02db 6C010000 		.4byte	.LFB10
 1233 02df 3C010000 		.4byte	.LFE10-.LFB10
 1234 02e3 01       		.uleb128 0x1
 1235 02e4 9C       		.byte	0x9c
 1236 02e5 9F030000 		.4byte	0x39f
 1237 02e9 11       		.uleb128 0x11
 1238 02ea 7A010000 		.4byte	.LBB3
 1239 02ee A6000000 		.4byte	.LBE3-.LBB3
 1240 02f2 17       		.uleb128 0x17
 1241 02f3 A2000000 		.4byte	.LASF40
 1242 02f7 01       		.byte	0x1
 1243 02f8 7901     		.2byte	0x179
 1244 02fa AF030000 		.4byte	0x3af
ARM GAS  C:\Users\d4hhm\AppData\Local\Temp\ccL7RPka.s 			page 31


 1245 02fe 05       		.uleb128 0x5
 1246 02ff 03       		.byte	0x3
 1247 0300 0C000000 		.4byte	cy_cfg_addr_table.4917
 1248 0304 17       		.uleb128 0x17
 1249 0305 B4000000 		.4byte	.LASF41
 1250 0309 01       		.byte	0x1
 1251 030a 7F01     		.2byte	0x17f
 1252 030c C4030000 		.4byte	0x3c4
 1253 0310 05       		.uleb128 0x5
 1254 0311 03       		.byte	0x3
 1255 0312 18000000 		.4byte	cy_cfg_data_table.4918
 1256 0316 19       		.uleb128 0x19
 1257 0317 06       		.byte	0x6
 1258 0318 01       		.byte	0x1
 1259 0319 9101     		.2byte	0x191
 1260 031b 3A030000 		.4byte	0x33a
 1261 031f 1A       		.uleb128 0x1a
 1262 0320 34020000 		.4byte	.LASF42
 1263 0324 01       		.byte	0x1
 1264 0325 9201     		.2byte	0x192
 1265 0327 84000000 		.4byte	0x84
 1266 032b 00       		.byte	0
 1267 032c 1A       		.uleb128 0x1a
 1268 032d F5000000 		.4byte	.LASF43
 1269 0331 01       		.byte	0x1
 1270 0332 9301     		.2byte	0x193
 1271 0334 99000000 		.4byte	0x99
 1272 0338 04       		.byte	0x4
 1273 0339 00       		.byte	0
 1274 033a 06       		.uleb128 0x6
 1275 033b 53020000 		.4byte	.LASF44
 1276 033f 01       		.byte	0x1
 1277 0340 9401     		.2byte	0x194
 1278 0342 16030000 		.4byte	0x316
 1279 0346 1B       		.uleb128 0x1b
 1280 0347 56030000 		.4byte	0x356
 1281 034b 56030000 		.4byte	0x356
 1282 034f 1C       		.uleb128 0x1c
 1283 0350 7D000000 		.4byte	0x7d
 1284 0354 01       		.byte	0x1
 1285 0355 00       		.byte	0
 1286 0356 13       		.uleb128 0x13
 1287 0357 3A030000 		.4byte	0x33a
 1288 035b 17       		.uleb128 0x17
 1289 035c E5000000 		.4byte	.LASF45
 1290 0360 01       		.byte	0x1
 1291 0361 9601     		.2byte	0x196
 1292 0363 6D030000 		.4byte	0x36d
 1293 0367 05       		.uleb128 0x5
 1294 0368 03       		.byte	0x3
 1295 0369 00000000 		.4byte	cfg_memset_list.4923
 1296 036d 13       		.uleb128 0x13
 1297 036e 46030000 		.4byte	0x346
 1298 0372 1D       		.uleb128 0x1d
 1299 0373 6900     		.ascii	"i\000"
 1300 0375 01       		.byte	0x1
 1301 0376 9C01     		.2byte	0x19c
ARM GAS  C:\Users\d4hhm\AppData\Local\Temp\ccL7RPka.s 			page 32


 1302 0378 8D000000 		.4byte	0x8d
 1303 037c 02       		.uleb128 0x2
 1304 037d 91       		.byte	0x91
 1305 037e 77       		.sleb128 -9
 1306 037f 11       		.uleb128 0x11
 1307 0380 82010000 		.4byte	.LBB4
 1308 0384 3C000000 		.4byte	.LBE4-.LBB4
 1309 0388 1D       		.uleb128 0x1d
 1310 0389 6D7300   		.ascii	"ms\000"
 1311 038c 01       		.byte	0x1
 1312 038d A101     		.2byte	0x1a1
 1313 038f 96030000 		.4byte	0x396
 1314 0393 02       		.uleb128 0x2
 1315 0394 91       		.byte	0x91
 1316 0395 70       		.sleb128 -16
 1317 0396 0D       		.uleb128 0xd
 1318 0397 04       		.byte	0x4
 1319 0398 56030000 		.4byte	0x356
 1320 039c 00       		.byte	0
 1321 039d 00       		.byte	0
 1322 039e 00       		.byte	0
 1323 039f 1B       		.uleb128 0x1b
 1324 03a0 58020000 		.4byte	0x258
 1325 03a4 AF030000 		.4byte	0x3af
 1326 03a8 1C       		.uleb128 0x1c
 1327 03a9 7D000000 		.4byte	0x7d
 1328 03ad 02       		.byte	0x2
 1329 03ae 00       		.byte	0
 1330 03af 13       		.uleb128 0x13
 1331 03b0 9F030000 		.4byte	0x39f
 1332 03b4 1B       		.uleb128 0x1b
 1333 03b5 63020000 		.4byte	0x263
 1334 03b9 C4030000 		.4byte	0x3c4
 1335 03bd 1C       		.uleb128 0x1c
 1336 03be 7D000000 		.4byte	0x7d
 1337 03c2 0C       		.byte	0xc
 1338 03c3 00       		.byte	0
 1339 03c4 13       		.uleb128 0x13
 1340 03c5 B4030000 		.4byte	0x3b4
 1341 03c9 00       		.byte	0
 1342              		.section	.debug_abbrev,"",%progbits
 1343              	.Ldebug_abbrev0:
 1344 0000 01       		.uleb128 0x1
 1345 0001 11       		.uleb128 0x11
 1346 0002 01       		.byte	0x1
 1347 0003 25       		.uleb128 0x25
 1348 0004 0E       		.uleb128 0xe
 1349 0005 13       		.uleb128 0x13
 1350 0006 0B       		.uleb128 0xb
 1351 0007 03       		.uleb128 0x3
 1352 0008 0E       		.uleb128 0xe
 1353 0009 1B       		.uleb128 0x1b
 1354 000a 0E       		.uleb128 0xe
 1355 000b 55       		.uleb128 0x55
 1356 000c 17       		.uleb128 0x17
 1357 000d 11       		.uleb128 0x11
 1358 000e 01       		.uleb128 0x1
ARM GAS  C:\Users\d4hhm\AppData\Local\Temp\ccL7RPka.s 			page 33


 1359 000f 10       		.uleb128 0x10
 1360 0010 17       		.uleb128 0x17
 1361 0011 00       		.byte	0
 1362 0012 00       		.byte	0
 1363 0013 02       		.uleb128 0x2
 1364 0014 24       		.uleb128 0x24
 1365 0015 00       		.byte	0
 1366 0016 0B       		.uleb128 0xb
 1367 0017 0B       		.uleb128 0xb
 1368 0018 3E       		.uleb128 0x3e
 1369 0019 0B       		.uleb128 0xb
 1370 001a 03       		.uleb128 0x3
 1371 001b 08       		.uleb128 0x8
 1372 001c 00       		.byte	0
 1373 001d 00       		.byte	0
 1374 001e 03       		.uleb128 0x3
 1375 001f 16       		.uleb128 0x16
 1376 0020 00       		.byte	0
 1377 0021 03       		.uleb128 0x3
 1378 0022 0E       		.uleb128 0xe
 1379 0023 3A       		.uleb128 0x3a
 1380 0024 0B       		.uleb128 0xb
 1381 0025 3B       		.uleb128 0x3b
 1382 0026 0B       		.uleb128 0xb
 1383 0027 49       		.uleb128 0x49
 1384 0028 13       		.uleb128 0x13
 1385 0029 00       		.byte	0
 1386 002a 00       		.byte	0
 1387 002b 04       		.uleb128 0x4
 1388 002c 24       		.uleb128 0x24
 1389 002d 00       		.byte	0
 1390 002e 0B       		.uleb128 0xb
 1391 002f 0B       		.uleb128 0xb
 1392 0030 3E       		.uleb128 0x3e
 1393 0031 0B       		.uleb128 0xb
 1394 0032 03       		.uleb128 0x3
 1395 0033 0E       		.uleb128 0xe
 1396 0034 00       		.byte	0
 1397 0035 00       		.byte	0
 1398 0036 05       		.uleb128 0x5
 1399 0037 0F       		.uleb128 0xf
 1400 0038 00       		.byte	0
 1401 0039 0B       		.uleb128 0xb
 1402 003a 0B       		.uleb128 0xb
 1403 003b 00       		.byte	0
 1404 003c 00       		.byte	0
 1405 003d 06       		.uleb128 0x6
 1406 003e 16       		.uleb128 0x16
 1407 003f 00       		.byte	0
 1408 0040 03       		.uleb128 0x3
 1409 0041 0E       		.uleb128 0xe
 1410 0042 3A       		.uleb128 0x3a
 1411 0043 0B       		.uleb128 0xb
 1412 0044 3B       		.uleb128 0x3b
 1413 0045 05       		.uleb128 0x5
 1414 0046 49       		.uleb128 0x49
 1415 0047 13       		.uleb128 0x13
ARM GAS  C:\Users\d4hhm\AppData\Local\Temp\ccL7RPka.s 			page 34


 1416 0048 00       		.byte	0
 1417 0049 00       		.byte	0
 1418 004a 07       		.uleb128 0x7
 1419 004b 35       		.uleb128 0x35
 1420 004c 00       		.byte	0
 1421 004d 49       		.uleb128 0x49
 1422 004e 13       		.uleb128 0x13
 1423 004f 00       		.byte	0
 1424 0050 00       		.byte	0
 1425 0051 08       		.uleb128 0x8
 1426 0052 13       		.uleb128 0x13
 1427 0053 01       		.byte	0x1
 1428 0054 0B       		.uleb128 0xb
 1429 0055 0B       		.uleb128 0xb
 1430 0056 3A       		.uleb128 0x3a
 1431 0057 0B       		.uleb128 0xb
 1432 0058 3B       		.uleb128 0x3b
 1433 0059 0B       		.uleb128 0xb
 1434 005a 01       		.uleb128 0x1
 1435 005b 13       		.uleb128 0x13
 1436 005c 00       		.byte	0
 1437 005d 00       		.byte	0
 1438 005e 09       		.uleb128 0x9
 1439 005f 0D       		.uleb128 0xd
 1440 0060 00       		.byte	0
 1441 0061 03       		.uleb128 0x3
 1442 0062 0E       		.uleb128 0xe
 1443 0063 3A       		.uleb128 0x3a
 1444 0064 0B       		.uleb128 0xb
 1445 0065 3B       		.uleb128 0x3b
 1446 0066 0B       		.uleb128 0xb
 1447 0067 49       		.uleb128 0x49
 1448 0068 13       		.uleb128 0x13
 1449 0069 38       		.uleb128 0x38
 1450 006a 0B       		.uleb128 0xb
 1451 006b 00       		.byte	0
 1452 006c 00       		.byte	0
 1453 006d 0A       		.uleb128 0xa
 1454 006e 2E       		.uleb128 0x2e
 1455 006f 01       		.byte	0x1
 1456 0070 03       		.uleb128 0x3
 1457 0071 0E       		.uleb128 0xe
 1458 0072 3A       		.uleb128 0x3a
 1459 0073 0B       		.uleb128 0xb
 1460 0074 3B       		.uleb128 0x3b
 1461 0075 0B       		.uleb128 0xb
 1462 0076 27       		.uleb128 0x27
 1463 0077 19       		.uleb128 0x19
 1464 0078 11       		.uleb128 0x11
 1465 0079 01       		.uleb128 0x1
 1466 007a 12       		.uleb128 0x12
 1467 007b 06       		.uleb128 0x6
 1468 007c 40       		.uleb128 0x40
 1469 007d 18       		.uleb128 0x18
 1470 007e 9642     		.uleb128 0x2116
 1471 0080 19       		.uleb128 0x19
 1472 0081 01       		.uleb128 0x1
ARM GAS  C:\Users\d4hhm\AppData\Local\Temp\ccL7RPka.s 			page 35


 1473 0082 13       		.uleb128 0x13
 1474 0083 00       		.byte	0
 1475 0084 00       		.byte	0
 1476 0085 0B       		.uleb128 0xb
 1477 0086 05       		.uleb128 0x5
 1478 0087 00       		.byte	0
 1479 0088 03       		.uleb128 0x3
 1480 0089 08       		.uleb128 0x8
 1481 008a 3A       		.uleb128 0x3a
 1482 008b 0B       		.uleb128 0xb
 1483 008c 3B       		.uleb128 0x3b
 1484 008d 0B       		.uleb128 0xb
 1485 008e 49       		.uleb128 0x49
 1486 008f 13       		.uleb128 0x13
 1487 0090 02       		.uleb128 0x2
 1488 0091 18       		.uleb128 0x18
 1489 0092 00       		.byte	0
 1490 0093 00       		.byte	0
 1491 0094 0C       		.uleb128 0xc
 1492 0095 05       		.uleb128 0x5
 1493 0096 00       		.byte	0
 1494 0097 03       		.uleb128 0x3
 1495 0098 0E       		.uleb128 0xe
 1496 0099 3A       		.uleb128 0x3a
 1497 009a 0B       		.uleb128 0xb
 1498 009b 3B       		.uleb128 0x3b
 1499 009c 0B       		.uleb128 0xb
 1500 009d 49       		.uleb128 0x49
 1501 009e 13       		.uleb128 0x13
 1502 009f 02       		.uleb128 0x2
 1503 00a0 18       		.uleb128 0x18
 1504 00a1 00       		.byte	0
 1505 00a2 00       		.byte	0
 1506 00a3 0D       		.uleb128 0xd
 1507 00a4 0F       		.uleb128 0xf
 1508 00a5 00       		.byte	0
 1509 00a6 0B       		.uleb128 0xb
 1510 00a7 0B       		.uleb128 0xb
 1511 00a8 49       		.uleb128 0x49
 1512 00a9 13       		.uleb128 0x13
 1513 00aa 00       		.byte	0
 1514 00ab 00       		.byte	0
 1515 00ac 0E       		.uleb128 0xe
 1516 00ad 26       		.uleb128 0x26
 1517 00ae 00       		.byte	0
 1518 00af 00       		.byte	0
 1519 00b0 00       		.byte	0
 1520 00b1 0F       		.uleb128 0xf
 1521 00b2 2E       		.uleb128 0x2e
 1522 00b3 01       		.byte	0x1
 1523 00b4 03       		.uleb128 0x3
 1524 00b5 0E       		.uleb128 0xe
 1525 00b6 3A       		.uleb128 0x3a
 1526 00b7 0B       		.uleb128 0xb
 1527 00b8 3B       		.uleb128 0x3b
 1528 00b9 0B       		.uleb128 0xb
 1529 00ba 27       		.uleb128 0x27
ARM GAS  C:\Users\d4hhm\AppData\Local\Temp\ccL7RPka.s 			page 36


 1530 00bb 19       		.uleb128 0x19
 1531 00bc 11       		.uleb128 0x11
 1532 00bd 01       		.uleb128 0x1
 1533 00be 12       		.uleb128 0x12
 1534 00bf 06       		.uleb128 0x6
 1535 00c0 40       		.uleb128 0x40
 1536 00c1 18       		.uleb128 0x18
 1537 00c2 9742     		.uleb128 0x2117
 1538 00c4 19       		.uleb128 0x19
 1539 00c5 01       		.uleb128 0x1
 1540 00c6 13       		.uleb128 0x13
 1541 00c7 00       		.byte	0
 1542 00c8 00       		.byte	0
 1543 00c9 10       		.uleb128 0x10
 1544 00ca 34       		.uleb128 0x34
 1545 00cb 00       		.byte	0
 1546 00cc 03       		.uleb128 0x3
 1547 00cd 08       		.uleb128 0x8
 1548 00ce 3A       		.uleb128 0x3a
 1549 00cf 0B       		.uleb128 0xb
 1550 00d0 3B       		.uleb128 0x3b
 1551 00d1 0B       		.uleb128 0xb
 1552 00d2 49       		.uleb128 0x49
 1553 00d3 13       		.uleb128 0x13
 1554 00d4 02       		.uleb128 0x2
 1555 00d5 18       		.uleb128 0x18
 1556 00d6 00       		.byte	0
 1557 00d7 00       		.byte	0
 1558 00d8 11       		.uleb128 0x11
 1559 00d9 0B       		.uleb128 0xb
 1560 00da 01       		.byte	0x1
 1561 00db 11       		.uleb128 0x11
 1562 00dc 01       		.uleb128 0x1
 1563 00dd 12       		.uleb128 0x12
 1564 00de 06       		.uleb128 0x6
 1565 00df 00       		.byte	0
 1566 00e0 00       		.byte	0
 1567 00e1 12       		.uleb128 0x12
 1568 00e2 34       		.uleb128 0x34
 1569 00e3 00       		.byte	0
 1570 00e4 03       		.uleb128 0x3
 1571 00e5 0E       		.uleb128 0xe
 1572 00e6 3A       		.uleb128 0x3a
 1573 00e7 0B       		.uleb128 0xb
 1574 00e8 3B       		.uleb128 0x3b
 1575 00e9 0B       		.uleb128 0xb
 1576 00ea 49       		.uleb128 0x49
 1577 00eb 13       		.uleb128 0x13
 1578 00ec 02       		.uleb128 0x2
 1579 00ed 18       		.uleb128 0x18
 1580 00ee 00       		.byte	0
 1581 00ef 00       		.byte	0
 1582 00f0 13       		.uleb128 0x13
 1583 00f1 26       		.uleb128 0x26
 1584 00f2 00       		.byte	0
 1585 00f3 49       		.uleb128 0x49
 1586 00f4 13       		.uleb128 0x13
ARM GAS  C:\Users\d4hhm\AppData\Local\Temp\ccL7RPka.s 			page 37


 1587 00f5 00       		.byte	0
 1588 00f6 00       		.byte	0
 1589 00f7 14       		.uleb128 0x14
 1590 00f8 2E       		.uleb128 0x2e
 1591 00f9 00       		.byte	0
 1592 00fa 03       		.uleb128 0x3
 1593 00fb 0E       		.uleb128 0xe
 1594 00fc 3A       		.uleb128 0x3a
 1595 00fd 0B       		.uleb128 0xb
 1596 00fe 3B       		.uleb128 0x3b
 1597 00ff 05       		.uleb128 0x5
 1598 0100 27       		.uleb128 0x27
 1599 0101 19       		.uleb128 0x19
 1600 0102 11       		.uleb128 0x11
 1601 0103 01       		.uleb128 0x1
 1602 0104 12       		.uleb128 0x12
 1603 0105 06       		.uleb128 0x6
 1604 0106 40       		.uleb128 0x40
 1605 0107 18       		.uleb128 0x18
 1606 0108 9642     		.uleb128 0x2116
 1607 010a 19       		.uleb128 0x19
 1608 010b 00       		.byte	0
 1609 010c 00       		.byte	0
 1610 010d 15       		.uleb128 0x15
 1611 010e 2E       		.uleb128 0x2e
 1612 010f 01       		.byte	0x1
 1613 0110 3F       		.uleb128 0x3f
 1614 0111 19       		.uleb128 0x19
 1615 0112 03       		.uleb128 0x3
 1616 0113 0E       		.uleb128 0xe
 1617 0114 3A       		.uleb128 0x3a
 1618 0115 0B       		.uleb128 0xb
 1619 0116 3B       		.uleb128 0x3b
 1620 0117 05       		.uleb128 0x5
 1621 0118 27       		.uleb128 0x27
 1622 0119 19       		.uleb128 0x19
 1623 011a 11       		.uleb128 0x11
 1624 011b 01       		.uleb128 0x1
 1625 011c 12       		.uleb128 0x12
 1626 011d 06       		.uleb128 0x6
 1627 011e 40       		.uleb128 0x40
 1628 011f 18       		.uleb128 0x18
 1629 0120 9742     		.uleb128 0x2117
 1630 0122 19       		.uleb128 0x19
 1631 0123 01       		.uleb128 0x1
 1632 0124 13       		.uleb128 0x13
 1633 0125 00       		.byte	0
 1634 0126 00       		.byte	0
 1635 0127 16       		.uleb128 0x16
 1636 0128 05       		.uleb128 0x5
 1637 0129 00       		.byte	0
 1638 012a 03       		.uleb128 0x3
 1639 012b 0E       		.uleb128 0xe
 1640 012c 3A       		.uleb128 0x3a
 1641 012d 0B       		.uleb128 0xb
 1642 012e 3B       		.uleb128 0x3b
 1643 012f 05       		.uleb128 0x5
ARM GAS  C:\Users\d4hhm\AppData\Local\Temp\ccL7RPka.s 			page 38


 1644 0130 49       		.uleb128 0x49
 1645 0131 13       		.uleb128 0x13
 1646 0132 02       		.uleb128 0x2
 1647 0133 18       		.uleb128 0x18
 1648 0134 00       		.byte	0
 1649 0135 00       		.byte	0
 1650 0136 17       		.uleb128 0x17
 1651 0137 34       		.uleb128 0x34
 1652 0138 00       		.byte	0
 1653 0139 03       		.uleb128 0x3
 1654 013a 0E       		.uleb128 0xe
 1655 013b 3A       		.uleb128 0x3a
 1656 013c 0B       		.uleb128 0xb
 1657 013d 3B       		.uleb128 0x3b
 1658 013e 05       		.uleb128 0x5
 1659 013f 49       		.uleb128 0x49
 1660 0140 13       		.uleb128 0x13
 1661 0141 02       		.uleb128 0x2
 1662 0142 18       		.uleb128 0x18
 1663 0143 00       		.byte	0
 1664 0144 00       		.byte	0
 1665 0145 18       		.uleb128 0x18
 1666 0146 2E       		.uleb128 0x2e
 1667 0147 01       		.byte	0x1
 1668 0148 3F       		.uleb128 0x3f
 1669 0149 19       		.uleb128 0x19
 1670 014a 03       		.uleb128 0x3
 1671 014b 0E       		.uleb128 0xe
 1672 014c 3A       		.uleb128 0x3a
 1673 014d 0B       		.uleb128 0xb
 1674 014e 3B       		.uleb128 0x3b
 1675 014f 05       		.uleb128 0x5
 1676 0150 27       		.uleb128 0x27
 1677 0151 19       		.uleb128 0x19
 1678 0152 11       		.uleb128 0x11
 1679 0153 01       		.uleb128 0x1
 1680 0154 12       		.uleb128 0x12
 1681 0155 06       		.uleb128 0x6
 1682 0156 40       		.uleb128 0x40
 1683 0157 18       		.uleb128 0x18
 1684 0158 9642     		.uleb128 0x2116
 1685 015a 19       		.uleb128 0x19
 1686 015b 01       		.uleb128 0x1
 1687 015c 13       		.uleb128 0x13
 1688 015d 00       		.byte	0
 1689 015e 00       		.byte	0
 1690 015f 19       		.uleb128 0x19
 1691 0160 13       		.uleb128 0x13
 1692 0161 01       		.byte	0x1
 1693 0162 0B       		.uleb128 0xb
 1694 0163 0B       		.uleb128 0xb
 1695 0164 3A       		.uleb128 0x3a
 1696 0165 0B       		.uleb128 0xb
 1697 0166 3B       		.uleb128 0x3b
 1698 0167 05       		.uleb128 0x5
 1699 0168 01       		.uleb128 0x1
 1700 0169 13       		.uleb128 0x13
ARM GAS  C:\Users\d4hhm\AppData\Local\Temp\ccL7RPka.s 			page 39


 1701 016a 00       		.byte	0
 1702 016b 00       		.byte	0
 1703 016c 1A       		.uleb128 0x1a
 1704 016d 0D       		.uleb128 0xd
 1705 016e 00       		.byte	0
 1706 016f 03       		.uleb128 0x3
 1707 0170 0E       		.uleb128 0xe
 1708 0171 3A       		.uleb128 0x3a
 1709 0172 0B       		.uleb128 0xb
 1710 0173 3B       		.uleb128 0x3b
 1711 0174 05       		.uleb128 0x5
 1712 0175 49       		.uleb128 0x49
 1713 0176 13       		.uleb128 0x13
 1714 0177 38       		.uleb128 0x38
 1715 0178 0B       		.uleb128 0xb
 1716 0179 00       		.byte	0
 1717 017a 00       		.byte	0
 1718 017b 1B       		.uleb128 0x1b
 1719 017c 01       		.uleb128 0x1
 1720 017d 01       		.byte	0x1
 1721 017e 49       		.uleb128 0x49
 1722 017f 13       		.uleb128 0x13
 1723 0180 01       		.uleb128 0x1
 1724 0181 13       		.uleb128 0x13
 1725 0182 00       		.byte	0
 1726 0183 00       		.byte	0
 1727 0184 1C       		.uleb128 0x1c
 1728 0185 21       		.uleb128 0x21
 1729 0186 00       		.byte	0
 1730 0187 49       		.uleb128 0x49
 1731 0188 13       		.uleb128 0x13
 1732 0189 2F       		.uleb128 0x2f
 1733 018a 0B       		.uleb128 0xb
 1734 018b 00       		.byte	0
 1735 018c 00       		.byte	0
 1736 018d 1D       		.uleb128 0x1d
 1737 018e 34       		.uleb128 0x34
 1738 018f 00       		.byte	0
 1739 0190 03       		.uleb128 0x3
 1740 0191 08       		.uleb128 0x8
 1741 0192 3A       		.uleb128 0x3a
 1742 0193 0B       		.uleb128 0xb
 1743 0194 3B       		.uleb128 0x3b
 1744 0195 05       		.uleb128 0x5
 1745 0196 49       		.uleb128 0x49
 1746 0197 13       		.uleb128 0x13
 1747 0198 02       		.uleb128 0x2
 1748 0199 18       		.uleb128 0x18
 1749 019a 00       		.byte	0
 1750 019b 00       		.byte	0
 1751 019c 00       		.byte	0
 1752              		.section	.debug_aranges,"",%progbits
 1753 0000 5C000000 		.4byte	0x5c
 1754 0004 0200     		.2byte	0x2
 1755 0006 00000000 		.4byte	.Ldebug_info0
 1756 000a 04       		.byte	0x4
 1757 000b 00       		.byte	0
ARM GAS  C:\Users\d4hhm\AppData\Local\Temp\ccL7RPka.s 			page 40


 1758 000c 0000     		.2byte	0
 1759 000e 0000     		.2byte	0
 1760 0010 00000000 		.4byte	.LFB2
 1761 0014 1E000000 		.4byte	.LFE2-.LFB2
 1762 0018 00000000 		.4byte	.LFB3
 1763 001c 20000000 		.4byte	.LFE3-.LFB3
 1764 0020 00000000 		.4byte	.LFB4
 1765 0024 20000000 		.4byte	.LFE4-.LFB4
 1766 0028 00000000 		.4byte	.LFB5
 1767 002c 16000000 		.4byte	.LFE5-.LFB5
 1768 0030 00000000 		.4byte	.LFB6
 1769 0034 82000000 		.4byte	.LFE6-.LFB6
 1770 0038 00000000 		.4byte	.LFB7
 1771 003c 6C010000 		.4byte	.LFE7-.LFB7
 1772 0040 00000000 		.4byte	.LFB8
 1773 0044 30000000 		.4byte	.LFE8-.LFB8
 1774 0048 00000000 		.4byte	.LFB9
 1775 004c 70000000 		.4byte	.LFE9-.LFB9
 1776 0050 6C010000 		.4byte	.LFB10
 1777 0054 3C010000 		.4byte	.LFE10-.LFB10
 1778 0058 00000000 		.4byte	0
 1779 005c 00000000 		.4byte	0
 1780              		.section	.debug_ranges,"",%progbits
 1781              	.Ldebug_ranges0:
 1782 0000 00000000 		.4byte	.LFB2
 1783 0004 1E000000 		.4byte	.LFE2
 1784 0008 00000000 		.4byte	.LFB3
 1785 000c 20000000 		.4byte	.LFE3
 1786 0010 00000000 		.4byte	.LFB4
 1787 0014 20000000 		.4byte	.LFE4
 1788 0018 00000000 		.4byte	.LFB5
 1789 001c 16000000 		.4byte	.LFE5
 1790 0020 00000000 		.4byte	.LFB6
 1791 0024 82000000 		.4byte	.LFE6
 1792 0028 00000000 		.4byte	.LFB7
 1793 002c 6C010000 		.4byte	.LFE7
 1794 0030 00000000 		.4byte	.LFB8
 1795 0034 30000000 		.4byte	.LFE8
 1796 0038 00000000 		.4byte	.LFB9
 1797 003c 70000000 		.4byte	.LFE9
 1798 0040 6C010000 		.4byte	.LFB10
 1799 0044 A8020000 		.4byte	.LFE10
 1800 0048 00000000 		.4byte	0
 1801 004c 00000000 		.4byte	0
 1802              		.section	.debug_line,"",%progbits
 1803              	.Ldebug_line0:
 1804 0000 E4010000 		.section	.debug_str,"MS",%progbits,1
 1804      0200CB00 
 1804      00000201 
 1804      FB0E0D00 
 1804      01010101 
 1805              	.LASF26:
 1806 0000 4359434F 		.ascii	"CYCONFIGCPYCODE\000"
 1806      4E464947 
 1806      43505943 
 1806      4F444500 
 1807              	.LASF19:
ARM GAS  C:\Users\d4hhm\AppData\Local\Temp\ccL7RPka.s 			page 41


 1808 0010 72656733 		.ascii	"reg32\000"
 1808      3200
 1809              	.LASF12:
 1810 0016 73697A65 		.ascii	"size_t\000"
 1810      5F7400
 1811              	.LASF49:
 1812 001d 416E616C 		.ascii	"AnalogSetDefault\000"
 1812      6F675365 
 1812      74446566 
 1812      61756C74 
 1812      00
 1813              	.LASF48:
 1814 002e 433A5C55 		.ascii	"C:\\Users\\d4hhm\\Documents\\Care-support-system\\P"
 1814      73657273 
 1814      5C643468 
 1814      686D5C44 
 1814      6F63756D 
 1815 005c 65726970 		.ascii	"eripheral\\Care_support_system_peripheral.cydsn\000"
 1815      68657261 
 1815      6C5C4361 
 1815      72655F73 
 1815      7570706F 
 1816              	.LASF21:
 1817 008b 76616C75 		.ascii	"value\000"
 1817      6500
 1818              	.LASF33:
 1819 0091 636F756E 		.ascii	"count\000"
 1819      7400
 1820              	.LASF34:
 1821 0097 436C6F63 		.ascii	"ClockSetup\000"
 1821      6B536574 
 1821      757000
 1822              	.LASF40:
 1823 00a2 63795F63 		.ascii	"cy_cfg_addr_table\000"
 1823      66675F61 
 1823      6464725F 
 1823      7461626C 
 1823      6500
 1824              	.LASF41:
 1825 00b4 63795F63 		.ascii	"cy_cfg_data_table\000"
 1825      66675F64 
 1825      6174615F 
 1825      7461626C 
 1825      6500
 1826              	.LASF16:
 1827 00c6 666C6F61 		.ascii	"float\000"
 1827      7400
 1828              	.LASF27:
 1829 00cc 4379436C 		.ascii	"CyClockStartupError\000"
 1829      6F636B53 
 1829      74617274 
 1829      75704572 
 1829      726F7200 
 1830              	.LASF25:
 1831 00e0 64657374 		.ascii	"dest\000"
 1831      00
 1832              	.LASF45:
ARM GAS  C:\Users\d4hhm\AppData\Local\Temp\ccL7RPka.s 			page 42


 1833 00e5 6366675F 		.ascii	"cfg_memset_list\000"
 1833      6D656D73 
 1833      65745F6C 
 1833      69737400 
 1834              	.LASF43:
 1835 00f5 73697A65 		.ascii	"size\000"
 1835      00
 1836              	.LASF18:
 1837 00fa 72656738 		.ascii	"reg8\000"
 1837      00
 1838              	.LASF8:
 1839 00ff 6C6F6E67 		.ascii	"long unsigned int\000"
 1839      20756E73 
 1839      69676E65 
 1839      6420696E 
 1839      7400
 1840              	.LASF13:
 1841 0111 75696E74 		.ascii	"uint8\000"
 1841      3800
 1842              	.LASF23:
 1843 0117 43594D45 		.ascii	"CYMEMZERO\000"
 1843      4D5A4552 
 1843      4F00
 1844              	.LASF46:
 1845 0121 474E5520 		.ascii	"GNU C11 5.4.1 20160609 (release) [ARM/embedded-5-br"
 1845      43313120 
 1845      352E342E 
 1845      31203230 
 1845      31363036 
 1846 0154 616E6368 		.ascii	"anch revision 237715] -mcpu=cortex-m0 -mthumb -g -O"
 1846      20726576 
 1846      6973696F 
 1846      6E203233 
 1846      37373135 
 1847 0187 30202D66 		.ascii	"0 -ffunction-sections -ffat-lto-objects\000"
 1847      66756E63 
 1847      74696F6E 
 1847      2D736563 
 1847      74696F6E 
 1848              	.LASF38:
 1849 01af 53657441 		.ascii	"SetAnalogRoutingPumps\000"
 1849      6E616C6F 
 1849      67526F75 
 1849      74696E67 
 1849      50756D70 
 1850              	.LASF4:
 1851 01c5 756E7369 		.ascii	"unsigned char\000"
 1851      676E6564 
 1851      20636861 
 1851      7200
 1852              	.LASF17:
 1853 01d3 646F7562 		.ascii	"double\000"
 1853      6C6500
 1854              	.LASF29:
 1855 01da 6366675F 		.ascii	"cfg_write_bytes32\000"
 1855      77726974 
 1855      655F6279 
ARM GAS  C:\Users\d4hhm\AppData\Local\Temp\ccL7RPka.s 			page 43


 1855      74657333 
 1855      3200
 1856              	.LASF39:
 1857 01ec 63796669 		.ascii	"cyfitter_cfg\000"
 1857      74746572 
 1857      5F636667 
 1857      00
 1858              	.LASF30:
 1859 01f9 61646472 		.ascii	"addr_table\000"
 1859      5F746162 
 1859      6C6500
 1860              	.LASF14:
 1861 0204 75696E74 		.ascii	"uint16\000"
 1861      313600
 1862              	.LASF31:
 1863 020b 64617461 		.ascii	"data_table\000"
 1863      5F746162 
 1863      6C6500
 1864              	.LASF28:
 1865 0216 6572726F 		.ascii	"errorCode\000"
 1865      72436F64 
 1865      6500
 1866              	.LASF15:
 1867 0220 75696E74 		.ascii	"uint32\000"
 1867      333200
 1868              	.LASF0:
 1869 0227 756E7369 		.ascii	"unsigned int\000"
 1869      676E6564 
 1869      20696E74 
 1869      00
 1870              	.LASF42:
 1871 0234 61646472 		.ascii	"address\000"
 1871      65737300 
 1872              	.LASF9:
 1873 023c 6C6F6E67 		.ascii	"long long unsigned int\000"
 1873      206C6F6E 
 1873      6720756E 
 1873      7369676E 
 1873      65642069 
 1874              	.LASF44:
 1875 0253 6366675F 		.ascii	"cfg_memset_t\000"
 1875      6D656D73 
 1875      65745F74 
 1875      00
 1876              	.LASF32:
 1877 0260 62617365 		.ascii	"baseAddr\000"
 1877      41646472 
 1877      00
 1878              	.LASF10:
 1879 0269 73697A65 		.ascii	"sizetype\000"
 1879      74797065 
 1879      00
 1880              	.LASF6:
 1881 0272 73686F72 		.ascii	"short unsigned int\000"
 1881      7420756E 
 1881      7369676E 
 1881      65642069 
ARM GAS  C:\Users\d4hhm\AppData\Local\Temp\ccL7RPka.s 			page 44


 1881      6E7400
 1882              	.LASF1:
 1883 0285 6C6F6E67 		.ascii	"long long int\000"
 1883      206C6F6E 
 1883      6720696E 
 1883      7400
 1884              	.LASF11:
 1885 0293 63686172 		.ascii	"char\000"
 1885      00
 1886              	.LASF22:
 1887 0298 63795F63 		.ascii	"cy_cfg_addrvalue_t\000"
 1887      66675F61 
 1887      64647276 
 1887      616C7565 
 1887      5F7400
 1888              	.LASF20:
 1889 02ab 6F666673 		.ascii	"offset\000"
 1889      657400
 1890              	.LASF5:
 1891 02b2 73686F72 		.ascii	"short int\000"
 1891      7420696E 
 1891      7400
 1892              	.LASF36:
 1893 02bc 656E6162 		.ascii	"enabled\000"
 1893      6C656400 
 1894              	.LASF7:
 1895 02c4 6C6F6E67 		.ascii	"long int\000"
 1895      20696E74 
 1895      00
 1896              	.LASF2:
 1897 02cd 6C6F6E67 		.ascii	"long double\000"
 1897      20646F75 
 1897      626C6500 
 1898              	.LASF3:
 1899 02d9 7369676E 		.ascii	"signed char\000"
 1899      65642063 
 1899      68617200 
 1900              	.LASF47:
 1901 02e5 47656E65 		.ascii	"Generated_Source\\PSoC4\\cyfitter_cfg.c\000"
 1901      72617465 
 1901      645F536F 
 1901      75726365 
 1901      5C50536F 
 1902              	.LASF37:
 1903 030b 72656756 		.ascii	"regValue\000"
 1903      616C7565 
 1903      00
 1904              	.LASF24:
 1905 0314 4359434F 		.ascii	"CYCONFIGCPY\000"
 1905      4E464947 
 1905      43505900 
 1906              	.LASF35:
 1907 0320 65636F53 		.ascii	"ecoStatus\000"
 1907      74617475 
 1907      7300
 1908              		.ident	"GCC: (GNU Tools for ARM Embedded Processors) 5.4.1 20160609 (release) [ARM/embedded-5-bran
