ARM GAS  C:\Users\d4hhm\AppData\Local\Temp\ccL7RPka.s 			page 1


   1              		.syntax unified
   2              		.cpu cortex-m0
   3              		.fpu softvfp
   4              		.eabi_attribute 20, 1
   5              		.eabi_attribute 21, 1
   6              		.eabi_attribute 23, 3
   7              		.eabi_attribute 24, 1
   8              		.eabi_attribute 25, 1
   9              		.eabi_attribute 26, 1
  10              		.eabi_attribute 30, 6
  11              		.eabi_attribute 34, 0
  12              		.eabi_attribute 18, 4
  13              		.thumb
  14              		.syntax unified
  15              		.file	"cyfitter_cfg.c"
  16              		.text
  17              	.Ltext0:
  18              		.cfi_sections	.debug_frame
  19              		.section	.text.CYMEMZERO,"ax",%progbits
  20              		.align	2
  21              		.code	16
  22              		.thumb_func
  23              		.type	CYMEMZERO, %function
  24              	CYMEMZERO:
  25              	.LFB2:
  26              		.file 1 "Generated_Source\\PSoC4\\cyfitter_cfg.c"
   1:Generated_Source\PSoC4/cyfitter_cfg.c **** 
   2:Generated_Source\PSoC4/cyfitter_cfg.c **** /*******************************************************************************
   3:Generated_Source\PSoC4/cyfitter_cfg.c **** * File Name: cyfitter_cfg.c
   4:Generated_Source\PSoC4/cyfitter_cfg.c **** * 
   5:Generated_Source\PSoC4/cyfitter_cfg.c **** * PSoC Creator  4.2
   6:Generated_Source\PSoC4/cyfitter_cfg.c **** *
   7:Generated_Source\PSoC4/cyfitter_cfg.c **** * Description:
   8:Generated_Source\PSoC4/cyfitter_cfg.c **** * This file contains device initialization code.
   9:Generated_Source\PSoC4/cyfitter_cfg.c **** * Except for the user defined sections in CyClockStartupError(), this file should not be modified.
  10:Generated_Source\PSoC4/cyfitter_cfg.c **** * This file is automatically generated by PSoC Creator.
  11:Generated_Source\PSoC4/cyfitter_cfg.c **** *
  12:Generated_Source\PSoC4/cyfitter_cfg.c **** ********************************************************************************
  13:Generated_Source\PSoC4/cyfitter_cfg.c **** * Copyright (c) 2007-2018 Cypress Semiconductor.  All rights reserved.
  14:Generated_Source\PSoC4/cyfitter_cfg.c **** * You may use this file only in accordance with the license, terms, conditions, 
  15:Generated_Source\PSoC4/cyfitter_cfg.c **** * disclaimers, and limitations in the end user license agreement accompanying 
  16:Generated_Source\PSoC4/cyfitter_cfg.c **** * the software package with which this file was provided.
  17:Generated_Source\PSoC4/cyfitter_cfg.c **** ********************************************************************************/
  18:Generated_Source\PSoC4/cyfitter_cfg.c **** 
  19:Generated_Source\PSoC4/cyfitter_cfg.c **** #include <string.h>
  20:Generated_Source\PSoC4/cyfitter_cfg.c **** #include "cytypes.h"
  21:Generated_Source\PSoC4/cyfitter_cfg.c **** #include "cydevice_trm.h"
  22:Generated_Source\PSoC4/cyfitter_cfg.c **** #include "cyfitter.h"
  23:Generated_Source\PSoC4/cyfitter_cfg.c **** #include "CyLib.h"
  24:Generated_Source\PSoC4/cyfitter_cfg.c **** #include "CyLFClk.h"
  25:Generated_Source\PSoC4/cyfitter_cfg.c **** #include "cyfitter_cfg.h"
  26:Generated_Source\PSoC4/cyfitter_cfg.c **** #include "cyapicallbacks.h"
  27:Generated_Source\PSoC4/cyfitter_cfg.c **** 
  28:Generated_Source\PSoC4/cyfitter_cfg.c **** #define CY_NEED_CYCLOCKSTARTUPERROR 1
  29:Generated_Source\PSoC4/cyfitter_cfg.c **** 
  30:Generated_Source\PSoC4/cyfitter_cfg.c **** 
  31:Generated_Source\PSoC4/cyfitter_cfg.c **** #if defined(__GNUC__) || defined(__ARMCC_VERSION)
ARM GAS  C:\Users\d4hhm\AppData\Local\Temp\ccL7RPka.s 			page 2


  32:Generated_Source\PSoC4/cyfitter_cfg.c ****     #define CYPACKED 
  33:Generated_Source\PSoC4/cyfitter_cfg.c ****     #define CYPACKED_ATTR __attribute__ ((packed))
  34:Generated_Source\PSoC4/cyfitter_cfg.c ****     #define CYALIGNED __attribute__ ((aligned))
  35:Generated_Source\PSoC4/cyfitter_cfg.c ****     #define CY_CFG_UNUSED __attribute__ ((unused))
  36:Generated_Source\PSoC4/cyfitter_cfg.c ****     #ifndef CY_CFG_SECTION
  37:Generated_Source\PSoC4/cyfitter_cfg.c ****         #define CY_CFG_SECTION __attribute__ ((section(".psocinit")))
  38:Generated_Source\PSoC4/cyfitter_cfg.c ****     #endif
  39:Generated_Source\PSoC4/cyfitter_cfg.c ****     
  40:Generated_Source\PSoC4/cyfitter_cfg.c ****     #if defined(__ARMCC_VERSION)
  41:Generated_Source\PSoC4/cyfitter_cfg.c ****         #define CY_CFG_MEMORY_BARRIER() __memory_changed()
  42:Generated_Source\PSoC4/cyfitter_cfg.c ****     #else
  43:Generated_Source\PSoC4/cyfitter_cfg.c ****         #define CY_CFG_MEMORY_BARRIER() __sync_synchronize()
  44:Generated_Source\PSoC4/cyfitter_cfg.c ****     #endif
  45:Generated_Source\PSoC4/cyfitter_cfg.c ****     
  46:Generated_Source\PSoC4/cyfitter_cfg.c **** #elif defined(__ICCARM__)
  47:Generated_Source\PSoC4/cyfitter_cfg.c ****     #include <intrinsics.h>
  48:Generated_Source\PSoC4/cyfitter_cfg.c **** 
  49:Generated_Source\PSoC4/cyfitter_cfg.c ****     #define CYPACKED __packed
  50:Generated_Source\PSoC4/cyfitter_cfg.c ****     #define CYPACKED_ATTR 
  51:Generated_Source\PSoC4/cyfitter_cfg.c ****     #define CYALIGNED _Pragma("data_alignment=4")
  52:Generated_Source\PSoC4/cyfitter_cfg.c ****     #define CY_CFG_UNUSED _Pragma("diag_suppress=Pe177")
  53:Generated_Source\PSoC4/cyfitter_cfg.c ****     #define CY_CFG_SECTION _Pragma("location=\".psocinit\"")
  54:Generated_Source\PSoC4/cyfitter_cfg.c ****     
  55:Generated_Source\PSoC4/cyfitter_cfg.c ****     #define CY_CFG_MEMORY_BARRIER() __DMB()
  56:Generated_Source\PSoC4/cyfitter_cfg.c ****     
  57:Generated_Source\PSoC4/cyfitter_cfg.c **** #else
  58:Generated_Source\PSoC4/cyfitter_cfg.c ****     #error Unsupported toolchain
  59:Generated_Source\PSoC4/cyfitter_cfg.c **** #endif
  60:Generated_Source\PSoC4/cyfitter_cfg.c **** 
  61:Generated_Source\PSoC4/cyfitter_cfg.c **** #ifndef CYCODE
  62:Generated_Source\PSoC4/cyfitter_cfg.c ****     #define CYCODE
  63:Generated_Source\PSoC4/cyfitter_cfg.c **** #endif
  64:Generated_Source\PSoC4/cyfitter_cfg.c **** #ifndef CYDATA
  65:Generated_Source\PSoC4/cyfitter_cfg.c ****     #define CYDATA
  66:Generated_Source\PSoC4/cyfitter_cfg.c **** #endif
  67:Generated_Source\PSoC4/cyfitter_cfg.c **** #ifndef CYFAR
  68:Generated_Source\PSoC4/cyfitter_cfg.c ****     #define CYFAR
  69:Generated_Source\PSoC4/cyfitter_cfg.c **** #endif
  70:Generated_Source\PSoC4/cyfitter_cfg.c **** #ifndef CYXDATA
  71:Generated_Source\PSoC4/cyfitter_cfg.c ****     #define CYXDATA
  72:Generated_Source\PSoC4/cyfitter_cfg.c **** #endif
  73:Generated_Source\PSoC4/cyfitter_cfg.c **** 
  74:Generated_Source\PSoC4/cyfitter_cfg.c **** 
  75:Generated_Source\PSoC4/cyfitter_cfg.c **** CY_CFG_UNUSED
  76:Generated_Source\PSoC4/cyfitter_cfg.c **** static void CYMEMZERO(void *s, size_t n);
  77:Generated_Source\PSoC4/cyfitter_cfg.c **** CY_CFG_UNUSED
  78:Generated_Source\PSoC4/cyfitter_cfg.c **** static void CYMEMZERO(void *s, size_t n)
  79:Generated_Source\PSoC4/cyfitter_cfg.c **** {
  27              		.loc 1 79 0
  28              		.cfi_startproc
  29              		@ args = 0, pretend = 0, frame = 8
  30              		@ frame_needed = 1, uses_anonymous_args = 0
  31 0000 80B5     		push	{r7, lr}
  32              		.cfi_def_cfa_offset 8
  33              		.cfi_offset 7, -8
  34              		.cfi_offset 14, -4
  35 0002 82B0     		sub	sp, sp, #8
ARM GAS  C:\Users\d4hhm\AppData\Local\Temp\ccL7RPka.s 			page 3


  36              		.cfi_def_cfa_offset 16
  37 0004 00AF     		add	r7, sp, #0
  38              		.cfi_def_cfa_register 7
  39 0006 7860     		str	r0, [r7, #4]
  40 0008 3960     		str	r1, [r7]
  80:Generated_Source\PSoC4/cyfitter_cfg.c **** 	(void)memset(s, 0, n);
  41              		.loc 1 80 0
  42 000a 3A68     		ldr	r2, [r7]
  43 000c 7B68     		ldr	r3, [r7, #4]
  44 000e 0021     		movs	r1, #0
  45 0010 1800     		movs	r0, r3
  46 0012 FFF7FEFF 		bl	memset
  81:Generated_Source\PSoC4/cyfitter_cfg.c **** }
  47              		.loc 1 81 0
  48 0016 C046     		nop
  49 0018 BD46     		mov	sp, r7
  50 001a 02B0     		add	sp, sp, #8
  51              		@ sp needed
  52 001c 80BD     		pop	{r7, pc}
  53              		.cfi_endproc
  54              	.LFE2:
  55              		.size	CYMEMZERO, .-CYMEMZERO
  56 001e C046     		.section	.text.CYCONFIGCPY,"ax",%progbits
  57              		.align	2
  58              		.code	16
  59              		.thumb_func
  60              		.type	CYCONFIGCPY, %function
  61              	CYCONFIGCPY:
  62              	.LFB3:
  82:Generated_Source\PSoC4/cyfitter_cfg.c **** CY_CFG_UNUSED
  83:Generated_Source\PSoC4/cyfitter_cfg.c **** static void CYCONFIGCPY(void *dest, const void *src, size_t n);
  84:Generated_Source\PSoC4/cyfitter_cfg.c **** CY_CFG_UNUSED
  85:Generated_Source\PSoC4/cyfitter_cfg.c **** static void CYCONFIGCPY(void *dest, const void *src, size_t n)
  86:Generated_Source\PSoC4/cyfitter_cfg.c **** {
  63              		.loc 1 86 0
  64              		.cfi_startproc
  65              		@ args = 0, pretend = 0, frame = 16
  66              		@ frame_needed = 1, uses_anonymous_args = 0
  67 0000 80B5     		push	{r7, lr}
  68              		.cfi_def_cfa_offset 8
  69              		.cfi_offset 7, -8
  70              		.cfi_offset 14, -4
  71 0002 84B0     		sub	sp, sp, #16
  72              		.cfi_def_cfa_offset 24
  73 0004 00AF     		add	r7, sp, #0
  74              		.cfi_def_cfa_register 7
  75 0006 F860     		str	r0, [r7, #12]
  76 0008 B960     		str	r1, [r7, #8]
  77 000a 7A60     		str	r2, [r7, #4]
  87:Generated_Source\PSoC4/cyfitter_cfg.c **** 	(void)memcpy(dest, src, n);
  78              		.loc 1 87 0
  79 000c 7A68     		ldr	r2, [r7, #4]
  80 000e B968     		ldr	r1, [r7, #8]
  81 0010 FB68     		ldr	r3, [r7, #12]
  82 0012 1800     		movs	r0, r3
  83 0014 FFF7FEFF 		bl	memcpy
  88:Generated_Source\PSoC4/cyfitter_cfg.c **** }
ARM GAS  C:\Users\d4hhm\AppData\Local\Temp\ccL7RPka.s 			page 4


  84              		.loc 1 88 0
  85 0018 C046     		nop
  86 001a BD46     		mov	sp, r7
  87 001c 04B0     		add	sp, sp, #16
  88              		@ sp needed
  89 001e 80BD     		pop	{r7, pc}
  90              		.cfi_endproc
  91              	.LFE3:
  92              		.size	CYCONFIGCPY, .-CYCONFIGCPY
  93              		.section	.text.CYCONFIGCPYCODE,"ax",%progbits
  94              		.align	2
  95              		.code	16
  96              		.thumb_func
  97              		.type	CYCONFIGCPYCODE, %function
  98              	CYCONFIGCPYCODE:
  99              	.LFB4:
  89:Generated_Source\PSoC4/cyfitter_cfg.c **** CY_CFG_UNUSED
  90:Generated_Source\PSoC4/cyfitter_cfg.c **** static void CYCONFIGCPYCODE(void *dest, const void *src, size_t n);
  91:Generated_Source\PSoC4/cyfitter_cfg.c **** CY_CFG_UNUSED
  92:Generated_Source\PSoC4/cyfitter_cfg.c **** static void CYCONFIGCPYCODE(void *dest, const void *src, size_t n)
  93:Generated_Source\PSoC4/cyfitter_cfg.c **** {
 100              		.loc 1 93 0
 101              		.cfi_startproc
 102              		@ args = 0, pretend = 0, frame = 16
 103              		@ frame_needed = 1, uses_anonymous_args = 0
 104 0000 80B5     		push	{r7, lr}
 105              		.cfi_def_cfa_offset 8
 106              		.cfi_offset 7, -8
 107              		.cfi_offset 14, -4
 108 0002 84B0     		sub	sp, sp, #16
 109              		.cfi_def_cfa_offset 24
 110 0004 00AF     		add	r7, sp, #0
 111              		.cfi_def_cfa_register 7
 112 0006 F860     		str	r0, [r7, #12]
 113 0008 B960     		str	r1, [r7, #8]
 114 000a 7A60     		str	r2, [r7, #4]
  94:Generated_Source\PSoC4/cyfitter_cfg.c **** 	(void)memcpy(dest, src, n);
 115              		.loc 1 94 0
 116 000c 7A68     		ldr	r2, [r7, #4]
 117 000e B968     		ldr	r1, [r7, #8]
 118 0010 FB68     		ldr	r3, [r7, #12]
 119 0012 1800     		movs	r0, r3
 120 0014 FFF7FEFF 		bl	memcpy
  95:Generated_Source\PSoC4/cyfitter_cfg.c **** }
 121              		.loc 1 95 0
 122 0018 C046     		nop
 123 001a BD46     		mov	sp, r7
 124 001c 04B0     		add	sp, sp, #16
 125              		@ sp needed
 126 001e 80BD     		pop	{r7, pc}
 127              		.cfi_endproc
 128              	.LFE4:
 129              		.size	CYCONFIGCPYCODE, .-CYCONFIGCPYCODE
 130              		.section	.text.CyClockStartupError,"ax",%progbits
 131              		.align	2
 132              		.code	16
 133              		.thumb_func
ARM GAS  C:\Users\d4hhm\AppData\Local\Temp\ccL7RPka.s 			page 5


 134              		.type	CyClockStartupError, %function
 135              	CyClockStartupError:
 136              	.LFB5:
  96:Generated_Source\PSoC4/cyfitter_cfg.c **** 
  97:Generated_Source\PSoC4/cyfitter_cfg.c **** 
  98:Generated_Source\PSoC4/cyfitter_cfg.c **** 
  99:Generated_Source\PSoC4/cyfitter_cfg.c **** 
 100:Generated_Source\PSoC4/cyfitter_cfg.c **** /* Clock startup error codes                                                   */
 101:Generated_Source\PSoC4/cyfitter_cfg.c **** #define CYCLOCKSTART_NO_ERROR    0u
 102:Generated_Source\PSoC4/cyfitter_cfg.c **** #define CYCLOCKSTART_XTAL_ERROR  1u
 103:Generated_Source\PSoC4/cyfitter_cfg.c **** #define CYCLOCKSTART_32KHZ_ERROR 2u
 104:Generated_Source\PSoC4/cyfitter_cfg.c **** #define CYCLOCKSTART_PLL_ERROR   3u
 105:Generated_Source\PSoC4/cyfitter_cfg.c **** #define CYCLOCKSTART_FLL_ERROR   4u
 106:Generated_Source\PSoC4/cyfitter_cfg.c **** #define CYCLOCKSTART_WCO_ERROR   5u
 107:Generated_Source\PSoC4/cyfitter_cfg.c **** 
 108:Generated_Source\PSoC4/cyfitter_cfg.c **** 
 109:Generated_Source\PSoC4/cyfitter_cfg.c **** #ifdef CY_NEED_CYCLOCKSTARTUPERROR
 110:Generated_Source\PSoC4/cyfitter_cfg.c **** /*******************************************************************************
 111:Generated_Source\PSoC4/cyfitter_cfg.c **** * Function Name: CyClockStartupError
 112:Generated_Source\PSoC4/cyfitter_cfg.c **** ********************************************************************************
 113:Generated_Source\PSoC4/cyfitter_cfg.c **** * Summary:
 114:Generated_Source\PSoC4/cyfitter_cfg.c **** *  If an error is encountered during clock configuration (crystal startup error,
 115:Generated_Source\PSoC4/cyfitter_cfg.c **** *  PLL lock error, etc.), the system will end up here.  Unless reimplemented by
 116:Generated_Source\PSoC4/cyfitter_cfg.c **** *  the customer, this function will stop in an infinite loop.
 117:Generated_Source\PSoC4/cyfitter_cfg.c **** *
 118:Generated_Source\PSoC4/cyfitter_cfg.c **** * Parameters:
 119:Generated_Source\PSoC4/cyfitter_cfg.c **** *   void
 120:Generated_Source\PSoC4/cyfitter_cfg.c **** *
 121:Generated_Source\PSoC4/cyfitter_cfg.c **** * Return:
 122:Generated_Source\PSoC4/cyfitter_cfg.c **** *   void
 123:Generated_Source\PSoC4/cyfitter_cfg.c **** *
 124:Generated_Source\PSoC4/cyfitter_cfg.c **** *******************************************************************************/
 125:Generated_Source\PSoC4/cyfitter_cfg.c **** CY_CFG_UNUSED
 126:Generated_Source\PSoC4/cyfitter_cfg.c **** static void CyClockStartupError(uint8 errorCode);
 127:Generated_Source\PSoC4/cyfitter_cfg.c **** CY_CFG_UNUSED
 128:Generated_Source\PSoC4/cyfitter_cfg.c **** static void CyClockStartupError(uint8 errorCode)
 129:Generated_Source\PSoC4/cyfitter_cfg.c **** {
 137              		.loc 1 129 0
 138              		.cfi_startproc
 139              		@ args = 0, pretend = 0, frame = 8
 140              		@ frame_needed = 1, uses_anonymous_args = 0
 141 0000 80B5     		push	{r7, lr}
 142              		.cfi_def_cfa_offset 8
 143              		.cfi_offset 7, -8
 144              		.cfi_offset 14, -4
 145 0002 82B0     		sub	sp, sp, #8
 146              		.cfi_def_cfa_offset 16
 147 0004 00AF     		add	r7, sp, #0
 148              		.cfi_def_cfa_register 7
 149 0006 0200     		movs	r2, r0
 150 0008 FB1D     		adds	r3, r7, #7
 151 000a 1A70     		strb	r2, [r3]
 130:Generated_Source\PSoC4/cyfitter_cfg.c ****     /* To remove the compiler warning if errorCode not used.                */
 131:Generated_Source\PSoC4/cyfitter_cfg.c ****     errorCode = errorCode;
 152              		.loc 1 131 0
 153 000c FB1D     		adds	r3, r7, #7
 154 000e FA1D     		adds	r2, r7, #7
ARM GAS  C:\Users\d4hhm\AppData\Local\Temp\ccL7RPka.s 			page 6


 155 0010 1278     		ldrb	r2, [r2]
 156 0012 1A70     		strb	r2, [r3]
 157              	.L5:
 132:Generated_Source\PSoC4/cyfitter_cfg.c **** 
 133:Generated_Source\PSoC4/cyfitter_cfg.c ****     /* If we have a clock startup error (bad MHz crystal, PLL lock, etc.),  */
 134:Generated_Source\PSoC4/cyfitter_cfg.c ****     /* we will end up here to allow the customer to implement something to  */
 135:Generated_Source\PSoC4/cyfitter_cfg.c ****     /* deal with the clock condition.                                       */
 136:Generated_Source\PSoC4/cyfitter_cfg.c **** 
 137:Generated_Source\PSoC4/cyfitter_cfg.c **** #ifdef CY_CFG_CLOCK_STARTUP_ERROR_CALLBACK
 138:Generated_Source\PSoC4/cyfitter_cfg.c ****     CY_CFG_Clock_Startup_ErrorCallback();
 139:Generated_Source\PSoC4/cyfitter_cfg.c **** #else
 140:Generated_Source\PSoC4/cyfitter_cfg.c ****     /*  If not using CY_CFG_CLOCK_STARTUP_ERROR_CALLBACK, place your clock startup code here. */
 141:Generated_Source\PSoC4/cyfitter_cfg.c ****     /* `#START CyClockStartupError` */
 142:Generated_Source\PSoC4/cyfitter_cfg.c **** 
 143:Generated_Source\PSoC4/cyfitter_cfg.c **** 
 144:Generated_Source\PSoC4/cyfitter_cfg.c **** 
 145:Generated_Source\PSoC4/cyfitter_cfg.c ****     /* `#END` */
 146:Generated_Source\PSoC4/cyfitter_cfg.c **** 
 147:Generated_Source\PSoC4/cyfitter_cfg.c ****     while(1) {}
 158              		.loc 1 147 0 discriminator 1
 159 0014 FEE7     		b	.L5
 160              		.cfi_endproc
 161              	.LFE5:
 162              		.size	CyClockStartupError, .-CyClockStartupError
 163 0016 C046     		.section	.text.cfg_write_bytes32,"ax",%progbits
 164              		.align	2
 165              		.code	16
 166              		.thumb_func
 167              		.type	cfg_write_bytes32, %function
 168              	cfg_write_bytes32:
 169              	.LFB6:
 148:Generated_Source\PSoC4/cyfitter_cfg.c **** #endif /* CY_CFG_CLOCK_STARTUP_ERROR_CALLBACK */
 149:Generated_Source\PSoC4/cyfitter_cfg.c **** }
 150:Generated_Source\PSoC4/cyfitter_cfg.c **** #endif
 151:Generated_Source\PSoC4/cyfitter_cfg.c **** 
 152:Generated_Source\PSoC4/cyfitter_cfg.c **** #define CY_CFG_BASE_ADDR_COUNT 3u
 153:Generated_Source\PSoC4/cyfitter_cfg.c **** CYPACKED typedef struct
 154:Generated_Source\PSoC4/cyfitter_cfg.c **** {
 155:Generated_Source\PSoC4/cyfitter_cfg.c **** 	uint8 offset;
 156:Generated_Source\PSoC4/cyfitter_cfg.c **** 	uint8 value;
 157:Generated_Source\PSoC4/cyfitter_cfg.c **** } CYPACKED_ATTR cy_cfg_addrvalue_t;
 158:Generated_Source\PSoC4/cyfitter_cfg.c **** 
 159:Generated_Source\PSoC4/cyfitter_cfg.c **** 
 160:Generated_Source\PSoC4/cyfitter_cfg.c **** 
 161:Generated_Source\PSoC4/cyfitter_cfg.c **** /*******************************************************************************
 162:Generated_Source\PSoC4/cyfitter_cfg.c **** * Function Name: cfg_write_bytes32
 163:Generated_Source\PSoC4/cyfitter_cfg.c **** ********************************************************************************
 164:Generated_Source\PSoC4/cyfitter_cfg.c **** * Summary:
 165:Generated_Source\PSoC4/cyfitter_cfg.c **** *  This function is used for setting up the chip configuration areas that
 166:Generated_Source\PSoC4/cyfitter_cfg.c **** *  contain relatively sparse data.
 167:Generated_Source\PSoC4/cyfitter_cfg.c **** *
 168:Generated_Source\PSoC4/cyfitter_cfg.c **** * Parameters:
 169:Generated_Source\PSoC4/cyfitter_cfg.c **** *   void
 170:Generated_Source\PSoC4/cyfitter_cfg.c **** *
 171:Generated_Source\PSoC4/cyfitter_cfg.c **** * Return:
 172:Generated_Source\PSoC4/cyfitter_cfg.c **** *   void
 173:Generated_Source\PSoC4/cyfitter_cfg.c **** *
ARM GAS  C:\Users\d4hhm\AppData\Local\Temp\ccL7RPka.s 			page 7


 174:Generated_Source\PSoC4/cyfitter_cfg.c **** *******************************************************************************/
 175:Generated_Source\PSoC4/cyfitter_cfg.c **** static void cfg_write_bytes32(const uint32 addr_table[], const cy_cfg_addrvalue_t data_table[]);
 176:Generated_Source\PSoC4/cyfitter_cfg.c **** static void cfg_write_bytes32(const uint32 addr_table[], const cy_cfg_addrvalue_t data_table[])
 177:Generated_Source\PSoC4/cyfitter_cfg.c **** {
 170              		.loc 1 177 0
 171              		.cfi_startproc
 172              		@ args = 0, pretend = 0, frame = 24
 173              		@ frame_needed = 1, uses_anonymous_args = 0
 174 0000 80B5     		push	{r7, lr}
 175              		.cfi_def_cfa_offset 8
 176              		.cfi_offset 7, -8
 177              		.cfi_offset 14, -4
 178 0002 86B0     		sub	sp, sp, #24
 179              		.cfi_def_cfa_offset 32
 180 0004 00AF     		add	r7, sp, #0
 181              		.cfi_def_cfa_register 7
 182 0006 7860     		str	r0, [r7, #4]
 183 0008 3960     		str	r1, [r7]
 178:Generated_Source\PSoC4/cyfitter_cfg.c **** 	/* For 32-bit little-endian architectures */
 179:Generated_Source\PSoC4/cyfitter_cfg.c **** 	uint32 i, j = 0u;
 184              		.loc 1 179 0
 185 000a 0023     		movs	r3, #0
 186 000c 3B61     		str	r3, [r7, #16]
 180:Generated_Source\PSoC4/cyfitter_cfg.c **** 	for (i = 0u; i < CY_CFG_BASE_ADDR_COUNT; i++)
 187              		.loc 1 180 0
 188 000e 0023     		movs	r3, #0
 189 0010 7B61     		str	r3, [r7, #20]
 190 0012 2FE0     		b	.L7
 191              	.L10:
 192              	.LBB2:
 181:Generated_Source\PSoC4/cyfitter_cfg.c **** 	{
 182:Generated_Source\PSoC4/cyfitter_cfg.c **** 		uint32 baseAddr = addr_table[i];
 193              		.loc 1 182 0
 194 0014 7B69     		ldr	r3, [r7, #20]
 195 0016 9B00     		lsls	r3, r3, #2
 196 0018 7A68     		ldr	r2, [r7, #4]
 197 001a D318     		adds	r3, r2, r3
 198 001c 1B68     		ldr	r3, [r3]
 199 001e BB60     		str	r3, [r7, #8]
 183:Generated_Source\PSoC4/cyfitter_cfg.c **** 		uint8 count = (uint8)baseAddr;
 200              		.loc 1 183 0
 201 0020 0F23     		movs	r3, #15
 202 0022 FB18     		adds	r3, r7, r3
 203 0024 BA68     		ldr	r2, [r7, #8]
 204 0026 1A70     		strb	r2, [r3]
 184:Generated_Source\PSoC4/cyfitter_cfg.c **** 		baseAddr &= 0xFFFFFF00u;
 205              		.loc 1 184 0
 206 0028 BB68     		ldr	r3, [r7, #8]
 207 002a FF22     		movs	r2, #255
 208 002c 9343     		bics	r3, r2
 209 002e BB60     		str	r3, [r7, #8]
 185:Generated_Source\PSoC4/cyfitter_cfg.c **** 		while (count != 0u)
 210              		.loc 1 185 0
 211 0030 18E0     		b	.L8
 212              	.L9:
 186:Generated_Source\PSoC4/cyfitter_cfg.c **** 		{
 187:Generated_Source\PSoC4/cyfitter_cfg.c **** 			CY_SET_REG8((void *)(baseAddr + data_table[j].offset), data_table[j].value);
ARM GAS  C:\Users\d4hhm\AppData\Local\Temp\ccL7RPka.s 			page 8


 213              		.loc 1 187 0
 214 0032 3B69     		ldr	r3, [r7, #16]
 215 0034 5B00     		lsls	r3, r3, #1
 216 0036 3A68     		ldr	r2, [r7]
 217 0038 D318     		adds	r3, r2, r3
 218 003a 1B78     		ldrb	r3, [r3]
 219 003c 1A00     		movs	r2, r3
 220 003e BB68     		ldr	r3, [r7, #8]
 221 0040 D318     		adds	r3, r2, r3
 222 0042 1900     		movs	r1, r3
 223 0044 3B69     		ldr	r3, [r7, #16]
 224 0046 5B00     		lsls	r3, r3, #1
 225 0048 3A68     		ldr	r2, [r7]
 226 004a D318     		adds	r3, r2, r3
 227 004c 5B78     		ldrb	r3, [r3, #1]
 228 004e 0B70     		strb	r3, [r1]
 188:Generated_Source\PSoC4/cyfitter_cfg.c **** 			j++;
 229              		.loc 1 188 0
 230 0050 3B69     		ldr	r3, [r7, #16]
 231 0052 0133     		adds	r3, r3, #1
 232 0054 3B61     		str	r3, [r7, #16]
 189:Generated_Source\PSoC4/cyfitter_cfg.c **** 			count--;
 233              		.loc 1 189 0
 234 0056 0F23     		movs	r3, #15
 235 0058 FB18     		adds	r3, r7, r3
 236 005a 1A78     		ldrb	r2, [r3]
 237 005c 0F23     		movs	r3, #15
 238 005e FB18     		adds	r3, r7, r3
 239 0060 013A     		subs	r2, r2, #1
 240 0062 1A70     		strb	r2, [r3]
 241              	.L8:
 185:Generated_Source\PSoC4/cyfitter_cfg.c **** 		{
 242              		.loc 1 185 0
 243 0064 0F23     		movs	r3, #15
 244 0066 FB18     		adds	r3, r7, r3
 245 0068 1B78     		ldrb	r3, [r3]
 246 006a 002B     		cmp	r3, #0
 247 006c E1D1     		bne	.L9
 248              	.LBE2:
 180:Generated_Source\PSoC4/cyfitter_cfg.c **** 	{
 249              		.loc 1 180 0 discriminator 2
 250 006e 7B69     		ldr	r3, [r7, #20]
 251 0070 0133     		adds	r3, r3, #1
 252 0072 7B61     		str	r3, [r7, #20]
 253              	.L7:
 180:Generated_Source\PSoC4/cyfitter_cfg.c **** 	{
 254              		.loc 1 180 0 is_stmt 0 discriminator 1
 255 0074 7B69     		ldr	r3, [r7, #20]
 256 0076 022B     		cmp	r3, #2
 257 0078 CCD9     		bls	.L10
 190:Generated_Source\PSoC4/cyfitter_cfg.c **** 		}
 191:Generated_Source\PSoC4/cyfitter_cfg.c **** 	}
 192:Generated_Source\PSoC4/cyfitter_cfg.c **** }
 258              		.loc 1 192 0 is_stmt 1
 259 007a C046     		nop
 260 007c BD46     		mov	sp, r7
 261 007e 06B0     		add	sp, sp, #24
ARM GAS  C:\Users\d4hhm\AppData\Local\Temp\ccL7RPka.s 			page 9


 262              		@ sp needed
 263 0080 80BD     		pop	{r7, pc}
 264              		.cfi_endproc
 265              	.LFE6:
 266              		.size	cfg_write_bytes32, .-cfg_write_bytes32
 267 0082 C046     		.section	.psocinit,"ax",%progbits
 268              		.align	2
 269              		.code	16
 270              		.thumb_func
 271              		.type	ClockSetup, %function
 272              	ClockSetup:
 273              	.LFB7:
 193:Generated_Source\PSoC4/cyfitter_cfg.c **** 
 194:Generated_Source\PSoC4/cyfitter_cfg.c **** 
 195:Generated_Source\PSoC4/cyfitter_cfg.c **** /*******************************************************************************
 196:Generated_Source\PSoC4/cyfitter_cfg.c **** * Function Name: ClockSetup
 197:Generated_Source\PSoC4/cyfitter_cfg.c **** ********************************************************************************
 198:Generated_Source\PSoC4/cyfitter_cfg.c **** *
 199:Generated_Source\PSoC4/cyfitter_cfg.c **** * Summary:
 200:Generated_Source\PSoC4/cyfitter_cfg.c **** *   Performs the initialization of all of the clocks in the device based on the
 201:Generated_Source\PSoC4/cyfitter_cfg.c **** *   settings in the Clock tab of the DWR.  This includes enabling the requested
 202:Generated_Source\PSoC4/cyfitter_cfg.c **** *   clocks and setting the necessary dividers to produce the desired frequency. 
 203:Generated_Source\PSoC4/cyfitter_cfg.c **** *
 204:Generated_Source\PSoC4/cyfitter_cfg.c **** * Parameters:
 205:Generated_Source\PSoC4/cyfitter_cfg.c **** *   void
 206:Generated_Source\PSoC4/cyfitter_cfg.c **** *
 207:Generated_Source\PSoC4/cyfitter_cfg.c **** * Return:
 208:Generated_Source\PSoC4/cyfitter_cfg.c **** *   void
 209:Generated_Source\PSoC4/cyfitter_cfg.c **** *
 210:Generated_Source\PSoC4/cyfitter_cfg.c **** *******************************************************************************/
 211:Generated_Source\PSoC4/cyfitter_cfg.c **** static void ClockSetup(void);
 212:Generated_Source\PSoC4/cyfitter_cfg.c **** CY_CFG_SECTION
 213:Generated_Source\PSoC4/cyfitter_cfg.c **** static void ClockSetup(void)
 214:Generated_Source\PSoC4/cyfitter_cfg.c **** {
 274              		.loc 1 214 0
 275              		.cfi_startproc
 276              		@ args = 0, pretend = 0, frame = 8
 277              		@ frame_needed = 1, uses_anonymous_args = 0
 278 0000 80B5     		push	{r7, lr}
 279              		.cfi_def_cfa_offset 8
 280              		.cfi_offset 7, -8
 281              		.cfi_offset 14, -4
 282 0002 82B0     		sub	sp, sp, #8
 283              		.cfi_def_cfa_offset 16
 284 0004 00AF     		add	r7, sp, #0
 285              		.cfi_def_cfa_register 7
 215:Generated_Source\PSoC4/cyfitter_cfg.c **** 	uint8 ecoStatus;
 216:Generated_Source\PSoC4/cyfitter_cfg.c **** 
 217:Generated_Source\PSoC4/cyfitter_cfg.c **** 	/* Set Flash Cycles based on max possible frequency in case a glitch occurs during ClockSetup(). *
 218:Generated_Source\PSoC4/cyfitter_cfg.c **** 	CY_SET_REG32((void CYXDATA *)(CYREG_CPUSS_FLASH_CTL), (0x0012u));
 286              		.loc 1 218 0
 287 0006 3F4B     		ldr	r3, .L14
 288 0008 1222     		movs	r2, #18
 289 000a 1A60     		str	r2, [r3]
 219:Generated_Source\PSoC4/cyfitter_cfg.c **** 
 220:Generated_Source\PSoC4/cyfitter_cfg.c **** 	/* Start the WCO */
 221:Generated_Source\PSoC4/cyfitter_cfg.c **** 	CySysClkWcoStart();
ARM GAS  C:\Users\d4hhm\AppData\Local\Temp\ccL7RPka.s 			page 10


 290              		.loc 1 221 0
 291 000c FFF7FEFF 		bl	CySysClkWcoStart
 222:Generated_Source\PSoC4/cyfitter_cfg.c **** 	CyDelayCycles(12000000u); /* WCO may take up to 500ms to start */
 292              		.loc 1 222 0
 293 0010 3D4B     		ldr	r3, .L14+4
 294 0012 1800     		movs	r0, r3
 295 0014 FFF7FEFF 		bl	CyDelayCycles
 223:Generated_Source\PSoC4/cyfitter_cfg.c **** 	(void)CySysClkWcoSetPowerMode(CY_SYS_CLK_WCO_LPM);    /* Switch to the low power mode */
 296              		.loc 1 223 0
 297 0018 0120     		movs	r0, #1
 298 001a FFF7FEFF 		bl	CySysClkWcoSetPowerMode
 224:Generated_Source\PSoC4/cyfitter_cfg.c **** 
 225:Generated_Source\PSoC4/cyfitter_cfg.c **** 	/* Setup and trim IMO based on desired frequency. */
 226:Generated_Source\PSoC4/cyfitter_cfg.c **** 	CySysClkWriteImoFreq(48u);
 299              		.loc 1 226 0
 300 001e 3020     		movs	r0, #48
 301 0020 FFF7FEFF 		bl	CySysClkWriteImoFreq
 227:Generated_Source\PSoC4/cyfitter_cfg.c **** 	/* CYDEV_WDT_CONFIG Starting address: CYDEV_WDT_CONFIG */
 228:Generated_Source\PSoC4/cyfitter_cfg.c **** 	CY_SET_REG32((void *)(CYREG_WDT_CONFIG), 0x40000000u);
 302              		.loc 1 228 0
 303 0024 394B     		ldr	r3, .L14+8
 304 0026 8022     		movs	r2, #128
 305 0028 D205     		lsls	r2, r2, #23
 306 002a 1A60     		str	r2, [r3]
 229:Generated_Source\PSoC4/cyfitter_cfg.c **** 
 230:Generated_Source\PSoC4/cyfitter_cfg.c **** 
 231:Generated_Source\PSoC4/cyfitter_cfg.c **** 	/* Enable fast start mode for XO */
 232:Generated_Source\PSoC4/cyfitter_cfg.c **** 	CY_SET_REG32((void*)CYREG_BLE_BLERD_BB_XO, CY_GET_REG32((void*)CYREG_BLE_BLERD_BB_XO) | (uint32)0x
 307              		.loc 1 232 0
 308 002c 384B     		ldr	r3, .L14+12
 309 002e 384A     		ldr	r2, .L14+12
 310 0030 1268     		ldr	r2, [r2]
 311 0032 0221     		movs	r1, #2
 312 0034 0A43     		orrs	r2, r1
 313 0036 1A60     		str	r2, [r3]
 233:Generated_Source\PSoC4/cyfitter_cfg.c **** 	CY_SET_REG32((void *)(CYREG_BLE_BLERD_BB_XO_CAPTRIM), 0x00006969u);
 314              		.loc 1 233 0
 315 0038 364B     		ldr	r3, .L14+16
 316 003a 374A     		ldr	r2, .L14+20
 317 003c 1A60     		str	r2, [r3]
 234:Generated_Source\PSoC4/cyfitter_cfg.c **** 	/*Set XTAL(ECO) divider*/
 235:Generated_Source\PSoC4/cyfitter_cfg.c **** 	CY_SET_REG32((void *)(CYREG_BLE_BLESS_XTAL_CLK_DIV_CONFIG), 0x00000000u);
 318              		.loc 1 235 0
 319 003e 374B     		ldr	r3, .L14+24
 320 0040 0022     		movs	r2, #0
 321 0042 1A60     		str	r2, [r3]
 236:Generated_Source\PSoC4/cyfitter_cfg.c **** 	/* Disable Crystal Stable Interrupt before enabling ECO */
 237:Generated_Source\PSoC4/cyfitter_cfg.c **** 	CY_SET_REG32((void*)CYREG_BLE_BLESS_LL_DSM_CTRL, CY_GET_REG32((void*)CYREG_BLE_BLESS_LL_DSM_CTRL) 
 322              		.loc 1 237 0
 323 0044 364B     		ldr	r3, .L14+28
 324 0046 364A     		ldr	r2, .L14+28
 325 0048 1268     		ldr	r2, [r2]
 326 004a 0821     		movs	r1, #8
 327 004c 8A43     		bics	r2, r1
 328 004e 1A60     		str	r2, [r3]
 238:Generated_Source\PSoC4/cyfitter_cfg.c **** 	/* Start the ECO and check status since it is needed for HFCLK */
 239:Generated_Source\PSoC4/cyfitter_cfg.c **** 	ecoStatus = CySysClkEcoStart(2000u);
ARM GAS  C:\Users\d4hhm\AppData\Local\Temp\ccL7RPka.s 			page 11


 329              		.loc 1 239 0
 330 0050 FA23     		movs	r3, #250
 331 0052 DB00     		lsls	r3, r3, #3
 332 0054 1800     		movs	r0, r3
 333 0056 FFF7FEFF 		bl	CySysClkEcoStart
 334 005a 0200     		movs	r2, r0
 335 005c FB1D     		adds	r3, r7, #7
 336 005e 1A70     		strb	r2, [r3]
 240:Generated_Source\PSoC4/cyfitter_cfg.c **** 	if (ecoStatus != CYRET_SUCCESS)
 337              		.loc 1 240 0
 338 0060 FB1D     		adds	r3, r7, #7
 339 0062 1B78     		ldrb	r3, [r3]
 340 0064 002B     		cmp	r3, #0
 341 0066 02D0     		beq	.L12
 241:Generated_Source\PSoC4/cyfitter_cfg.c **** 	{
 242:Generated_Source\PSoC4/cyfitter_cfg.c **** 		CyClockStartupError(CYCLOCKSTART_XTAL_ERROR);
 342              		.loc 1 242 0
 343 0068 0120     		movs	r0, #1
 344 006a FFF7FEFF 		bl	CyClockStartupError
 345              	.L12:
 243:Generated_Source\PSoC4/cyfitter_cfg.c **** 	}
 244:Generated_Source\PSoC4/cyfitter_cfg.c **** 	CyDelayUs(1500u); /* Wait to stabilize */
 346              		.loc 1 244 0
 347 006e 2D4B     		ldr	r3, .L14+32
 348 0070 1800     		movs	r0, r3
 349 0072 FFF7FEFF 		bl	CyDelayUs
 245:Generated_Source\PSoC4/cyfitter_cfg.c **** 
 246:Generated_Source\PSoC4/cyfitter_cfg.c **** 	/* Setup phase aligned clocks */
 247:Generated_Source\PSoC4/cyfitter_cfg.c **** 	CY_SET_REG32((void *)CYREG_PERI_DIV_16_CTL0, 0x0000FE00u);
 350              		.loc 1 247 0
 351 0076 2C4B     		ldr	r3, .L14+36
 352 0078 FE22     		movs	r2, #254
 353 007a 1202     		lsls	r2, r2, #8
 354 007c 1A60     		str	r2, [r3]
 248:Generated_Source\PSoC4/cyfitter_cfg.c **** 	CY_SET_REG32((void *)CYREG_PERI_DIV_CMD, 0x8000FF40u);
 355              		.loc 1 248 0
 356 007e 2B4B     		ldr	r3, .L14+40
 357 0080 2B4A     		ldr	r2, .L14+44
 358 0082 1A60     		str	r2, [r3]
 249:Generated_Source\PSoC4/cyfitter_cfg.c **** 	CY_SET_REG32((void *)CYREG_PERI_DIV_16_CTL1, 0x0000FE00u);
 359              		.loc 1 249 0
 360 0084 2B4B     		ldr	r3, .L14+48
 361 0086 FE22     		movs	r2, #254
 362 0088 1202     		lsls	r2, r2, #8
 363 008a 1A60     		str	r2, [r3]
 250:Generated_Source\PSoC4/cyfitter_cfg.c **** 	CY_SET_REG32((void *)CYREG_PERI_DIV_CMD, 0x8000FF41u);
 364              		.loc 1 250 0
 365 008c 274B     		ldr	r3, .L14+40
 366 008e 2A4A     		ldr	r2, .L14+52
 367 0090 1A60     		str	r2, [r3]
 251:Generated_Source\PSoC4/cyfitter_cfg.c **** 	CY_SET_REG32((void *)CYREG_PERI_DIV_16_CTL2, 0x00000E00u);
 368              		.loc 1 251 0
 369 0092 2A4B     		ldr	r3, .L14+56
 370 0094 E022     		movs	r2, #224
 371 0096 1201     		lsls	r2, r2, #4
 372 0098 1A60     		str	r2, [r3]
 252:Generated_Source\PSoC4/cyfitter_cfg.c **** 	CY_SET_REG32((void *)CYREG_PERI_DIV_CMD, 0x8000FF42u);
ARM GAS  C:\Users\d4hhm\AppData\Local\Temp\ccL7RPka.s 			page 12


 373              		.loc 1 252 0
 374 009a 244B     		ldr	r3, .L14+40
 375 009c 284A     		ldr	r2, .L14+60
 376 009e 1A60     		str	r2, [r3]
 253:Generated_Source\PSoC4/cyfitter_cfg.c **** 
 254:Generated_Source\PSoC4/cyfitter_cfg.c **** 	/* CYDEV_CLK_SELECT Starting address: CYDEV_CLK_SELECT */
 255:Generated_Source\PSoC4/cyfitter_cfg.c **** 	CY_SET_REG32((void *)(CYREG_CLK_SELECT), 0x00000092u);
 377              		.loc 1 255 0
 378 00a0 284B     		ldr	r3, .L14+64
 379 00a2 9222     		movs	r2, #146
 380 00a4 1A60     		str	r2, [r3]
 256:Generated_Source\PSoC4/cyfitter_cfg.c **** 
 257:Generated_Source\PSoC4/cyfitter_cfg.c **** 	/* CYDEV_CLK_IMO_CONFIG Starting address: CYDEV_CLK_IMO_CONFIG */
 258:Generated_Source\PSoC4/cyfitter_cfg.c **** 	CY_SET_REG32((void *)(CYREG_CLK_IMO_CONFIG), 0x80000000u);
 381              		.loc 1 258 0
 382 00a6 284B     		ldr	r3, .L14+68
 383 00a8 8022     		movs	r2, #128
 384 00aa 1206     		lsls	r2, r2, #24
 385 00ac 1A60     		str	r2, [r3]
 259:Generated_Source\PSoC4/cyfitter_cfg.c **** 
 260:Generated_Source\PSoC4/cyfitter_cfg.c **** 	/* CYDEV_PERI_PCLK_CTL5 Starting address: CYDEV_PERI_PCLK_CTL5 */
 261:Generated_Source\PSoC4/cyfitter_cfg.c **** 	CY_SET_REG32((void *)(CYREG_PERI_PCLK_CTL5), 0x00000040u);
 386              		.loc 1 261 0
 387 00ae 274B     		ldr	r3, .L14+72
 388 00b0 4022     		movs	r2, #64
 389 00b2 1A60     		str	r2, [r3]
 262:Generated_Source\PSoC4/cyfitter_cfg.c **** 
 263:Generated_Source\PSoC4/cyfitter_cfg.c **** 	/* CYDEV_PERI_PCLK_CTL4 Starting address: CYDEV_PERI_PCLK_CTL4 */
 264:Generated_Source\PSoC4/cyfitter_cfg.c **** 	CY_SET_REG32((void *)(CYREG_PERI_PCLK_CTL4), 0x00000041u);
 390              		.loc 1 264 0
 391 00b4 264B     		ldr	r3, .L14+76
 392 00b6 4122     		movs	r2, #65
 393 00b8 1A60     		str	r2, [r3]
 265:Generated_Source\PSoC4/cyfitter_cfg.c **** 
 266:Generated_Source\PSoC4/cyfitter_cfg.c **** 	/* CYDEV_PERI_PCLK_CTL1 Starting address: CYDEV_PERI_PCLK_CTL1 */
 267:Generated_Source\PSoC4/cyfitter_cfg.c **** 	CY_SET_REG32((void *)(CYREG_PERI_PCLK_CTL1), 0x00000042u);
 394              		.loc 1 267 0
 395 00ba 264B     		ldr	r3, .L14+80
 396 00bc 4222     		movs	r2, #66
 397 00be 1A60     		str	r2, [r3]
 268:Generated_Source\PSoC4/cyfitter_cfg.c **** 
 269:Generated_Source\PSoC4/cyfitter_cfg.c **** 	(void)CyIntSetVector(8u, &CySysWdtIsr);
 398              		.loc 1 269 0
 399 00c0 254B     		ldr	r3, .L14+84
 400 00c2 1900     		movs	r1, r3
 401 00c4 0820     		movs	r0, #8
 402 00c6 FFF7FEFF 		bl	CyIntSetVector
 270:Generated_Source\PSoC4/cyfitter_cfg.c **** 	CyIntEnable(8u);
 403              		.loc 1 270 0
 404 00ca 0820     		movs	r0, #8
 405 00cc FFF7FEFF 		bl	CyIntEnable
 271:Generated_Source\PSoC4/cyfitter_cfg.c **** 	CY_SET_REG32((void *)(CYREG_WDT_MATCH), 0x00003FFFu);
 406              		.loc 1 271 0
 407 00d0 224B     		ldr	r3, .L14+88
 408 00d2 234A     		ldr	r2, .L14+92
 409 00d4 1A60     		str	r2, [r3]
 272:Generated_Source\PSoC4/cyfitter_cfg.c **** 	CY_SET_REG32((void *)(CYREG_WDT_CONFIG), 0x40000005u);
ARM GAS  C:\Users\d4hhm\AppData\Local\Temp\ccL7RPka.s 			page 13


 410              		.loc 1 272 0
 411 00d6 0D4B     		ldr	r3, .L14+8
 412 00d8 224A     		ldr	r2, .L14+96
 413 00da 1A60     		str	r2, [r3]
 273:Generated_Source\PSoC4/cyfitter_cfg.c **** 	CY_SET_REG32((void *)(CYREG_WDT_CONTROL), 0x00000008u);
 414              		.loc 1 273 0
 415 00dc 224B     		ldr	r3, .L14+100
 416 00de 0822     		movs	r2, #8
 417 00e0 1A60     		str	r2, [r3]
 274:Generated_Source\PSoC4/cyfitter_cfg.c **** 	while ((CY_GET_XTND_REG32((void CYFAR *)(CYREG_WDT_CONTROL)) & 0x00000008u) != 0u) { }
 418              		.loc 1 274 0
 419 00e2 C046     		nop
 420              	.L13:
 421              		.loc 1 274 0 is_stmt 0 discriminator 1
 422 00e4 204B     		ldr	r3, .L14+100
 423 00e6 1B68     		ldr	r3, [r3]
 424 00e8 0822     		movs	r2, #8
 425 00ea 1340     		ands	r3, r2
 426 00ec FAD1     		bne	.L13
 275:Generated_Source\PSoC4/cyfitter_cfg.c **** 	CY_SET_REG32((void *)(CYREG_WDT_CONTROL), 0x00000001u);
 427              		.loc 1 275 0 is_stmt 1
 428 00ee 1E4B     		ldr	r3, .L14+100
 429 00f0 0122     		movs	r2, #1
 430 00f2 1A60     		str	r2, [r3]
 276:Generated_Source\PSoC4/cyfitter_cfg.c **** 	/* Set Flash Cycles based on newly configured 24.00MHz HFCLK. */
 277:Generated_Source\PSoC4/cyfitter_cfg.c **** 	CY_SET_REG32((void CYXDATA *)(CYREG_CPUSS_FLASH_CTL), (0x0011u));
 431              		.loc 1 277 0
 432 00f4 034B     		ldr	r3, .L14
 433 00f6 1122     		movs	r2, #17
 434 00f8 1A60     		str	r2, [r3]
 278:Generated_Source\PSoC4/cyfitter_cfg.c **** }
 435              		.loc 1 278 0
 436 00fa C046     		nop
 437 00fc BD46     		mov	sp, r7
 438 00fe 02B0     		add	sp, sp, #8
 439              		@ sp needed
 440 0100 80BD     		pop	{r7, pc}
 441              	.L15:
 442 0102 C046     		.align	2
 443              	.L14:
 444 0104 30001040 		.word	1074790448
 445 0108 001BB700 		.word	12000000
 446 010c 0C020B40 		.word	1074463244
 447 0110 78002E40 		.word	1076756600
 448 0114 7C002E40 		.word	1076756604
 449 0118 69690000 		.word	26985
 450 011c 64F02E40 		.word	1076818020
 451 0120 6CF02E40 		.word	1076818028
 452 0124 DC050000 		.word	1500
 453 0128 00030140 		.word	1073808128
 454 012c 00000140 		.word	1073807360
 455 0130 40FF0080 		.word	-2147418304
 456 0134 04030140 		.word	1073808132
 457 0138 41FF0080 		.word	-2147418303
 458 013c 08030140 		.word	1073808136
 459 0140 42FF0080 		.word	-2147418302
 460 0144 00010B40 		.word	1074462976
ARM GAS  C:\Users\d4hhm\AppData\Local\Temp\ccL7RPka.s 			page 14


 461 0148 08010B40 		.word	1074462984
 462 014c 14010140 		.word	1073807636
 463 0150 10010140 		.word	1073807632
 464 0154 04010140 		.word	1073807620
 465 0158 00000000 		.word	CySysWdtIsr
 466 015c 08020B40 		.word	1074463240
 467 0160 FF3F0000 		.word	16383
 468 0164 05000040 		.word	1073741829
 469 0168 10020B40 		.word	1074463248
 470              		.cfi_endproc
 471              	.LFE7:
 472              		.size	ClockSetup, .-ClockSetup
 473              		.section	.text.AnalogSetDefault,"ax",%progbits
 474              		.align	2
 475              		.code	16
 476              		.thumb_func
 477              		.type	AnalogSetDefault, %function
 478              	AnalogSetDefault:
 479              	.LFB8:
 279:Generated_Source\PSoC4/cyfitter_cfg.c **** 
 280:Generated_Source\PSoC4/cyfitter_cfg.c **** 
 281:Generated_Source\PSoC4/cyfitter_cfg.c **** /* Analog API Functions */
 282:Generated_Source\PSoC4/cyfitter_cfg.c **** 
 283:Generated_Source\PSoC4/cyfitter_cfg.c **** 
 284:Generated_Source\PSoC4/cyfitter_cfg.c **** /*******************************************************************************
 285:Generated_Source\PSoC4/cyfitter_cfg.c **** * Function Name: AnalogSetDefault
 286:Generated_Source\PSoC4/cyfitter_cfg.c **** ********************************************************************************
 287:Generated_Source\PSoC4/cyfitter_cfg.c **** *
 288:Generated_Source\PSoC4/cyfitter_cfg.c **** * Summary:
 289:Generated_Source\PSoC4/cyfitter_cfg.c **** *  Sets up the analog portions of the chip to default values based on chip
 290:Generated_Source\PSoC4/cyfitter_cfg.c **** *  configuration options from the project.
 291:Generated_Source\PSoC4/cyfitter_cfg.c **** *
 292:Generated_Source\PSoC4/cyfitter_cfg.c **** * Parameters:
 293:Generated_Source\PSoC4/cyfitter_cfg.c **** *  void
 294:Generated_Source\PSoC4/cyfitter_cfg.c **** *
 295:Generated_Source\PSoC4/cyfitter_cfg.c **** * Return:
 296:Generated_Source\PSoC4/cyfitter_cfg.c **** *  void
 297:Generated_Source\PSoC4/cyfitter_cfg.c **** *
 298:Generated_Source\PSoC4/cyfitter_cfg.c **** *******************************************************************************/
 299:Generated_Source\PSoC4/cyfitter_cfg.c **** static void AnalogSetDefault(void);
 300:Generated_Source\PSoC4/cyfitter_cfg.c **** static void AnalogSetDefault(void)
 301:Generated_Source\PSoC4/cyfitter_cfg.c **** {
 480              		.loc 1 301 0
 481              		.cfi_startproc
 482              		@ args = 0, pretend = 0, frame = 0
 483              		@ frame_needed = 1, uses_anonymous_args = 0
 484 0000 80B5     		push	{r7, lr}
 485              		.cfi_def_cfa_offset 8
 486              		.cfi_offset 7, -8
 487              		.cfi_offset 14, -4
 488 0002 00AF     		add	r7, sp, #0
 489              		.cfi_def_cfa_register 7
 302:Generated_Source\PSoC4/cyfitter_cfg.c **** 	CY_SET_XTND_REG32((void CYFAR *)CYREG_CTBM0_DFT_CTRL, 0x00000003u);
 490              		.loc 1 302 0
 491 0004 074B     		ldr	r3, .L17
 492 0006 0322     		movs	r2, #3
 493 0008 1A60     		str	r2, [r3]
ARM GAS  C:\Users\d4hhm\AppData\Local\Temp\ccL7RPka.s 			page 15


 303:Generated_Source\PSoC4/cyfitter_cfg.c **** 	CY_SET_XTND_REG32((void CYFAR *)CYREG_CTBM1_DFT_CTRL, 0x00000003u);
 494              		.loc 1 303 0
 495 000a 074B     		ldr	r3, .L17+4
 496 000c 0322     		movs	r2, #3
 497 000e 1A60     		str	r2, [r3]
 304:Generated_Source\PSoC4/cyfitter_cfg.c **** 	CY_SET_XTND_REG32((void CYFAR *)CYREG_PASS_DSAB_DSAB_CTRL, 0x00000000u);
 498              		.loc 1 304 0
 499 0010 064B     		ldr	r3, .L17+8
 500 0012 0022     		movs	r2, #0
 501 0014 1A60     		str	r2, [r3]
 305:Generated_Source\PSoC4/cyfitter_cfg.c **** 	SetAnalogRoutingPumps(1);
 502              		.loc 1 305 0
 503 0016 0120     		movs	r0, #1
 504 0018 FFF7FEFF 		bl	SetAnalogRoutingPumps
 306:Generated_Source\PSoC4/cyfitter_cfg.c **** }
 505              		.loc 1 306 0
 506 001c C046     		nop
 507 001e BD46     		mov	sp, r7
 508              		@ sp needed
 509 0020 80BD     		pop	{r7, pc}
 510              	.L18:
 511 0022 C046     		.align	2
 512              	.L17:
 513 0024 30003040 		.word	1076887600
 514 0028 30003140 		.word	1076953136
 515 002c 000E3F40 		.word	1077874176
 516              		.cfi_endproc
 517              	.LFE8:
 518              		.size	AnalogSetDefault, .-AnalogSetDefault
 519              		.section	.text.SetAnalogRoutingPumps,"ax",%progbits
 520              		.align	2
 521              		.global	SetAnalogRoutingPumps
 522              		.code	16
 523              		.thumb_func
 524              		.type	SetAnalogRoutingPumps, %function
 525              	SetAnalogRoutingPumps:
 526              	.LFB9:
 307:Generated_Source\PSoC4/cyfitter_cfg.c **** 
 308:Generated_Source\PSoC4/cyfitter_cfg.c **** 
 309:Generated_Source\PSoC4/cyfitter_cfg.c **** /*******************************************************************************
 310:Generated_Source\PSoC4/cyfitter_cfg.c **** * Function Name: SetAnalogRoutingPumps
 311:Generated_Source\PSoC4/cyfitter_cfg.c **** ********************************************************************************
 312:Generated_Source\PSoC4/cyfitter_cfg.c **** *
 313:Generated_Source\PSoC4/cyfitter_cfg.c **** * Summary:
 314:Generated_Source\PSoC4/cyfitter_cfg.c **** * Enables or disables the analog pumps feeding analog routing switches.
 315:Generated_Source\PSoC4/cyfitter_cfg.c **** * Intended to be called at startup, based on the Vdda system configuration;
 316:Generated_Source\PSoC4/cyfitter_cfg.c **** * may be called during operation when the user informs us that the Vdda voltage crossed the pump th
 317:Generated_Source\PSoC4/cyfitter_cfg.c **** *
 318:Generated_Source\PSoC4/cyfitter_cfg.c **** * Parameters:
 319:Generated_Source\PSoC4/cyfitter_cfg.c **** *  enabled - 1 to enable the pumps, 0 to disable the pumps
 320:Generated_Source\PSoC4/cyfitter_cfg.c **** *
 321:Generated_Source\PSoC4/cyfitter_cfg.c **** * Return:
 322:Generated_Source\PSoC4/cyfitter_cfg.c **** *  void
 323:Generated_Source\PSoC4/cyfitter_cfg.c **** *
 324:Generated_Source\PSoC4/cyfitter_cfg.c **** *******************************************************************************/
 325:Generated_Source\PSoC4/cyfitter_cfg.c **** void SetAnalogRoutingPumps(uint8 enabled)
 326:Generated_Source\PSoC4/cyfitter_cfg.c **** {
ARM GAS  C:\Users\d4hhm\AppData\Local\Temp\ccL7RPka.s 			page 16


 527              		.loc 1 326 0
 528              		.cfi_startproc
 529              		@ args = 0, pretend = 0, frame = 16
 530              		@ frame_needed = 1, uses_anonymous_args = 0
 531 0000 80B5     		push	{r7, lr}
 532              		.cfi_def_cfa_offset 8
 533              		.cfi_offset 7, -8
 534              		.cfi_offset 14, -4
 535 0002 84B0     		sub	sp, sp, #16
 536              		.cfi_def_cfa_offset 24
 537 0004 00AF     		add	r7, sp, #0
 538              		.cfi_def_cfa_register 7
 539 0006 0200     		movs	r2, r0
 540 0008 FB1D     		adds	r3, r7, #7
 541 000a 1A70     		strb	r2, [r3]
 327:Generated_Source\PSoC4/cyfitter_cfg.c **** 	uint32 regValue = CY_GET_XTND_REG32((void *)(CYREG_SAR_PUMP_CTRL));
 542              		.loc 1 327 0
 543 000c 154B     		ldr	r3, .L24
 544 000e 1B68     		ldr	r3, [r3]
 545 0010 FB60     		str	r3, [r7, #12]
 328:Generated_Source\PSoC4/cyfitter_cfg.c **** 	if (enabled != 0u)
 546              		.loc 1 328 0
 547 0012 FB1D     		adds	r3, r7, #7
 548 0014 1B78     		ldrb	r3, [r3]
 549 0016 002B     		cmp	r3, #0
 550 0018 05D0     		beq	.L20
 329:Generated_Source\PSoC4/cyfitter_cfg.c **** 	{
 330:Generated_Source\PSoC4/cyfitter_cfg.c **** 		regValue |= 0x80000000u;
 551              		.loc 1 330 0
 552 001a FB68     		ldr	r3, [r7, #12]
 553 001c 8022     		movs	r2, #128
 554 001e 1206     		lsls	r2, r2, #24
 555 0020 1343     		orrs	r3, r2
 556 0022 FB60     		str	r3, [r7, #12]
 557 0024 03E0     		b	.L21
 558              	.L20:
 331:Generated_Source\PSoC4/cyfitter_cfg.c **** 	}
 332:Generated_Source\PSoC4/cyfitter_cfg.c **** 	else
 333:Generated_Source\PSoC4/cyfitter_cfg.c **** 	{
 334:Generated_Source\PSoC4/cyfitter_cfg.c **** 		regValue &= ~0x80000000u;
 559              		.loc 1 334 0
 560 0026 FB68     		ldr	r3, [r7, #12]
 561 0028 5B00     		lsls	r3, r3, #1
 562 002a 5B08     		lsrs	r3, r3, #1
 563 002c FB60     		str	r3, [r7, #12]
 564              	.L21:
 335:Generated_Source\PSoC4/cyfitter_cfg.c **** 	}
 336:Generated_Source\PSoC4/cyfitter_cfg.c **** 	CY_SET_XTND_REG32((void *)(CYREG_SAR_PUMP_CTRL), regValue);
 565              		.loc 1 336 0
 566 002e 0D4B     		ldr	r3, .L24
 567 0030 FA68     		ldr	r2, [r7, #12]
 568 0032 1A60     		str	r2, [r3]
 337:Generated_Source\PSoC4/cyfitter_cfg.c **** 	regValue = CY_GET_XTND_REG32((void *)(CYREG_CLK_IMO_CONFIG));
 569              		.loc 1 337 0
 570 0034 0C4B     		ldr	r3, .L24+4
 571 0036 1B68     		ldr	r3, [r3]
 572 0038 FB60     		str	r3, [r7, #12]
ARM GAS  C:\Users\d4hhm\AppData\Local\Temp\ccL7RPka.s 			page 17


 338:Generated_Source\PSoC4/cyfitter_cfg.c **** 	if (enabled != 0u)
 573              		.loc 1 338 0
 574 003a FB1D     		adds	r3, r7, #7
 575 003c 1B78     		ldrb	r3, [r3]
 576 003e 002B     		cmp	r3, #0
 577 0040 05D0     		beq	.L22
 339:Generated_Source\PSoC4/cyfitter_cfg.c **** 	{
 340:Generated_Source\PSoC4/cyfitter_cfg.c **** 		regValue |= 0x02000000u;
 578              		.loc 1 340 0
 579 0042 FB68     		ldr	r3, [r7, #12]
 580 0044 8022     		movs	r2, #128
 581 0046 9204     		lsls	r2, r2, #18
 582 0048 1343     		orrs	r3, r2
 583 004a FB60     		str	r3, [r7, #12]
 584 004c 03E0     		b	.L23
 585              	.L22:
 341:Generated_Source\PSoC4/cyfitter_cfg.c **** 	}
 342:Generated_Source\PSoC4/cyfitter_cfg.c **** 	else
 343:Generated_Source\PSoC4/cyfitter_cfg.c **** 	{
 344:Generated_Source\PSoC4/cyfitter_cfg.c **** 		regValue &= ~0x02000000u;
 586              		.loc 1 344 0
 587 004e FB68     		ldr	r3, [r7, #12]
 588 0050 064A     		ldr	r2, .L24+8
 589 0052 1340     		ands	r3, r2
 590 0054 FB60     		str	r3, [r7, #12]
 591              	.L23:
 345:Generated_Source\PSoC4/cyfitter_cfg.c **** 	}
 346:Generated_Source\PSoC4/cyfitter_cfg.c **** 	CY_SET_XTND_REG32((void *)(CYREG_CLK_IMO_CONFIG), regValue);
 592              		.loc 1 346 0
 593 0056 044B     		ldr	r3, .L24+4
 594 0058 FA68     		ldr	r2, [r7, #12]
 595 005a 1A60     		str	r2, [r3]
 347:Generated_Source\PSoC4/cyfitter_cfg.c **** }
 596              		.loc 1 347 0
 597 005c C046     		nop
 598 005e BD46     		mov	sp, r7
 599 0060 04B0     		add	sp, sp, #16
 600              		@ sp needed
 601 0062 80BD     		pop	{r7, pc}
 602              	.L25:
 603              		.align	2
 604              	.L24:
 605 0064 80033A40 		.word	1077543808
 606 0068 08010B40 		.word	1074462984
 607 006c FFFFFFFD 		.word	-33554433
 608              		.cfi_endproc
 609              	.LFE9:
 610              		.size	SetAnalogRoutingPumps, .-SetAnalogRoutingPumps
 611              		.section	.psocinit
 612              		.align	2
 613              		.global	cyfitter_cfg
 614              		.code	16
 615              		.thumb_func
 616              		.type	cyfitter_cfg, %function
 617              	cyfitter_cfg:
 618              	.LFB10:
 348:Generated_Source\PSoC4/cyfitter_cfg.c **** 
ARM GAS  C:\Users\d4hhm\AppData\Local\Temp\ccL7RPka.s 			page 18


 349:Generated_Source\PSoC4/cyfitter_cfg.c **** 
 350:Generated_Source\PSoC4/cyfitter_cfg.c **** 
 351:Generated_Source\PSoC4/cyfitter_cfg.c **** 
 352:Generated_Source\PSoC4/cyfitter_cfg.c **** /*******************************************************************************
 353:Generated_Source\PSoC4/cyfitter_cfg.c **** * Function Name: cyfitter_cfg
 354:Generated_Source\PSoC4/cyfitter_cfg.c **** ********************************************************************************
 355:Generated_Source\PSoC4/cyfitter_cfg.c **** * Summary:
 356:Generated_Source\PSoC4/cyfitter_cfg.c **** *  This function is called by the start-up code for the selected device. It
 357:Generated_Source\PSoC4/cyfitter_cfg.c **** *  performs all of the necessary device configuration based on the design
 358:Generated_Source\PSoC4/cyfitter_cfg.c **** *  settings.  This includes settings from the Design Wide Resources (DWR) such
 359:Generated_Source\PSoC4/cyfitter_cfg.c **** *  as Clocks and Pins as well as any component configuration that is necessary.
 360:Generated_Source\PSoC4/cyfitter_cfg.c **** *
 361:Generated_Source\PSoC4/cyfitter_cfg.c **** * Parameters:
 362:Generated_Source\PSoC4/cyfitter_cfg.c **** *   void
 363:Generated_Source\PSoC4/cyfitter_cfg.c **** *
 364:Generated_Source\PSoC4/cyfitter_cfg.c **** * Return:
 365:Generated_Source\PSoC4/cyfitter_cfg.c **** *   void
 366:Generated_Source\PSoC4/cyfitter_cfg.c **** *
 367:Generated_Source\PSoC4/cyfitter_cfg.c **** *******************************************************************************/
 368:Generated_Source\PSoC4/cyfitter_cfg.c **** CY_CFG_SECTION
 369:Generated_Source\PSoC4/cyfitter_cfg.c **** void cyfitter_cfg(void)
 370:Generated_Source\PSoC4/cyfitter_cfg.c **** {
 619              		.loc 1 370 0
 620              		.cfi_startproc
 621              		@ args = 0, pretend = 0, frame = 8
 622              		@ frame_needed = 1, uses_anonymous_args = 0
 623 016c 80B5     		push	{r7, lr}
 624              		.cfi_def_cfa_offset 8
 625              		.cfi_offset 7, -8
 626              		.cfi_offset 14, -4
 627 016e 82B0     		sub	sp, sp, #8
 628              		.cfi_def_cfa_offset 16
 629 0170 00AF     		add	r7, sp, #0
 630              		.cfi_def_cfa_register 7
 371:Generated_Source\PSoC4/cyfitter_cfg.c **** 	/* Disable interrupts by default. Let user enable if/when they want. */
 372:Generated_Source\PSoC4/cyfitter_cfg.c **** 	CyGlobalIntDisable;
 631              		.loc 1 372 0
 632              		.syntax divided
 633              	@ 372 "Generated_Source\PSoC4\cyfitter_cfg.c" 1
 634 0172 72B6     		CPSID   i
 635              	@ 0 "" 2
 373:Generated_Source\PSoC4/cyfitter_cfg.c **** 
 374:Generated_Source\PSoC4/cyfitter_cfg.c **** 	CY_SET_REG32((void *)(CYREG_BLE_BLESS_LL_DSM_CTRL), 0x00000000u);
 636              		.loc 1 374 0
 637              		.thumb
 638              		.syntax unified
 639 0174 394B     		ldr	r3, .L29
 640 0176 0022     		movs	r2, #0
 641 0178 1A60     		str	r2, [r3]
 642              	.LBB3:
 375:Generated_Source\PSoC4/cyfitter_cfg.c **** 
 376:Generated_Source\PSoC4/cyfitter_cfg.c **** 	{
 377:Generated_Source\PSoC4/cyfitter_cfg.c **** 		static const uint32 CYCODE cy_cfg_addr_table[] = {
 378:Generated_Source\PSoC4/cyfitter_cfg.c **** 			0x400F3204u, /* Base address: 0x400F3200 Count: 4 */
 379:Generated_Source\PSoC4/cyfitter_cfg.c **** 			0x400F3303u, /* Base address: 0x400F3300 Count: 3 */
 380:Generated_Source\PSoC4/cyfitter_cfg.c **** 			0x400F4106u, /* Base address: 0x400F4100 Count: 6 */
 381:Generated_Source\PSoC4/cyfitter_cfg.c **** 		};
ARM GAS  C:\Users\d4hhm\AppData\Local\Temp\ccL7RPka.s 			page 19


 382:Generated_Source\PSoC4/cyfitter_cfg.c **** 
 383:Generated_Source\PSoC4/cyfitter_cfg.c **** 		static const cy_cfg_addrvalue_t CYCODE cy_cfg_data_table[] = {
 384:Generated_Source\PSoC4/cyfitter_cfg.c **** 			{0x38u, 0x80u},
 385:Generated_Source\PSoC4/cyfitter_cfg.c **** 			{0x3Eu, 0x40u},
 386:Generated_Source\PSoC4/cyfitter_cfg.c **** 			{0x58u, 0x04u},
 387:Generated_Source\PSoC4/cyfitter_cfg.c **** 			{0x5Fu, 0x01u},
 388:Generated_Source\PSoC4/cyfitter_cfg.c **** 			{0x1Fu, 0x80u},
 389:Generated_Source\PSoC4/cyfitter_cfg.c **** 			{0x83u, 0x80u},
 390:Generated_Source\PSoC4/cyfitter_cfg.c **** 			{0x87u, 0x80u},
 391:Generated_Source\PSoC4/cyfitter_cfg.c **** 			{0x3Bu, 0x02u},
 392:Generated_Source\PSoC4/cyfitter_cfg.c **** 			{0x3Fu, 0x02u},
 393:Generated_Source\PSoC4/cyfitter_cfg.c **** 			{0x83u, 0x01u},
 394:Generated_Source\PSoC4/cyfitter_cfg.c **** 			{0x87u, 0x01u},
 395:Generated_Source\PSoC4/cyfitter_cfg.c **** 			{0xCEu, 0xC0u},
 396:Generated_Source\PSoC4/cyfitter_cfg.c **** 			{0xE6u, 0x30u},
 397:Generated_Source\PSoC4/cyfitter_cfg.c **** 		};
 398:Generated_Source\PSoC4/cyfitter_cfg.c **** 
 399:Generated_Source\PSoC4/cyfitter_cfg.c **** 
 400:Generated_Source\PSoC4/cyfitter_cfg.c **** 
 401:Generated_Source\PSoC4/cyfitter_cfg.c **** 		CYPACKED typedef struct {
 402:Generated_Source\PSoC4/cyfitter_cfg.c **** 			void CYFAR *address;
 403:Generated_Source\PSoC4/cyfitter_cfg.c **** 			uint16 size;
 404:Generated_Source\PSoC4/cyfitter_cfg.c **** 		} CYPACKED_ATTR cfg_memset_t;
 405:Generated_Source\PSoC4/cyfitter_cfg.c **** 
 406:Generated_Source\PSoC4/cyfitter_cfg.c **** 		static const cfg_memset_t CYCODE cfg_memset_list[] = {
 407:Generated_Source\PSoC4/cyfitter_cfg.c **** 			/* address, size */
 408:Generated_Source\PSoC4/cyfitter_cfg.c **** 			{(void CYFAR *)(CYDEV_UDB_P0_U0_BASE), 1024u},
 409:Generated_Source\PSoC4/cyfitter_cfg.c **** 			{(void CYFAR *)(CYDEV_UDB_DSI0_BASE), 1024u},
 410:Generated_Source\PSoC4/cyfitter_cfg.c **** 		};
 411:Generated_Source\PSoC4/cyfitter_cfg.c **** 
 412:Generated_Source\PSoC4/cyfitter_cfg.c **** 		uint8 CYDATA i;
 413:Generated_Source\PSoC4/cyfitter_cfg.c **** 
 414:Generated_Source\PSoC4/cyfitter_cfg.c **** 		/* Zero out critical memory blocks before beginning configuration */
 415:Generated_Source\PSoC4/cyfitter_cfg.c **** 		for (i = 0u; i < (sizeof(cfg_memset_list)/sizeof(cfg_memset_list[0])); i++)
 643              		.loc 1 415 0
 644 017a FB1D     		adds	r3, r7, #7
 645 017c 0022     		movs	r2, #0
 646 017e 1A70     		strb	r2, [r3]
 647 0180 22E0     		b	.L27
 648              	.L28:
 649              	.LBB4:
 416:Generated_Source\PSoC4/cyfitter_cfg.c **** 		{
 417:Generated_Source\PSoC4/cyfitter_cfg.c **** 			const cfg_memset_t CYCODE * CYDATA ms = &cfg_memset_list[i];
 650              		.loc 1 417 0 discriminator 3
 651 0182 FB1D     		adds	r3, r7, #7
 652 0184 1A78     		ldrb	r2, [r3]
 653 0186 1300     		movs	r3, r2
 654 0188 5B00     		lsls	r3, r3, #1
 655 018a 9B18     		adds	r3, r3, r2
 656 018c 5B00     		lsls	r3, r3, #1
 657 018e 344A     		ldr	r2, .L29+4
 658 0190 9B18     		adds	r3, r3, r2
 659 0192 3B60     		str	r3, [r7]
 418:Generated_Source\PSoC4/cyfitter_cfg.c **** 			CYMEMZERO(ms->address, (size_t)(uint32)(ms->size));
 660              		.loc 1 418 0 discriminator 3
 661 0194 3B68     		ldr	r3, [r7]
 662 0196 1A78     		ldrb	r2, [r3]
ARM GAS  C:\Users\d4hhm\AppData\Local\Temp\ccL7RPka.s 			page 20


 663 0198 5978     		ldrb	r1, [r3, #1]
 664 019a 0902     		lsls	r1, r1, #8
 665 019c 0A43     		orrs	r2, r1
 666 019e 9978     		ldrb	r1, [r3, #2]
 667 01a0 0904     		lsls	r1, r1, #16
 668 01a2 0A43     		orrs	r2, r1
 669 01a4 DB78     		ldrb	r3, [r3, #3]
 670 01a6 1B06     		lsls	r3, r3, #24
 671 01a8 1343     		orrs	r3, r2
 672 01aa 1800     		movs	r0, r3
 673 01ac 3B68     		ldr	r3, [r7]
 674 01ae 1A79     		ldrb	r2, [r3, #4]
 675 01b0 5B79     		ldrb	r3, [r3, #5]
 676 01b2 1B02     		lsls	r3, r3, #8
 677 01b4 1343     		orrs	r3, r2
 678 01b6 9BB2     		uxth	r3, r3
 679 01b8 1900     		movs	r1, r3
 680 01ba FFF7FEFF 		bl	CYMEMZERO
 681              	.LBE4:
 415:Generated_Source\PSoC4/cyfitter_cfg.c **** 		{
 682              		.loc 1 415 0 discriminator 3
 683 01be FB1D     		adds	r3, r7, #7
 684 01c0 1A78     		ldrb	r2, [r3]
 685 01c2 FB1D     		adds	r3, r7, #7
 686 01c4 0132     		adds	r2, r2, #1
 687 01c6 1A70     		strb	r2, [r3]
 688              	.L27:
 415:Generated_Source\PSoC4/cyfitter_cfg.c **** 		{
 689              		.loc 1 415 0 is_stmt 0 discriminator 1
 690 01c8 FB1D     		adds	r3, r7, #7
 691 01ca 1B78     		ldrb	r3, [r3]
 692 01cc 012B     		cmp	r3, #1
 693 01ce D8D9     		bls	.L28
 419:Generated_Source\PSoC4/cyfitter_cfg.c **** 		}
 420:Generated_Source\PSoC4/cyfitter_cfg.c **** 
 421:Generated_Source\PSoC4/cyfitter_cfg.c **** 		cfg_write_bytes32(cy_cfg_addr_table, cy_cfg_data_table);
 694              		.loc 1 421 0 is_stmt 1
 695 01d0 244A     		ldr	r2, .L29+8
 696 01d2 254B     		ldr	r3, .L29+12
 697 01d4 1100     		movs	r1, r2
 698 01d6 1800     		movs	r0, r3
 699 01d8 FFF7FEFF 		bl	cfg_write_bytes32
 422:Generated_Source\PSoC4/cyfitter_cfg.c **** 
 423:Generated_Source\PSoC4/cyfitter_cfg.c **** 		/* PWR_BG_CONFIG Starting address: CYDEV_PWR_BG_CONFIG */
 424:Generated_Source\PSoC4/cyfitter_cfg.c **** 		CY_SET_REG32((void *)(CYREG_PWR_BG_CONFIG), 0x00040000u);
 700              		.loc 1 424 0
 701 01dc 234B     		ldr	r3, .L29+16
 702 01de 8022     		movs	r2, #128
 703 01e0 D202     		lsls	r2, r2, #11
 704 01e2 1A60     		str	r2, [r3]
 425:Generated_Source\PSoC4/cyfitter_cfg.c **** 
 426:Generated_Source\PSoC4/cyfitter_cfg.c **** 		/* HSIOM Starting address: CYDEV_HSIOM_BASE */
 427:Generated_Source\PSoC4/cyfitter_cfg.c **** 		CY_SET_REG32((void *)(CYDEV_HSIOM_BASE), 0xEEEE0000u);
 705              		.loc 1 427 0
 706 01e4 224B     		ldr	r3, .L29+20
 707 01e6 234A     		ldr	r2, .L29+24
 708 01e8 1A60     		str	r2, [r3]
ARM GAS  C:\Users\d4hhm\AppData\Local\Temp\ccL7RPka.s 			page 21


 428:Generated_Source\PSoC4/cyfitter_cfg.c **** 
 429:Generated_Source\PSoC4/cyfitter_cfg.c **** 		/* UDB_PA_0 Starting address: CYDEV_UDB_PA0_BASE */
 430:Generated_Source\PSoC4/cyfitter_cfg.c **** 		CY_SET_REG32((void *)(CYDEV_UDB_PA0_BASE), 0x00990000u);
 709              		.loc 1 430 0
 710 01ea 234B     		ldr	r3, .L29+28
 711 01ec 9922     		movs	r2, #153
 712 01ee 1204     		lsls	r2, r2, #16
 713 01f0 1A60     		str	r2, [r3]
 431:Generated_Source\PSoC4/cyfitter_cfg.c **** 
 432:Generated_Source\PSoC4/cyfitter_cfg.c **** 		/* UDB_PA_3 Starting address: CYDEV_UDB_PA3_BASE */
 433:Generated_Source\PSoC4/cyfitter_cfg.c **** 		CY_SET_REG32((void *)(CYDEV_UDB_PA3_BASE), 0x00990000u);
 714              		.loc 1 433 0
 715 01f2 224B     		ldr	r3, .L29+32
 716 01f4 9922     		movs	r2, #153
 717 01f6 1204     		lsls	r2, r2, #16
 718 01f8 1A60     		str	r2, [r3]
 434:Generated_Source\PSoC4/cyfitter_cfg.c **** 
 435:Generated_Source\PSoC4/cyfitter_cfg.c **** 		/* Enable UDB array and digital routing */
 436:Generated_Source\PSoC4/cyfitter_cfg.c **** 		CY_SET_XTND_REG8((void *)CYREG_UDB_UDBIF_WAIT_CFG, (uint8)((CY_GET_XTND_REG8((void *)CYREG_UDB_UD
 719              		.loc 1 436 0
 720 01fa 214A     		ldr	r2, .L29+36
 721 01fc 204B     		ldr	r3, .L29+36
 722 01fe 1B78     		ldrb	r3, [r3]
 723 0200 DBB2     		uxtb	r3, r3
 724 0202 3C21     		movs	r1, #60
 725 0204 8B43     		bics	r3, r1
 726 0206 DBB2     		uxtb	r3, r3
 727 0208 1421     		movs	r1, #20
 728 020a 0B43     		orrs	r3, r1
 729 020c DBB2     		uxtb	r3, r3
 730 020e 1370     		strb	r3, [r2]
 437:Generated_Source\PSoC4/cyfitter_cfg.c **** 		CY_SET_XTND_REG8((void *)CYREG_UDB_UDBIF_BANK_CTL, (uint8)(CY_GET_XTND_REG8((void *)CYREG_UDB_UDB
 731              		.loc 1 437 0
 732 0210 1C4A     		ldr	r2, .L29+40
 733 0212 1C4B     		ldr	r3, .L29+40
 734 0214 1B78     		ldrb	r3, [r3]
 735 0216 DBB2     		uxtb	r3, r3
 736 0218 1621     		movs	r1, #22
 737 021a 0B43     		orrs	r3, r1
 738 021c DBB2     		uxtb	r3, r3
 739 021e 1370     		strb	r3, [r2]
 740              	.LBE3:
 438:Generated_Source\PSoC4/cyfitter_cfg.c **** 	}
 439:Generated_Source\PSoC4/cyfitter_cfg.c **** 
 440:Generated_Source\PSoC4/cyfitter_cfg.c **** 	/* Perform second pass device configuration. These items must be configured in specific order afte
 441:Generated_Source\PSoC4/cyfitter_cfg.c **** 	/* IOPINS0_0 Starting address: CYDEV_GPIO_PRT0_BASE */
 442:Generated_Source\PSoC4/cyfitter_cfg.c **** 	CY_SET_REG32((void *)(CYDEV_GPIO_PRT0_BASE), 0x00000030u);
 741              		.loc 1 442 0
 742 0220 194B     		ldr	r3, .L29+44
 743 0222 3022     		movs	r2, #48
 744 0224 1A60     		str	r2, [r3]
 443:Generated_Source\PSoC4/cyfitter_cfg.c **** 	CY_SET_REG32((void *)(CYREG_GPIO_PRT0_PC), 0x00DA4000u);
 745              		.loc 1 443 0
 746 0226 194B     		ldr	r3, .L29+48
 747 0228 194A     		ldr	r2, .L29+52
 748 022a 1A60     		str	r2, [r3]
 444:Generated_Source\PSoC4/cyfitter_cfg.c **** 
ARM GAS  C:\Users\d4hhm\AppData\Local\Temp\ccL7RPka.s 			page 22


 445:Generated_Source\PSoC4/cyfitter_cfg.c **** 	/* IOPINS0_3 Starting address: CYDEV_GPIO_PRT3_BASE */
 446:Generated_Source\PSoC4/cyfitter_cfg.c **** 	CY_SET_REG32((void *)(CYDEV_GPIO_PRT3_BASE), 0x00000090u);
 749              		.loc 1 446 0
 750 022c 194B     		ldr	r3, .L29+56
 751 022e 9022     		movs	r2, #144
 752 0230 1A60     		str	r2, [r3]
 447:Generated_Source\PSoC4/cyfitter_cfg.c **** 	CY_SET_REG32((void *)(CYREG_GPIO_PRT3_PC), 0x00006000u);
 753              		.loc 1 447 0
 754 0232 194B     		ldr	r3, .L29+60
 755 0234 C022     		movs	r2, #192
 756 0236 D201     		lsls	r2, r2, #7
 757 0238 1A60     		str	r2, [r3]
 448:Generated_Source\PSoC4/cyfitter_cfg.c **** 	CY_SET_REG32((void *)(CYREG_GPIO_PRT3_PC2), 0x00000090u);
 758              		.loc 1 448 0
 759 023a 184B     		ldr	r3, .L29+64
 760 023c 9022     		movs	r2, #144
 761 023e 1A60     		str	r2, [r3]
 449:Generated_Source\PSoC4/cyfitter_cfg.c **** 
 450:Generated_Source\PSoC4/cyfitter_cfg.c **** 	/* IOPINS0_4 Starting address: CYDEV_GPIO_PRT4_BASE */
 451:Generated_Source\PSoC4/cyfitter_cfg.c **** 	CY_SET_REG32((void *)(CYDEV_GPIO_PRT4_BASE), 0x00000001u);
 762              		.loc 1 451 0
 763 0240 174B     		ldr	r3, .L29+68
 764 0242 0122     		movs	r2, #1
 765 0244 1A60     		str	r2, [r3]
 452:Generated_Source\PSoC4/cyfitter_cfg.c **** 	CY_SET_REG32((void *)(CYREG_GPIO_PRT4_PC2), 0x00000001u);
 766              		.loc 1 452 0
 767 0246 174B     		ldr	r3, .L29+72
 768 0248 0122     		movs	r2, #1
 769 024a 1A60     		str	r2, [r3]
 453:Generated_Source\PSoC4/cyfitter_cfg.c **** 
 454:Generated_Source\PSoC4/cyfitter_cfg.c **** 
 455:Generated_Source\PSoC4/cyfitter_cfg.c **** 	/* Setup clocks based on selections from Clock DWR */
 456:Generated_Source\PSoC4/cyfitter_cfg.c **** 	ClockSetup();
 770              		.loc 1 456 0
 771 024c FFF7D8FE 		bl	ClockSetup
 457:Generated_Source\PSoC4/cyfitter_cfg.c **** 
 458:Generated_Source\PSoC4/cyfitter_cfg.c **** 	/* Perform basic analog initialization to defaults */
 459:Generated_Source\PSoC4/cyfitter_cfg.c **** 	AnalogSetDefault();
 772              		.loc 1 459 0
 773 0250 FFF7FEFF 		bl	AnalogSetDefault
 460:Generated_Source\PSoC4/cyfitter_cfg.c **** 
 461:Generated_Source\PSoC4/cyfitter_cfg.c **** }
 774              		.loc 1 461 0
 775 0254 C046     		nop
 776 0256 BD46     		mov	sp, r7
 777 0258 02B0     		add	sp, sp, #8
 778              		@ sp needed
 779 025a 80BD     		pop	{r7, pc}
 780              	.L30:
 781              		.align	2
 782              	.L29:
 783 025c 6CF02E40 		.word	1076818028
 784 0260 00000000 		.word	cfg_memset_list.4923
 785 0264 18000000 		.word	cy_cfg_data_table.4918
 786 0268 0C000000 		.word	cy_cfg_addr_table.4917
 787 026c 14000B40 		.word	1074462740
 788 0270 00000240 		.word	1073872896
ARM GAS  C:\Users\d4hhm\AppData\Local\Temp\ccL7RPka.s 			page 23


 789 0274 0000EEEE 		.word	-286392320
 790 0278 00500F40 		.word	1074745344
 791 027c 30500F40 		.word	1074745392
 792 0280 01700F40 		.word	1074753537
 793 0284 00700F40 		.word	1074753536
 794 0288 00000440 		.word	1074003968
 795 028c 08000440 		.word	1074003976
 796 0290 0040DA00 		.word	14303232
 797 0294 00030440 		.word	1074004736
 798 0298 08030440 		.word	1074004744
 799 029c 18030440 		.word	1074004760
 800 02a0 00040440 		.word	1074004992
 801 02a4 18040440 		.word	1074005016
 802              		.cfi_endproc
 803              	.LFE10:
 804              		.size	cyfitter_cfg, .-cyfitter_cfg
 805              		.section	.rodata
 806              		.align	2
 807              		.type	cfg_memset_list.4923, %object
 808              		.size	cfg_memset_list.4923, 12
 809              	cfg_memset_list.4923:
 810 0000 00300F40 		.word	1074737152
 811 0004 0004     		.short	1024
 812 0006 00400F40 		.4byte	1074741248
 813 000a 0004     		.short	1024
 814              		.align	2
 815              		.type	cy_cfg_addr_table.4917, %object
 816              		.size	cy_cfg_addr_table.4917, 12
 817              	cy_cfg_addr_table.4917:
 818 000c 04320F40 		.word	1074737668
 819 0010 03330F40 		.word	1074737923
 820 0014 06410F40 		.word	1074741510
 821              		.align	2
 822              		.type	cy_cfg_data_table.4918, %object
 823              		.size	cy_cfg_data_table.4918, 26
 824              	cy_cfg_data_table.4918:
 825 0018 38       		.byte	56
 826 0019 80       		.byte	-128
 827 001a 3E       		.byte	62
 828 001b 40       		.byte	64
 829 001c 58       		.byte	88
 830 001d 04       		.byte	4
 831 001e 5F       		.byte	95
 832 001f 01       		.byte	1
 833 0020 1F       		.byte	31
 834 0021 80       		.byte	-128
 835 0022 83       		.byte	-125
 836 0023 80       		.byte	-128
 837 0024 87       		.byte	-121
 838 0025 80       		.byte	-128
 839 0026 3B       		.byte	59
 840 0027 02       		.byte	2
 841 0028 3F       		.byte	63
 842 0029 02       		.byte	2
 843 002a 83       		.byte	-125
 844 002b 01       		.byte	1
 845 002c 87       		.byte	-121
ARM GAS  C:\Users\d4hhm\AppData\Local\Temp\ccL7RPka.s 			page 24


 846 002d 01       		.byte	1
 847 002e CE       		.byte	-50
 848 002f C0       		.byte	-64
 849 0030 E6       		.byte	-26
 850 0031 30       		.byte	48
 851              		.text
 852              	.Letext0:
 853              		.file 2 "c:\\program files (x86)\\cypress\\psoc creator\\4.2\\psoc creator\\import\\gnu\\arm\\5.4.
 854              		.file 3 "Generated_Source\\PSoC4\\cytypes.h"