ARM GAS  C:\Users\d4hhm\AppData\Local\Temp\cc3RUcFc.s 			page 1


   1              		.syntax unified
   2              		.cpu cortex-m0
   3              		.fpu softvfp
   4              		.eabi_attribute 20, 1
   5              		.eabi_attribute 21, 1
   6              		.eabi_attribute 23, 3
   7              		.eabi_attribute 24, 1
   8              		.eabi_attribute 25, 1
   9              		.eabi_attribute 26, 1
  10              		.eabi_attribute 30, 6
  11              		.eabi_attribute 34, 0
  12              		.eabi_attribute 18, 4
  13              		.thumb
  14              		.syntax unified
  15              		.file	"VL6180x.c"
  16              		.text
  17              	.Ltext0:
  18              		.cfi_sections	.debug_frame
  19              		.section	.text.VL6180x_WriteByte,"ax",%progbits
  20              		.align	2
  21              		.global	VL6180x_WriteByte
  22              		.code	16
  23              		.thumb_func
  24              		.type	VL6180x_WriteByte, %function
  25              	VL6180x_WriteByte:
  26              	.LFB35:
  27              		.file 1 "VL6180x.c"
   1:VL6180x.c     **** /*VL6180x.c*/
   2:VL6180x.c     **** #include "VL6180x.h"
   3:VL6180x.c     **** #include <math.h>
   4:VL6180x.c     **** 
   5:VL6180x.c     **** //****************************************************************************//
   6:VL6180x.c     **** //WriteByte„Å®ReadByte„Å´Èñ¢„Åó„Å¶„ÅØ„ÄÅBME280„ÅØÊõ∏„ÅçËæº„Åø„Å´„Çà„ÇäË§áÈõë„Å™„Ç≥„Éº„Éâ„ÅåÂøÖË¶Å„Å
   7:VL6180x.c     **** //„É©„Ç§„Éñ„É©„É™„ÅåÂ≠òÂú®„Åó„Å¶„ÅÑ„Çã„Åü„ÇÅÂà•„ÄÖ„ÅÆÈñ¢Êï∞„ÅßÂãï„Åã„Åó„Å¶„ÅÑ„Çã
   8:VL6180x.c     **** //***************************************************************************//
   9:VL6180x.c     **** 
  10:VL6180x.c     **** void VL6180x_WriteByte(uint16 reg,uint8 data) {
  28              		.loc 1 10 0
  29              		.cfi_startproc
  30              		@ args = 0, pretend = 0, frame = 32
  31              		@ frame_needed = 1, uses_anonymous_args = 0
  32 0000 80B5     		push	{r7, lr}
  33              		.cfi_def_cfa_offset 8
  34              		.cfi_offset 7, -8
  35              		.cfi_offset 14, -4
  36 0002 88B0     		sub	sp, sp, #32
  37              		.cfi_def_cfa_offset 40
  38 0004 00AF     		add	r7, sp, #0
  39              		.cfi_def_cfa_register 7
  40 0006 0200     		movs	r2, r0
  41 0008 BB1D     		adds	r3, r7, #6
  42 000a 1A80     		strh	r2, [r3]
  43 000c 7B1D     		adds	r3, r7, #5
  44 000e 0A1C     		adds	r2, r1, #0
  45 0010 1A70     		strb	r2, [r3]
  11:VL6180x.c     ****     
  12:VL6180x.c     ****     uint8 data_write[3];
ARM GAS  C:\Users\d4hhm\AppData\Local\Temp\cc3RUcFc.s 			page 2


  13:VL6180x.c     ****     uint8 SlaveAddress = addr;
  46              		.loc 1 13 0
  47 0012 1F23     		movs	r3, #31
  48 0014 FB18     		adds	r3, r7, r3
  49 0016 2922     		movs	r2, #41
  50 0018 1A70     		strb	r2, [r3]
  14:VL6180x.c     ****     data_write[0] = (reg >> 8) & 0xFF; // MSB of register address 
  51              		.loc 1 14 0
  52 001a BB1D     		adds	r3, r7, #6
  53 001c 1B88     		ldrh	r3, [r3]
  54 001e 1B0A     		lsrs	r3, r3, #8
  55 0020 9BB2     		uxth	r3, r3
  56 0022 DAB2     		uxtb	r2, r3
  57 0024 1823     		movs	r3, #24
  58 0026 FB18     		adds	r3, r7, r3
  59 0028 1A70     		strb	r2, [r3]
  15:VL6180x.c     ****     data_write[1] = reg & 0xFF; // LSB of register address 
  60              		.loc 1 15 0
  61 002a BB1D     		adds	r3, r7, #6
  62 002c 1B88     		ldrh	r3, [r3]
  63 002e DAB2     		uxtb	r2, r3
  64 0030 1823     		movs	r3, #24
  65 0032 FB18     		adds	r3, r7, r3
  66 0034 5A70     		strb	r2, [r3, #1]
  16:VL6180x.c     ****     data_write[2] = data & 0xFF;
  67              		.loc 1 16 0
  68 0036 1823     		movs	r3, #24
  69 0038 FB18     		adds	r3, r7, r3
  70 003a 7A1D     		adds	r2, r7, #5
  71 003c 1278     		ldrb	r2, [r2]
  72 003e 9A70     		strb	r2, [r3, #2]
  17:VL6180x.c     ****     char out[10];
  18:VL6180x.c     ****     
  19:VL6180x.c     ****     uint8 temp;
  20:VL6180x.c     ****     
  21:VL6180x.c     ****     SCB_1_I2CMasterClearStatus();
  73              		.loc 1 21 0
  74 0040 FFF7FEFF 		bl	SCB_1_I2CMasterClearStatus
  22:VL6180x.c     ****     temp = SCB_1_I2CMasterWriteBuf(addr,data_write,3,SCB_1_I2C_MODE_COMPLETE_XFER);
  75              		.loc 1 22 0
  76 0044 1823     		movs	r3, #24
  77 0046 F918     		adds	r1, r7, r3
  78 0048 0023     		movs	r3, #0
  79 004a 0322     		movs	r2, #3
  80 004c 2920     		movs	r0, #41
  81 004e FFF7FEFF 		bl	SCB_1_I2CMasterWriteBuf
  82 0052 0200     		movs	r2, r0
  83 0054 1E23     		movs	r3, #30
  84 0056 FB18     		adds	r3, r7, r3
  85 0058 1A70     		strb	r2, [r3]
  86              	.L2:
  23:VL6180x.c     ****     
  24:VL6180x.c     ****     while (temp != SCB_1_I2C_MSTR_NO_ERROR);
  87              		.loc 1 24 0 discriminator 1
  88 005a 1E23     		movs	r3, #30
  89 005c FB18     		adds	r3, r7, r3
  90 005e 1B78     		ldrb	r3, [r3]
ARM GAS  C:\Users\d4hhm\AppData\Local\Temp\cc3RUcFc.s 			page 3


  91 0060 002B     		cmp	r3, #0
  92 0062 FAD1     		bne	.L2
  25:VL6180x.c     ****     while(SCB_1_I2CMasterStatus() & SCB_1_I2C_MSTAT_XFER_INP);
  93              		.loc 1 25 0
  94 0064 C046     		nop
  95              	.L3:
  96              		.loc 1 25 0 is_stmt 0 discriminator 1
  97 0066 FFF7FEFF 		bl	SCB_1_I2CMasterStatus
  98 006a 0200     		movs	r2, r0
  99 006c 0423     		movs	r3, #4
 100 006e 1340     		ands	r3, r2
 101 0070 F9D1     		bne	.L3
  26:VL6180x.c     ****     temp = SCB_1_I2CMasterClearStatus();
 102              		.loc 1 26 0 is_stmt 1
 103 0072 FFF7FEFF 		bl	SCB_1_I2CMasterClearStatus
 104 0076 0200     		movs	r2, r0
 105 0078 1E23     		movs	r3, #30
 106 007a FB18     		adds	r3, r7, r3
 107 007c 1A70     		strb	r2, [r3]
  27:VL6180x.c     ****     
  28:VL6180x.c     **** }
 108              		.loc 1 28 0
 109 007e C046     		nop
 110 0080 BD46     		mov	sp, r7
 111 0082 08B0     		add	sp, sp, #32
 112              		@ sp needed
 113 0084 80BD     		pop	{r7, pc}
 114              		.cfi_endproc
 115              	.LFE35:
 116              		.size	VL6180x_WriteByte, .-VL6180x_WriteByte
 117 0086 C046     		.section	.text.VL6180x_ReadByte,"ax",%progbits
 118              		.align	2
 119              		.global	VL6180x_ReadByte
 120              		.code	16
 121              		.thumb_func
 122              		.type	VL6180x_ReadByte, %function
 123              	VL6180x_ReadByte:
 124              	.LFB36:
  29:VL6180x.c     **** 
  30:VL6180x.c     **** //****************************************************************************//
  31:VL6180x.c     **** // 16„Éì„ÉÉ„Éà„ÅÆ„É¨„Ç∏„Çπ„Çø„Ç¢„Éâ„É¨„Çπ„Çí2„Éê„Ç§„Éà„Å´ÂàÜÂâ≤„Åó„ÄÅ
  32:VL6180x.c     **** //ÂøÖË¶Å„Å™„É¨„Ç∏„Çπ„Çø„Ç¢„Éâ„É¨„Çπ„ÇíVL6180„Å´Êõ∏„ÅçËæº„Åø„ÄÅ„Éá„Éº„Çø„ÇíË™≠„ÅøÂá∫„Åô„ÄÇ
  33:VL6180x.c     **** //***************************************************************************//
  34:VL6180x.c     **** uint8 VL6180x_ReadByte(uint8_t reg) {
 125              		.loc 1 34 0
 126              		.cfi_startproc
 127              		@ args = 0, pretend = 0, frame = 32
 128              		@ frame_needed = 1, uses_anonymous_args = 0
 129 0000 80B5     		push	{r7, lr}
 130              		.cfi_def_cfa_offset 8
 131              		.cfi_offset 7, -8
 132              		.cfi_offset 14, -4
 133 0002 88B0     		sub	sp, sp, #32
 134              		.cfi_def_cfa_offset 40
 135 0004 00AF     		add	r7, sp, #0
 136              		.cfi_def_cfa_register 7
 137 0006 0200     		movs	r2, r0
ARM GAS  C:\Users\d4hhm\AppData\Local\Temp\cc3RUcFc.s 			page 4


 138 0008 FB1D     		adds	r3, r7, #7
 139 000a 1A70     		strb	r2, [r3]
  35:VL6180x.c     ****     uint8 data_write[2]; 
  36:VL6180x.c     ****     uint8 data_read[1];
  37:VL6180x.c     ****     uint8 SlaveAddress = addr;
 140              		.loc 1 37 0
 141 000c 1F23     		movs	r3, #31
 142 000e FB18     		adds	r3, r7, r3
 143 0010 2922     		movs	r2, #41
 144 0012 1A70     		strb	r2, [r3]
  38:VL6180x.c     ****     uint8_t result;
  39:VL6180x.c     ****     char out[10];
  40:VL6180x.c     ****     uint8 temp;
  41:VL6180x.c     ****     
  42:VL6180x.c     ****     data_write[0] = (reg >> 8) & 0xFF; // MSB of register address 
 145              		.loc 1 42 0
 146 0014 1C23     		movs	r3, #28
 147 0016 FB18     		adds	r3, r7, r3
 148 0018 0022     		movs	r2, #0
 149 001a 1A70     		strb	r2, [r3]
  43:VL6180x.c     ****     data_write[1] = reg & 0xFF; // LSB of register address
 150              		.loc 1 43 0
 151 001c 1C23     		movs	r3, #28
 152 001e FB18     		adds	r3, r7, r3
 153 0020 FA1D     		adds	r2, r7, #7
 154 0022 1278     		ldrb	r2, [r2]
 155 0024 5A70     		strb	r2, [r3, #1]
  44:VL6180x.c     ****     
  45:VL6180x.c     ****     SCB_1_I2CMasterClearStatus();
 156              		.loc 1 45 0
 157 0026 FFF7FEFF 		bl	SCB_1_I2CMasterClearStatus
  46:VL6180x.c     ****     temp = SCB_1_I2CMasterWriteBuf(addr,data_write,2,SCB_1_I2C_MODE_COMPLETE_XFER);
 158              		.loc 1 46 0
 159 002a 1C23     		movs	r3, #28
 160 002c F918     		adds	r1, r7, r3
 161 002e 0023     		movs	r3, #0
 162 0030 0222     		movs	r2, #2
 163 0032 2920     		movs	r0, #41
 164 0034 FFF7FEFF 		bl	SCB_1_I2CMasterWriteBuf
 165 0038 0200     		movs	r2, r0
 166 003a 1E23     		movs	r3, #30
 167 003c FB18     		adds	r3, r7, r3
 168 003e 1A70     		strb	r2, [r3]
 169              	.L5:
  47:VL6180x.c     ****     
  48:VL6180x.c     ****     while (temp != SCB_1_I2C_MSTR_NO_ERROR);
 170              		.loc 1 48 0 discriminator 1
 171 0040 1E23     		movs	r3, #30
 172 0042 FB18     		adds	r3, r7, r3
 173 0044 1B78     		ldrb	r3, [r3]
 174 0046 002B     		cmp	r3, #0
 175 0048 FAD1     		bne	.L5
  49:VL6180x.c     ****     while(SCB_1_I2CMasterStatus() & SCB_1_I2C_MSTAT_XFER_INP);
 176              		.loc 1 49 0
 177 004a C046     		nop
 178              	.L6:
 179              		.loc 1 49 0 is_stmt 0 discriminator 1
ARM GAS  C:\Users\d4hhm\AppData\Local\Temp\cc3RUcFc.s 			page 5


 180 004c FFF7FEFF 		bl	SCB_1_I2CMasterStatus
 181 0050 0200     		movs	r2, r0
 182 0052 0423     		movs	r3, #4
 183 0054 1340     		ands	r3, r2
 184 0056 F9D1     		bne	.L6
  50:VL6180x.c     ****     temp = SCB_1_I2CMasterClearStatus();
 185              		.loc 1 50 0 is_stmt 1
 186 0058 FFF7FEFF 		bl	SCB_1_I2CMasterClearStatus
 187 005c 0200     		movs	r2, r0
 188 005e 1E23     		movs	r3, #30
 189 0060 FB18     		adds	r3, r7, r3
 190 0062 1A70     		strb	r2, [r3]
  51:VL6180x.c     **** 
  52:VL6180x.c     ****     temp = SCB_1_I2CMasterReadBuf(SlaveAddress,data_read,1,SCB_1_I2C_MODE_COMPLETE_XFER);
 191              		.loc 1 52 0
 192 0064 1F23     		movs	r3, #31
 193 0066 FB18     		adds	r3, r7, r3
 194 0068 1878     		ldrb	r0, [r3]
 195 006a 1823     		movs	r3, #24
 196 006c F918     		adds	r1, r7, r3
 197 006e 0023     		movs	r3, #0
 198 0070 0122     		movs	r2, #1
 199 0072 FFF7FEFF 		bl	SCB_1_I2CMasterReadBuf
 200 0076 0200     		movs	r2, r0
 201 0078 1E23     		movs	r3, #30
 202 007a FB18     		adds	r3, r7, r3
 203 007c 1A70     		strb	r2, [r3]
 204              	.L7:
  53:VL6180x.c     ****     while (temp != SCB_1_I2C_MSTR_NO_ERROR);
 205              		.loc 1 53 0 discriminator 1
 206 007e 1E23     		movs	r3, #30
 207 0080 FB18     		adds	r3, r7, r3
 208 0082 1B78     		ldrb	r3, [r3]
 209 0084 002B     		cmp	r3, #0
 210 0086 FAD1     		bne	.L7
  54:VL6180x.c     ****     while(SCB_1_I2CMasterStatus() & SCB_1_I2C_MSTAT_XFER_INP);
 211              		.loc 1 54 0
 212 0088 C046     		nop
 213              	.L8:
 214              		.loc 1 54 0 is_stmt 0 discriminator 1
 215 008a FFF7FEFF 		bl	SCB_1_I2CMasterStatus
 216 008e 0200     		movs	r2, r0
 217 0090 0423     		movs	r3, #4
 218 0092 1340     		ands	r3, r2
 219 0094 F9D1     		bne	.L8
  55:VL6180x.c     ****     temp = SCB_1_I2CMasterClearStatus();
 220              		.loc 1 55 0 is_stmt 1
 221 0096 FFF7FEFF 		bl	SCB_1_I2CMasterClearStatus
 222 009a 0200     		movs	r2, r0
 223 009c 1E23     		movs	r3, #30
 224 009e FB18     		adds	r3, r7, r3
 225 00a0 1A70     		strb	r2, [r3]
  56:VL6180x.c     ****     return data_read[0];
 226              		.loc 1 56 0
 227 00a2 1823     		movs	r3, #24
 228 00a4 FB18     		adds	r3, r7, r3
 229 00a6 1B78     		ldrb	r3, [r3]
ARM GAS  C:\Users\d4hhm\AppData\Local\Temp\cc3RUcFc.s 			page 6


  57:VL6180x.c     ****      
  58:VL6180x.c     **** }
 230              		.loc 1 58 0
 231 00a8 1800     		movs	r0, r3
 232 00aa BD46     		mov	sp, r7
 233 00ac 08B0     		add	sp, sp, #32
 234              		@ sp needed
 235 00ae 80BD     		pop	{r7, pc}
 236              		.cfi_endproc
 237              	.LFE36:
 238              		.size	VL6180x_ReadByte, .-VL6180x_ReadByte
 239              		.section	.text.VL6180_Init,"ax",%progbits
 240              		.align	2
 241              		.global	VL6180_Init
 242              		.code	16
 243              		.thumb_func
 244              		.type	VL6180_Init, %function
 245              	VL6180_Init:
 246              	.LFB37:
  59:VL6180x.c     **** 
  60:VL6180x.c     **** //***************************************************************************//
  61:VL6180x.c     **** // ÂêÑ„É¨„Ç∏„Çπ„Çø„ÇíÂàùÊúüÂåñ
  62:VL6180x.c     **** //***************************************************************************//
  63:VL6180x.c     **** 
  64:VL6180x.c     **** int VL6180_Init() {
 247              		.loc 1 64 0
 248              		.cfi_startproc
 249              		@ args = 0, pretend = 0, frame = 16
 250              		@ frame_needed = 1, uses_anonymous_args = 0
 251 0000 90B5     		push	{r4, r7, lr}
 252              		.cfi_def_cfa_offset 12
 253              		.cfi_offset 4, -12
 254              		.cfi_offset 7, -8
 255              		.cfi_offset 14, -4
 256 0002 85B0     		sub	sp, sp, #20
 257              		.cfi_def_cfa_offset 32
 258 0004 00AF     		add	r7, sp, #0
 259              		.cfi_def_cfa_register 7
  65:VL6180x.c     **** uint8 reset;
  66:VL6180x.c     **** uint8 reset_16;
  67:VL6180x.c     **** char out[10];
  68:VL6180x.c     **** reset = VL6180x_ReadByte(0x016);
 260              		.loc 1 68 0
 261 0006 0F23     		movs	r3, #15
 262 0008 FC18     		adds	r4, r7, r3
 263 000a 1620     		movs	r0, #22
 264 000c FFF7FEFF 		bl	VL6180x_ReadByte
 265 0010 0300     		movs	r3, r0
 266 0012 2370     		strb	r3, [r4]
  69:VL6180x.c     ****  
  70:VL6180x.c     **** if (reset==0x01){  // check to see has it be Initialised already
 267              		.loc 1 70 0
 268 0014 0F23     		movs	r3, #15
 269 0016 FB18     		adds	r3, r7, r3
 270 0018 1B78     		ldrb	r3, [r3]
 271 001a 012B     		cmp	r3, #1
 272 001c 00D0     		beq	.LCB213
ARM GAS  C:\Users\d4hhm\AppData\Local\Temp\cc3RUcFc.s 			page 7


 273 001e BDE0     		b	.L11	@long jump
 274              	.LCB213:
  71:VL6180x.c     ****        
  72:VL6180x.c     ****         //ÂêÑ„É¨„Ç∏„Çπ„Çø„ÅÆÂàùÊúüÂåñ***********************************//
  73:VL6180x.c     ****         VL6180x_WriteByte(0x207, 0x01);
 275              		.loc 1 73 0
 276 0020 614B     		ldr	r3, .L13
 277 0022 0121     		movs	r1, #1
 278 0024 1800     		movs	r0, r3
 279 0026 FFF7FEFF 		bl	VL6180x_WriteByte
  74:VL6180x.c     ****         VL6180x_WriteByte(0x208, 0x01);
 280              		.loc 1 74 0
 281 002a 8223     		movs	r3, #130
 282 002c 9B00     		lsls	r3, r3, #2
 283 002e 0121     		movs	r1, #1
 284 0030 1800     		movs	r0, r3
 285 0032 FFF7FEFF 		bl	VL6180x_WriteByte
  75:VL6180x.c     ****         VL6180x_WriteByte(0x096, 0x00);
 286              		.loc 1 75 0
 287 0036 0021     		movs	r1, #0
 288 0038 9620     		movs	r0, #150
 289 003a FFF7FEFF 		bl	VL6180x_WriteByte
  76:VL6180x.c     ****         VL6180x_WriteByte(0x097, 0xFD); // RANGE_SCALER = 253
 290              		.loc 1 76 0
 291 003e FD21     		movs	r1, #253
 292 0040 9720     		movs	r0, #151
 293 0042 FFF7FEFF 		bl	VL6180x_WriteByte
  77:VL6180x.c     ****         VL6180x_WriteByte(0x0E3, 0x00);
 294              		.loc 1 77 0
 295 0046 0021     		movs	r1, #0
 296 0048 E320     		movs	r0, #227
 297 004a FFF7FEFF 		bl	VL6180x_WriteByte
  78:VL6180x.c     ****         VL6180x_WriteByte(0x0E4, 0x04);
 298              		.loc 1 78 0
 299 004e 0421     		movs	r1, #4
 300 0050 E420     		movs	r0, #228
 301 0052 FFF7FEFF 		bl	VL6180x_WriteByte
  79:VL6180x.c     ****         VL6180x_WriteByte(0x0E5, 0x02);
 302              		.loc 1 79 0
 303 0056 0221     		movs	r1, #2
 304 0058 E520     		movs	r0, #229
 305 005a FFF7FEFF 		bl	VL6180x_WriteByte
  80:VL6180x.c     ****         VL6180x_WriteByte(0x0E6, 0x01);
 306              		.loc 1 80 0
 307 005e 0121     		movs	r1, #1
 308 0060 E620     		movs	r0, #230
 309 0062 FFF7FEFF 		bl	VL6180x_WriteByte
  81:VL6180x.c     ****         VL6180x_WriteByte(0x0E7, 0x03);
 310              		.loc 1 81 0
 311 0066 0321     		movs	r1, #3
 312 0068 E720     		movs	r0, #231
 313 006a FFF7FEFF 		bl	VL6180x_WriteByte
  82:VL6180x.c     ****         VL6180x_WriteByte(0x0F5, 0x02);
 314              		.loc 1 82 0
 315 006e 0221     		movs	r1, #2
 316 0070 F520     		movs	r0, #245
 317 0072 FFF7FEFF 		bl	VL6180x_WriteByte
ARM GAS  C:\Users\d4hhm\AppData\Local\Temp\cc3RUcFc.s 			page 8


  83:VL6180x.c     ****         VL6180x_WriteByte(0x0D9, 0x05);
 318              		.loc 1 83 0
 319 0076 0521     		movs	r1, #5
 320 0078 D920     		movs	r0, #217
 321 007a FFF7FEFF 		bl	VL6180x_WriteByte
  84:VL6180x.c     ****         VL6180x_WriteByte(0x0DB, 0xCE);
 322              		.loc 1 84 0
 323 007e CE21     		movs	r1, #206
 324 0080 DB20     		movs	r0, #219
 325 0082 FFF7FEFF 		bl	VL6180x_WriteByte
  85:VL6180x.c     ****         VL6180x_WriteByte(0x0DC, 0x03);
 326              		.loc 1 85 0
 327 0086 0321     		movs	r1, #3
 328 0088 DC20     		movs	r0, #220
 329 008a FFF7FEFF 		bl	VL6180x_WriteByte
  86:VL6180x.c     ****         VL6180x_WriteByte(0x0DD, 0xF8);
 330              		.loc 1 86 0
 331 008e F821     		movs	r1, #248
 332 0090 DD20     		movs	r0, #221
 333 0092 FFF7FEFF 		bl	VL6180x_WriteByte
  87:VL6180x.c     ****         VL6180x_WriteByte(0x09F, 0x00);
 334              		.loc 1 87 0
 335 0096 0021     		movs	r1, #0
 336 0098 9F20     		movs	r0, #159
 337 009a FFF7FEFF 		bl	VL6180x_WriteByte
  88:VL6180x.c     ****         VL6180x_WriteByte(0x0A3, 0x3C);
 338              		.loc 1 88 0
 339 009e 3C21     		movs	r1, #60
 340 00a0 A320     		movs	r0, #163
 341 00a2 FFF7FEFF 		bl	VL6180x_WriteByte
  89:VL6180x.c     ****         VL6180x_WriteByte(0x0B7, 0x00);
 342              		.loc 1 89 0
 343 00a6 0021     		movs	r1, #0
 344 00a8 B720     		movs	r0, #183
 345 00aa FFF7FEFF 		bl	VL6180x_WriteByte
  90:VL6180x.c     ****         VL6180x_WriteByte(0x0BB, 0x3C);
 346              		.loc 1 90 0
 347 00ae 3C21     		movs	r1, #60
 348 00b0 BB20     		movs	r0, #187
 349 00b2 FFF7FEFF 		bl	VL6180x_WriteByte
  91:VL6180x.c     ****         VL6180x_WriteByte(0x0B2, 0x09);
 350              		.loc 1 91 0
 351 00b6 0921     		movs	r1, #9
 352 00b8 B220     		movs	r0, #178
 353 00ba FFF7FEFF 		bl	VL6180x_WriteByte
  92:VL6180x.c     ****         VL6180x_WriteByte(0x0CA, 0x09);
 354              		.loc 1 92 0
 355 00be 0921     		movs	r1, #9
 356 00c0 CA20     		movs	r0, #202
 357 00c2 FFF7FEFF 		bl	VL6180x_WriteByte
  93:VL6180x.c     ****         VL6180x_WriteByte(0x198, 0x01);
 358              		.loc 1 93 0
 359 00c6 CC23     		movs	r3, #204
 360 00c8 5B00     		lsls	r3, r3, #1
 361 00ca 0121     		movs	r1, #1
 362 00cc 1800     		movs	r0, r3
 363 00ce FFF7FEFF 		bl	VL6180x_WriteByte
ARM GAS  C:\Users\d4hhm\AppData\Local\Temp\cc3RUcFc.s 			page 9


  94:VL6180x.c     ****         VL6180x_WriteByte(0x1B0, 0x17);
 364              		.loc 1 94 0
 365 00d2 D823     		movs	r3, #216
 366 00d4 5B00     		lsls	r3, r3, #1
 367 00d6 1721     		movs	r1, #23
 368 00d8 1800     		movs	r0, r3
 369 00da FFF7FEFF 		bl	VL6180x_WriteByte
  95:VL6180x.c     ****         VL6180x_WriteByte(0x1AD, 0x00);
 370              		.loc 1 95 0
 371 00de AE23     		movs	r3, #174
 372 00e0 FF33     		adds	r3, r3, #255
 373 00e2 0021     		movs	r1, #0
 374 00e4 1800     		movs	r0, r3
 375 00e6 FFF7FEFF 		bl	VL6180x_WriteByte
  96:VL6180x.c     ****         VL6180x_WriteByte(0x0FF, 0x05);
 376              		.loc 1 96 0
 377 00ea 0521     		movs	r1, #5
 378 00ec FF20     		movs	r0, #255
 379 00ee FFF7FEFF 		bl	VL6180x_WriteByte
  97:VL6180x.c     ****         VL6180x_WriteByte(0x100, 0x05);
 380              		.loc 1 97 0
 381 00f2 8023     		movs	r3, #128
 382 00f4 5B00     		lsls	r3, r3, #1
 383 00f6 0521     		movs	r1, #5
 384 00f8 1800     		movs	r0, r3
 385 00fa FFF7FEFF 		bl	VL6180x_WriteByte
  98:VL6180x.c     ****         VL6180x_WriteByte(0x199, 0x05);
 386              		.loc 1 98 0
 387 00fe 9A23     		movs	r3, #154
 388 0100 FF33     		adds	r3, r3, #255
 389 0102 0521     		movs	r1, #5
 390 0104 1800     		movs	r0, r3
 391 0106 FFF7FEFF 		bl	VL6180x_WriteByte
  99:VL6180x.c     ****         VL6180x_WriteByte(0x1A6, 0x1B);
 392              		.loc 1 99 0
 393 010a D323     		movs	r3, #211
 394 010c 5B00     		lsls	r3, r3, #1
 395 010e 1B21     		movs	r1, #27
 396 0110 1800     		movs	r0, r3
 397 0112 FFF7FEFF 		bl	VL6180x_WriteByte
 100:VL6180x.c     ****         VL6180x_WriteByte(0x1AC, 0x3E);
 398              		.loc 1 100 0
 399 0116 D623     		movs	r3, #214
 400 0118 5B00     		lsls	r3, r3, #1
 401 011a 3E21     		movs	r1, #62
 402 011c 1800     		movs	r0, r3
 403 011e FFF7FEFF 		bl	VL6180x_WriteByte
 101:VL6180x.c     ****         VL6180x_WriteByte(0x1A7, 0x1F);
 404              		.loc 1 101 0
 405 0122 A823     		movs	r3, #168
 406 0124 FF33     		adds	r3, r3, #255
 407 0126 1F21     		movs	r1, #31
 408 0128 1800     		movs	r0, r3
 409 012a FFF7FEFF 		bl	VL6180x_WriteByte
 102:VL6180x.c     ****         VL6180x_WriteByte(0x030, 0x00);
 410              		.loc 1 102 0
 411 012e 0021     		movs	r1, #0
ARM GAS  C:\Users\d4hhm\AppData\Local\Temp\cc3RUcFc.s 			page 10


 412 0130 3020     		movs	r0, #48
 413 0132 FFF7FEFF 		bl	VL6180x_WriteByte
 103:VL6180x.c     ****         
 104:VL6180x.c     ****         VL6180x_WriteByte(0x0011, 0x10); // Enables polling for ‚ÄòNew Sample ready‚Äô
 414              		.loc 1 104 0
 415 0136 1021     		movs	r1, #16
 416 0138 1120     		movs	r0, #17
 417 013a FFF7FEFF 		bl	VL6180x_WriteByte
 105:VL6180x.c     ****                                  // when measurement completes
 106:VL6180x.c     ****         VL6180x_WriteByte(0x010a, 0x30); // Set the averaging sample period
 418              		.loc 1 106 0
 419 013e 8523     		movs	r3, #133
 420 0140 5B00     		lsls	r3, r3, #1
 421 0142 3021     		movs	r1, #48
 422 0144 1800     		movs	r0, r3
 423 0146 FFF7FEFF 		bl	VL6180x_WriteByte
 107:VL6180x.c     ****                                  // (compromise between lower noise and
 108:VL6180x.c     ****                                  // increased execution time)
 109:VL6180x.c     **** 
 110:VL6180x.c     ****         VL6180x_WriteByte(0x003f, 0x46); // Sets the light and dark gain (upper
 424              		.loc 1 110 0
 425 014a 4621     		movs	r1, #70
 426 014c 3F20     		movs	r0, #63
 427 014e FFF7FEFF 		bl	VL6180x_WriteByte
 111:VL6180x.c     ****                                  // nibble). Dark gain should not be
 112:VL6180x.c     ****                                  // changed.
 113:VL6180x.c     ****         VL6180x_WriteByte(0x0031, 0xFF); // sets the # of range measurements after
 428              		.loc 1 113 0
 429 0152 FF21     		movs	r1, #255
 430 0154 3120     		movs	r0, #49
 431 0156 FFF7FEFF 		bl	VL6180x_WriteByte
 114:VL6180x.c     ****                                  // which auto calibration of system is
 115:VL6180x.c     ****                                  // performed
 116:VL6180x.c     **** 
 117:VL6180x.c     ****         VL6180x_WriteByte(0x0041, 0x63); // Set ALS integration time to 100ms
 432              		.loc 1 117 0
 433 015a 6321     		movs	r1, #99
 434 015c 4120     		movs	r0, #65
 435 015e FFF7FEFF 		bl	VL6180x_WriteByte
 118:VL6180x.c     ****         VL6180x_WriteByte(0x02E,0x01);
 436              		.loc 1 118 0
 437 0162 0121     		movs	r1, #1
 438 0164 2E20     		movs	r0, #46
 439 0166 FFF7FEFF 		bl	VL6180x_WriteByte
 119:VL6180x.c     ****         VL6180x_WriteByte(0x01B,0x09);
 440              		.loc 1 119 0
 441 016a 0921     		movs	r1, #9
 442 016c 1B20     		movs	r0, #27
 443 016e FFF7FEFF 		bl	VL6180x_WriteByte
 120:VL6180x.c     ****         VL6180x_WriteByte(0x03E,0x31);
 444              		.loc 1 120 0
 445 0172 3121     		movs	r1, #49
 446 0174 3E20     		movs	r0, #62
 447 0176 FFF7FEFF 		bl	VL6180x_WriteByte
 121:VL6180x.c     ****         VL6180x_WriteByte(0x014,0x24);
 448              		.loc 1 121 0
 449 017a 2421     		movs	r1, #36
ARM GAS  C:\Users\d4hhm\AppData\Local\Temp\cc3RUcFc.s 			page 11


 450 017c 1420     		movs	r0, #20
 451 017e FFF7FEFF 		bl	VL6180x_WriteByte
 122:VL6180x.c     ****         VL6180x_WriteByte(0x01C,0x31);
 452              		.loc 1 122 0
 453 0182 3121     		movs	r1, #49
 454 0184 1C20     		movs	r0, #28
 455 0186 FFF7FEFF 		bl	VL6180x_WriteByte
 123:VL6180x.c     ****         VL6180x_WriteByte(0x2A3,0);
 456              		.loc 1 123 0
 457 018a 084B     		ldr	r3, .L13+4
 458 018c 0021     		movs	r1, #0
 459 018e 1800     		movs	r0, r3
 460 0190 FFF7FEFF 		bl	VL6180x_WriteByte
 124:VL6180x.c     ****         //***************************************************//
 125:VL6180x.c     **** 
 126:VL6180x.c     ****         /*status„ÇíÂ§âÊõ¥*/
 127:VL6180x.c     ****         VL6180x_WriteByte(0x016, 0);
 461              		.loc 1 127 0
 462 0194 0021     		movs	r1, #0
 463 0196 1620     		movs	r0, #22
 464 0198 FFF7FEFF 		bl	VL6180x_WriteByte
 465              	.L11:
 128:VL6180x.c     ****         
 129:VL6180x.c     ****     }
 130:VL6180x.c     ****     return 0; 
 466              		.loc 1 130 0
 467 019c 0023     		movs	r3, #0
 131:VL6180x.c     **** }
 468              		.loc 1 131 0
 469 019e 1800     		movs	r0, r3
 470 01a0 BD46     		mov	sp, r7
 471 01a2 05B0     		add	sp, sp, #20
 472              		@ sp needed
 473 01a4 90BD     		pop	{r4, r7, pc}
 474              	.L14:
 475 01a6 C046     		.align	2
 476              	.L13:
 477 01a8 07020000 		.word	519
 478 01ac A3020000 		.word	675
 479              		.cfi_endproc
 480              	.LFE37:
 481              		.size	VL6180_Init, .-VL6180_Init
 482              		.section	.text.VL6180_Start_Range,"ax",%progbits
 483              		.align	2
 484              		.global	VL6180_Start_Range
 485              		.code	16
 486              		.thumb_func
 487              		.type	VL6180_Start_Range, %function
 488              	VL6180_Start_Range:
 489              	.LFB38:
 132:VL6180x.c     **** 
 133:VL6180x.c     **** //***************************************************************************//
 134:VL6180x.c     **** // single shot mode„Åß„É¨„É≥„Ç∏Ê∏¨ÂÆö„ÇíÈñãÂßã 
 135:VL6180x.c     **** //***************************************************************************//
 136:VL6180x.c     **** 
 137:VL6180x.c     **** int VL6180_Start_Range() {
 490              		.loc 1 137 0
ARM GAS  C:\Users\d4hhm\AppData\Local\Temp\cc3RUcFc.s 			page 12


 491              		.cfi_startproc
 492              		@ args = 0, pretend = 0, frame = 0
 493              		@ frame_needed = 1, uses_anonymous_args = 0
 494 0000 80B5     		push	{r7, lr}
 495              		.cfi_def_cfa_offset 8
 496              		.cfi_offset 7, -8
 497              		.cfi_offset 14, -4
 498 0002 00AF     		add	r7, sp, #0
 499              		.cfi_def_cfa_register 7
 138:VL6180x.c     ****     VL6180x_WriteByte(0x018,0x01);
 500              		.loc 1 138 0
 501 0004 0121     		movs	r1, #1
 502 0006 1820     		movs	r0, #24
 503 0008 FFF7FEFF 		bl	VL6180x_WriteByte
 139:VL6180x.c     ****     return 0; 
 504              		.loc 1 139 0
 505 000c 0023     		movs	r3, #0
 140:VL6180x.c     **** }
 506              		.loc 1 140 0
 507 000e 1800     		movs	r0, r3
 508 0010 BD46     		mov	sp, r7
 509              		@ sp needed
 510 0012 80BD     		pop	{r7, pc}
 511              		.cfi_endproc
 512              	.LFE38:
 513              		.size	VL6180_Start_Range, .-VL6180_Start_Range
 514              		.section	.text.VL6180_Poll_Range,"ax",%progbits
 515              		.align	2
 516              		.global	VL6180_Poll_Range
 517              		.code	16
 518              		.thumb_func
 519              		.type	VL6180_Poll_Range, %function
 520              	VL6180_Poll_Range:
 521              	.LFB39:
 141:VL6180x.c     **** 
 142:VL6180x.c     **** //***************************************************************************//
 143:VL6180x.c     **** // Êñ∞„Åó„ÅÑ„Çµ„É≥„Éó„É´„ÅÆÊ∫ñÂÇô„Åå„Åß„Åç„Å¶„ÅÑ„Çã„Åã„Å©„ÅÜ„Åã„ÅÆÁ¢∫Ë™ç
 144:VL6180x.c     **** //***************************************************************************//
 145:VL6180x.c     **** 
 146:VL6180x.c     **** int VL6180_Poll_Range() {
 522              		.loc 1 146 0
 523              		.cfi_startproc
 524              		@ args = 0, pretend = 0, frame = 16
 525              		@ frame_needed = 1, uses_anonymous_args = 0
 526 0000 90B5     		push	{r4, r7, lr}
 527              		.cfi_def_cfa_offset 12
 528              		.cfi_offset 4, -12
 529              		.cfi_offset 7, -8
 530              		.cfi_offset 14, -4
 531 0002 85B0     		sub	sp, sp, #20
 532              		.cfi_def_cfa_offset 32
 533 0004 00AF     		add	r7, sp, #0
 534              		.cfi_def_cfa_register 7
 147:VL6180x.c     ****     char status;
 148:VL6180x.c     ****     char range_status;
 149:VL6180x.c     ****     char out[10];
 150:VL6180x.c     ****     // status„Çí„ÉÅ„Çß„ÉÉ„ÇØ„Åô„Çã
ARM GAS  C:\Users\d4hhm\AppData\Local\Temp\cc3RUcFc.s 			page 13


 151:VL6180x.c     ****     status = VL6180x_ReadByte(0x04f); 
 535              		.loc 1 151 0
 536 0006 0E23     		movs	r3, #14
 537 0008 FC18     		adds	r4, r7, r3
 538 000a 4F20     		movs	r0, #79
 539 000c FFF7FEFF 		bl	VL6180x_ReadByte
 540 0010 0300     		movs	r3, r0
 541 0012 2370     		strb	r3, [r4]
 152:VL6180x.c     ****     range_status = status & 0x07;
 542              		.loc 1 152 0
 543 0014 0F23     		movs	r3, #15
 544 0016 FB18     		adds	r3, r7, r3
 545 0018 0E22     		movs	r2, #14
 546 001a BA18     		adds	r2, r7, r2
 547 001c 1278     		ldrb	r2, [r2]
 548 001e 0721     		movs	r1, #7
 549 0020 0A40     		ands	r2, r1
 550 0022 1A70     		strb	r2, [r3]
 153:VL6180x.c     ****     
 154:VL6180x.c     ****     // Ê∏¨ÂÆöÊ∫ñÂÇô„ÅåÂÆå‰∫Ü„Åô„Çã„Åæ„Åß„ÇíÂæÖ„Å§
 155:VL6180x.c     ****     while (range_status != 0x04) {
 551              		.loc 1 155 0
 552 0024 11E0     		b	.L18
 553              	.L19:
 156:VL6180x.c     ****         status = VL6180x_ReadByte(0x04f); 
 554              		.loc 1 156 0
 555 0026 0E23     		movs	r3, #14
 556 0028 FC18     		adds	r4, r7, r3
 557 002a 4F20     		movs	r0, #79
 558 002c FFF7FEFF 		bl	VL6180x_ReadByte
 559 0030 0300     		movs	r3, r0
 560 0032 2370     		strb	r3, [r4]
 157:VL6180x.c     ****         range_status = status & 0x07; 
 561              		.loc 1 157 0
 562 0034 0F23     		movs	r3, #15
 563 0036 FB18     		adds	r3, r7, r3
 564 0038 0E22     		movs	r2, #14
 565 003a BA18     		adds	r2, r7, r2
 566 003c 1278     		ldrb	r2, [r2]
 567 003e 0721     		movs	r1, #7
 568 0040 0A40     		ands	r2, r1
 569 0042 1A70     		strb	r2, [r3]
 158:VL6180x.c     ****         CyDelay(1); 
 570              		.loc 1 158 0
 571 0044 0120     		movs	r0, #1
 572 0046 FFF7FEFF 		bl	CyDelay
 573              	.L18:
 155:VL6180x.c     ****         status = VL6180x_ReadByte(0x04f); 
 574              		.loc 1 155 0
 575 004a 0F23     		movs	r3, #15
 576 004c FB18     		adds	r3, r7, r3
 577 004e 1B78     		ldrb	r3, [r3]
 578 0050 042B     		cmp	r3, #4
 579 0052 E8D1     		bne	.L19
 159:VL6180x.c     ****     }
 160:VL6180x.c     ****       
 161:VL6180x.c     ****     return 0; 
ARM GAS  C:\Users\d4hhm\AppData\Local\Temp\cc3RUcFc.s 			page 14


 580              		.loc 1 161 0
 581 0054 0023     		movs	r3, #0
 162:VL6180x.c     **** 
 163:VL6180x.c     **** }
 582              		.loc 1 163 0
 583 0056 1800     		movs	r0, r3
 584 0058 BD46     		mov	sp, r7
 585 005a 05B0     		add	sp, sp, #20
 586              		@ sp needed
 587 005c 90BD     		pop	{r4, r7, pc}
 588              		.cfi_endproc
 589              	.LFE39:
 590              		.size	VL6180_Poll_Range, .-VL6180_Poll_Range
 591 005e C046     		.section	.text.VL6180_Read_Range,"ax",%progbits
 592              		.align	2
 593              		.global	VL6180_Read_Range
 594              		.code	16
 595              		.thumb_func
 596              		.type	VL6180_Read_Range, %function
 597              	VL6180_Read_Range:
 598              	.LFB40:
 164:VL6180x.c     **** 
 165:VL6180x.c     **** //***************************************************************************//
 166:VL6180x.c     **** //range result(mm)„ÇíË™≠„ÅøÂá∫„Åô 
 167:VL6180x.c     **** //***************************************************************************//
 168:VL6180x.c     **** 
 169:VL6180x.c     **** int VL6180_Read_Range() {
 599              		.loc 1 169 0
 600              		.cfi_startproc
 601              		@ args = 0, pretend = 0, frame = 8
 602              		@ frame_needed = 1, uses_anonymous_args = 0
 603 0000 80B5     		push	{r7, lr}
 604              		.cfi_def_cfa_offset 8
 605              		.cfi_offset 7, -8
 606              		.cfi_offset 14, -4
 607 0002 82B0     		sub	sp, sp, #8
 608              		.cfi_def_cfa_offset 16
 609 0004 00AF     		add	r7, sp, #0
 610              		.cfi_def_cfa_register 7
 170:VL6180x.c     ****     int range; 
 171:VL6180x.c     ****     range=VL6180x_ReadByte(0x062); 
 611              		.loc 1 171 0
 612 0006 6220     		movs	r0, #98
 613 0008 FFF7FEFF 		bl	VL6180x_ReadByte
 614 000c 0300     		movs	r3, r0
 615 000e 7B60     		str	r3, [r7, #4]
 172:VL6180x.c     ****     return range;
 616              		.loc 1 172 0
 617 0010 7B68     		ldr	r3, [r7, #4]
 173:VL6180x.c     **** }
 618              		.loc 1 173 0
 619 0012 1800     		movs	r0, r3
 620 0014 BD46     		mov	sp, r7
 621 0016 02B0     		add	sp, sp, #8
 622              		@ sp needed
 623 0018 80BD     		pop	{r7, pc}
 624              		.cfi_endproc
ARM GAS  C:\Users\d4hhm\AppData\Local\Temp\cc3RUcFc.s 			page 15


 625              	.LFE40:
 626              		.size	VL6180_Read_Range, .-VL6180_Read_Range
 627 001a C046     		.section	.text.VL6180_Clear_Interrupts,"ax",%progbits
 628              		.align	2
 629              		.global	VL6180_Clear_Interrupts
 630              		.code	16
 631              		.thumb_func
 632              		.type	VL6180_Clear_Interrupts, %function
 633              	VL6180_Clear_Interrupts:
 634              	.LFB41:
 174:VL6180x.c     **** //***************************************************************************//
 175:VL6180x.c     **** // clear interrupts 
 176:VL6180x.c     **** //***************************************************************************//
 177:VL6180x.c     **** 
 178:VL6180x.c     **** int VL6180_Clear_Interrupts() {
 635              		.loc 1 178 0
 636              		.cfi_startproc
 637              		@ args = 0, pretend = 0, frame = 0
 638              		@ frame_needed = 1, uses_anonymous_args = 0
 639 0000 80B5     		push	{r7, lr}
 640              		.cfi_def_cfa_offset 8
 641              		.cfi_offset 7, -8
 642              		.cfi_offset 14, -4
 643 0002 00AF     		add	r7, sp, #0
 644              		.cfi_def_cfa_register 7
 179:VL6180x.c     ****     VL6180x_WriteByte(0x015,0x07);
 645              		.loc 1 179 0
 646 0004 0721     		movs	r1, #7
 647 0006 1520     		movs	r0, #21
 648 0008 FFF7FEFF 		bl	VL6180x_WriteByte
 180:VL6180x.c     ****     return 0; 
 649              		.loc 1 180 0
 650 000c 0023     		movs	r3, #0
 181:VL6180x.c     **** }...
 651              		.loc 1 181 0
 652 000e 1800     		movs	r0, r3
 653 0010 BD46     		mov	sp, r7
 654              		@ sp needed
 655 0012 80BD     		pop	{r7, pc}
 656              		.cfi_endproc
 657              	.LFE41:
 658              		.size	VL6180_Clear_Interrupts, .-VL6180_Clear_Interrupts
 659              		.text
 660              	.Letext0:
 661              		.file 2 "c:\\program files (x86)\\cypress\\psoc creator\\4.2\\psoc creator\\import\\gnu\\arm\\5.4.
 662              		.file 3 "c:\\program files (x86)\\cypress\\psoc creator\\4.2\\psoc creator\\import\\gnu\\arm\\5.4.
 663              		.file 4 "Generated_Source\\PSoC4/cytypes.h"