ARM GAS  C:\Users\d4hhm\AppData\Local\Temp\cc3RUcFc.s 			page 1


   1              		.syntax unified
   2              		.cpu cortex-m0
   3              		.fpu softvfp
   4              		.eabi_attribute 20, 1
   5              		.eabi_attribute 21, 1
   6              		.eabi_attribute 23, 3
   7              		.eabi_attribute 24, 1
   8              		.eabi_attribute 25, 1
   9              		.eabi_attribute 26, 1
  10              		.eabi_attribute 30, 6
  11              		.eabi_attribute 34, 0
  12              		.eabi_attribute 18, 4
  13              		.thumb
  14              		.syntax unified
  15              		.file	"VL6180x.c"
  16              		.text
  17              	.Ltext0:
  18              		.cfi_sections	.debug_frame
  19              		.section	.text.VL6180x_WriteByte,"ax",%progbits
  20              		.align	2
  21              		.global	VL6180x_WriteByte
  22              		.code	16
  23              		.thumb_func
  24              		.type	VL6180x_WriteByte, %function
  25              	VL6180x_WriteByte:
  26              	.LFB35:
  27              		.file 1 "VL6180x.c"
   1:VL6180x.c     **** /*VL6180x.c*/
   2:VL6180x.c     **** #include "VL6180x.h"
   3:VL6180x.c     **** #include <math.h>
   4:VL6180x.c     **** 
   5:VL6180x.c     **** //****************************************************************************//
   6:VL6180x.c     **** //WriteByte„Å®ReadByte„Å´Èñ¢„Åó„Å¶„ÅØ„ÄÅBME280„ÅØÊõ∏„ÅçËæº„Åø„Å´„Çà„ÇäË§áÈõë„Å™„Ç≥„Éº„Éâ„ÅåÂøÖË¶Å„Å
   7:VL6180x.c     **** //„É©„Ç§„Éñ„É©„É™„ÅåÂ≠òÂú®„Åó„Å¶„ÅÑ„Çã„Åü„ÇÅÂà•„ÄÖ„ÅÆÈñ¢Êï∞„ÅßÂãï„Åã„Åó„Å¶„ÅÑ„Çã
   8:VL6180x.c     **** //***************************************************************************//
   9:VL6180x.c     **** 
  10:VL6180x.c     **** void VL6180x_WriteByte(uint16 reg,uint8 data) {
  28              		.loc 1 10 0
  29              		.cfi_startproc
  30              		@ args = 0, pretend = 0, frame = 32
  31              		@ frame_needed = 1, uses_anonymous_args = 0
  32 0000 80B5     		push	{r7, lr}
  33              		.cfi_def_cfa_offset 8
  34              		.cfi_offset 7, -8
  35              		.cfi_offset 14, -4
  36 0002 88B0     		sub	sp, sp, #32
  37              		.cfi_def_cfa_offset 40
  38 0004 00AF     		add	r7, sp, #0
  39              		.cfi_def_cfa_register 7
  40 0006 0200     		movs	r2, r0
  41 0008 BB1D     		adds	r3, r7, #6
  42 000a 1A80     		strh	r2, [r3]
  43 000c 7B1D     		adds	r3, r7, #5
  44 000e 0A1C     		adds	r2, r1, #0
  45 0010 1A70     		strb	r2, [r3]
  11:VL6180x.c     ****     
  12:VL6180x.c     ****     uint8 data_write[3];
ARM GAS  C:\Users\d4hhm\AppData\Local\Temp\cc3RUcFc.s 			page 2


  13:VL6180x.c     ****     uint8 SlaveAddress = addr;
  46              		.loc 1 13 0
  47 0012 1F23     		movs	r3, #31
  48 0014 FB18     		adds	r3, r7, r3
  49 0016 2922     		movs	r2, #41
  50 0018 1A70     		strb	r2, [r3]
  14:VL6180x.c     ****     data_write[0] = (reg >> 8) & 0xFF; // MSB of register address 
  51              		.loc 1 14 0
  52 001a BB1D     		adds	r3, r7, #6
  53 001c 1B88     		ldrh	r3, [r3]
  54 001e 1B0A     		lsrs	r3, r3, #8
  55 0020 9BB2     		uxth	r3, r3
  56 0022 DAB2     		uxtb	r2, r3
  57 0024 1823     		movs	r3, #24
  58 0026 FB18     		adds	r3, r7, r3
  59 0028 1A70     		strb	r2, [r3]
  15:VL6180x.c     ****     data_write[1] = reg & 0xFF; // LSB of register address 
  60              		.loc 1 15 0
  61 002a BB1D     		adds	r3, r7, #6
  62 002c 1B88     		ldrh	r3, [r3]
  63 002e DAB2     		uxtb	r2, r3
  64 0030 1823     		movs	r3, #24
  65 0032 FB18     		adds	r3, r7, r3
  66 0034 5A70     		strb	r2, [r3, #1]
  16:VL6180x.c     ****     data_write[2] = data & 0xFF;
  67              		.loc 1 16 0
  68 0036 1823     		movs	r3, #24
  69 0038 FB18     		adds	r3, r7, r3
  70 003a 7A1D     		adds	r2, r7, #5
  71 003c 1278     		ldrb	r2, [r2]
  72 003e 9A70     		strb	r2, [r3, #2]
  17:VL6180x.c     ****     char out[10];
  18:VL6180x.c     ****     
  19:VL6180x.c     ****     uint8 temp;
  20:VL6180x.c     ****     
  21:VL6180x.c     ****     SCB_1_I2CMasterClearStatus();
  73              		.loc 1 21 0
  74 0040 FFF7FEFF 		bl	SCB_1_I2CMasterClearStatus
  22:VL6180x.c     ****     temp = SCB_1_I2CMasterWriteBuf(addr,data_write,3,SCB_1_I2C_MODE_COMPLETE_XFER);
  75              		.loc 1 22 0
  76 0044 1823     		movs	r3, #24
  77 0046 F918     		adds	r1, r7, r3
  78 0048 0023     		movs	r3, #0
  79 004a 0322     		movs	r2, #3
  80 004c 2920     		movs	r0, #41
  81 004e FFF7FEFF 		bl	SCB_1_I2CMasterWriteBuf
  82 0052 0200     		movs	r2, r0
  83 0054 1E23     		movs	r3, #30
  84 0056 FB18     		adds	r3, r7, r3
  85 0058 1A70     		strb	r2, [r3]
  86              	.L2:
  23:VL6180x.c     ****     
  24:VL6180x.c     ****     while (temp != SCB_1_I2C_MSTR_NO_ERROR);
  87              		.loc 1 24 0 discriminator 1
  88 005a 1E23     		movs	r3, #30
  89 005c FB18     		adds	r3, r7, r3
  90 005e 1B78     		ldrb	r3, [r3]
ARM GAS  C:\Users\d4hhm\AppData\Local\Temp\cc3RUcFc.s 			page 3


  91 0060 002B     		cmp	r3, #0
  92 0062 FAD1     		bne	.L2
  25:VL6180x.c     ****     while(SCB_1_I2CMasterStatus() & SCB_1_I2C_MSTAT_XFER_INP);
  93              		.loc 1 25 0
  94 0064 C046     		nop
  95              	.L3:
  96              		.loc 1 25 0 is_stmt 0 discriminator 1
  97 0066 FFF7FEFF 		bl	SCB_1_I2CMasterStatus
  98 006a 0200     		movs	r2, r0
  99 006c 0423     		movs	r3, #4
 100 006e 1340     		ands	r3, r2
 101 0070 F9D1     		bne	.L3
  26:VL6180x.c     ****     temp = SCB_1_I2CMasterClearStatus();
 102              		.loc 1 26 0 is_stmt 1
 103 0072 FFF7FEFF 		bl	SCB_1_I2CMasterClearStatus
 104 0076 0200     		movs	r2, r0
 105 0078 1E23     		movs	r3, #30
 106 007a FB18     		adds	r3, r7, r3
 107 007c 1A70     		strb	r2, [r3]
  27:VL6180x.c     ****     
  28:VL6180x.c     **** }
 108              		.loc 1 28 0
 109 007e C046     		nop
 110 0080 BD46     		mov	sp, r7
 111 0082 08B0     		add	sp, sp, #32
 112              		@ sp needed
 113 0084 80BD     		pop	{r7, pc}
 114              		.cfi_endproc
 115              	.LFE35:
 116              		.size	VL6180x_WriteByte, .-VL6180x_WriteByte
 117 0086 C046     		.section	.text.VL6180x_ReadByte,"ax",%progbits
 118              		.align	2
 119              		.global	VL6180x_ReadByte
 120              		.code	16
 121              		.thumb_func
 122              		.type	VL6180x_ReadByte, %function
 123              	VL6180x_ReadByte:
 124              	.LFB36:
  29:VL6180x.c     **** 
  30:VL6180x.c     **** //****************************************************************************//
  31:VL6180x.c     **** // 16„Éì„ÉÉ„Éà„ÅÆ„É¨„Ç∏„Çπ„Çø„Ç¢„Éâ„É¨„Çπ„Çí2„Éê„Ç§„Éà„Å´ÂàÜÂâ≤„Åó„ÄÅ
  32:VL6180x.c     **** //ÂøÖË¶Å„Å™„É¨„Ç∏„Çπ„Çø„Ç¢„Éâ„É¨„Çπ„ÇíVL6180„Å´Êõ∏„ÅçËæº„Åø„ÄÅ„Éá„Éº„Çø„ÇíË™≠„ÅøÂá∫„Åô„ÄÇ
  33:VL6180x.c     **** //***************************************************************************//
  34:VL6180x.c     **** uint8 VL6180x_ReadByte(uint8_t reg) {
 125              		.loc 1 34 0
 126              		.cfi_startproc
 127              		@ args = 0, pretend = 0, frame = 32
 128              		@ frame_needed = 1, uses_anonymous_args = 0
 129 0000 80B5     		push	{r7, lr}
 130              		.cfi_def_cfa_offset 8
 131              		.cfi_offset 7, -8
 132              		.cfi_offset 14, -4
 133 0002 88B0     		sub	sp, sp, #32
 134              		.cfi_def_cfa_offset 40
 135 0004 00AF     		add	r7, sp, #0
 136              		.cfi_def_cfa_register 7
 137 0006 0200     		movs	r2, r0
ARM GAS  C:\Users\d4hhm\AppData\Local\Temp\cc3RUcFc.s 			page 4


 138 0008 FB1D     		adds	r3, r7, #7
 139 000a 1A70     		strb	r2, [r3]
  35:VL6180x.c     ****     uint8 data_write[2]; 
  36:VL6180x.c     ****     uint8 data_read[1];
  37:VL6180x.c     ****     uint8 SlaveAddress = addr;
 140              		.loc 1 37 0
 141 000c 1F23     		movs	r3, #31
 142 000e FB18     		adds	r3, r7, r3
 143 0010 2922     		movs	r2, #41
 144 0012 1A70     		strb	r2, [r3]
  38:VL6180x.c     ****     uint8_t result;
  39:VL6180x.c     ****     char out[10];
  40:VL6180x.c     ****     uint8 temp;
  41:VL6180x.c     ****     
  42:VL6180x.c     ****     data_write[0] = (reg >> 8) & 0xFF; // MSB of register address 
 145              		.loc 1 42 0
 146 0014 1C23     		movs	r3, #28
 147 0016 FB18     		adds	r3, r7, r3
 148 0018 0022     		movs	r2, #0
 149 001a 1A70     		strb	r2, [r3]
  43:VL6180x.c     ****     data_write[1] = reg & 0xFF; // LSB of register address
 150              		.loc 1 43 0
 151 001c 1C23     		movs	r3, #28
 152 001e FB18     		adds	r3, r7, r3
 153 0020 FA1D     		adds	r2, r7, #7
 154 0022 1278     		ldrb	r2, [r2]
 155 0024 5A70     		strb	r2, [r3, #1]
  44:VL6180x.c     ****     
  45:VL6180x.c     ****     SCB_1_I2CMasterClearStatus();
 156              		.loc 1 45 0
 157 0026 FFF7FEFF 		bl	SCB_1_I2CMasterClearStatus
  46:VL6180x.c     ****     temp = SCB_1_I2CMasterWriteBuf(addr,data_write,2,SCB_1_I2C_MODE_COMPLETE_XFER);
 158              		.loc 1 46 0
 159 002a 1C23     		movs	r3, #28
 160 002c F918     		adds	r1, r7, r3
 161 002e 0023     		movs	r3, #0
 162 0030 0222     		movs	r2, #2
 163 0032 2920     		movs	r0, #41
 164 0034 FFF7FEFF 		bl	SCB_1_I2CMasterWriteBuf
 165 0038 0200     		movs	r2, r0
 166 003a 1E23     		movs	r3, #30
 167 003c FB18     		adds	r3, r7, r3
 168 003e 1A70     		strb	r2, [r3]
 169              	.L5:
  47:VL6180x.c     ****     
  48:VL6180x.c     ****     while (temp != SCB_1_I2C_MSTR_NO_ERROR);
 170              		.loc 1 48 0 discriminator 1
 171 0040 1E23     		movs	r3, #30
 172 0042 FB18     		adds	r3, r7, r3
 173 0044 1B78     		ldrb	r3, [r3]
 174 0046 002B     		cmp	r3, #0
 175 0048 FAD1     		bne	.L5
  49:VL6180x.c     ****     while(SCB_1_I2CMasterStatus() & SCB_1_I2C_MSTAT_XFER_INP);
 176              		.loc 1 49 0
 177 004a C046     		nop
 178              	.L6:
 179              		.loc 1 49 0 is_stmt 0 discriminator 1
ARM GAS  C:\Users\d4hhm\AppData\Local\Temp\cc3RUcFc.s 			page 5


 180 004c FFF7FEFF 		bl	SCB_1_I2CMasterStatus
 181 0050 0200     		movs	r2, r0
 182 0052 0423     		movs	r3, #4
 183 0054 1340     		ands	r3, r2
 184 0056 F9D1     		bne	.L6
  50:VL6180x.c     ****     temp = SCB_1_I2CMasterClearStatus();
 185              		.loc 1 50 0 is_stmt 1
 186 0058 FFF7FEFF 		bl	SCB_1_I2CMasterClearStatus
 187 005c 0200     		movs	r2, r0
 188 005e 1E23     		movs	r3, #30
 189 0060 FB18     		adds	r3, r7, r3
 190 0062 1A70     		strb	r2, [r3]
  51:VL6180x.c     **** 
  52:VL6180x.c     ****     temp = SCB_1_I2CMasterReadBuf(SlaveAddress,data_read,1,SCB_1_I2C_MODE_COMPLETE_XFER);
 191              		.loc 1 52 0
 192 0064 1F23     		movs	r3, #31
 193 0066 FB18     		adds	r3, r7, r3
 194 0068 1878     		ldrb	r0, [r3]
 195 006a 1823     		movs	r3, #24
 196 006c F918     		adds	r1, r7, r3
 197 006e 0023     		movs	r3, #0
 198 0070 0122     		movs	r2, #1
 199 0072 FFF7FEFF 		bl	SCB_1_I2CMasterReadBuf
 200 0076 0200     		movs	r2, r0
 201 0078 1E23     		movs	r3, #30
 202 007a FB18     		adds	r3, r7, r3
 203 007c 1A70     		strb	r2, [r3]
 204              	.L7:
  53:VL6180x.c     ****     while (temp != SCB_1_I2C_MSTR_NO_ERROR);
 205              		.loc 1 53 0 discriminator 1
 206 007e 1E23     		movs	r3, #30
 207 0080 FB18     		adds	r3, r7, r3
 208 0082 1B78     		ldrb	r3, [r3]
 209 0084 002B     		cmp	r3, #0
 210 0086 FAD1     		bne	.L7
  54:VL6180x.c     ****     while(SCB_1_I2CMasterStatus() & SCB_1_I2C_MSTAT_XFER_INP);
 211              		.loc 1 54 0
 212 0088 C046     		nop
 213              	.L8:
 214              		.loc 1 54 0 is_stmt 0 discriminator 1
 215 008a FFF7FEFF 		bl	SCB_1_I2CMasterStatus
 216 008e 0200     		movs	r2, r0
 217 0090 0423     		movs	r3, #4
 218 0092 1340     		ands	r3, r2
 219 0094 F9D1     		bne	.L8
  55:VL6180x.c     ****     temp = SCB_1_I2CMasterClearStatus();
 220              		.loc 1 55 0 is_stmt 1
 221 0096 FFF7FEFF 		bl	SCB_1_I2CMasterClearStatus
 222 009a 0200     		movs	r2, r0
 223 009c 1E23     		movs	r3, #30
 224 009e FB18     		adds	r3, r7, r3
 225 00a0 1A70     		strb	r2, [r3]
  56:VL6180x.c     ****     return data_read[0];
 226              		.loc 1 56 0
 227 00a2 1823     		movs	r3, #24
 228 00a4 FB18     		adds	r3, r7, r3
 229 00a6 1B78     		ldrb	r3, [r3]
ARM GAS  C:\Users\d4hhm\AppData\Local\Temp\cc3RUcFc.s 			page 6


  57:VL6180x.c     ****      
  58:VL6180x.c     **** }
 230              		.loc 1 58 0
 231 00a8 1800     		movs	r0, r3
 232 00aa BD46     		mov	sp, r7
 233 00ac 08B0     		add	sp, sp, #32
 234              		@ sp needed
 235 00ae 80BD     		pop	{r7, pc}
 236              		.cfi_endproc
 237              	.LFE36:
 238              		.size	VL6180x_ReadByte, .-VL6180x_ReadByte
 239              		.section	.text.VL6180_Init,"ax",%progbits
 240              		.align	2
 241              		.global	VL6180_Init
 242              		.code	16
 243              		.thumb_func
 244              		.type	VL6180_Init, %function
 245              	VL6180_Init:
 246              	.LFB37:
  59:VL6180x.c     **** 
  60:VL6180x.c     **** //***************************************************************************//
  61:VL6180x.c     **** // ÂêÑ„É¨„Ç∏„Çπ„Çø„ÇíÂàùÊúüÂåñ
  62:VL6180x.c     **** //***************************************************************************//
  63:VL6180x.c     **** 
  64:VL6180x.c     **** int VL6180_Init() {
 247              		.loc 1 64 0
 248              		.cfi_startproc
 249              		@ args = 0, pretend = 0, frame = 16
 250              		@ frame_needed = 1, uses_anonymous_args = 0
 251 0000 90B5     		push	{r4, r7, lr}
 252              		.cfi_def_cfa_offset 12
 253              		.cfi_offset 4, -12
 254              		.cfi_offset 7, -8
 255              		.cfi_offset 14, -4
 256 0002 85B0     		sub	sp, sp, #20
 257              		.cfi_def_cfa_offset 32
 258 0004 00AF     		add	r7, sp, #0
 259              		.cfi_def_cfa_register 7
  65:VL6180x.c     **** uint8 reset;
  66:VL6180x.c     **** uint8 reset_16;
  67:VL6180x.c     **** char out[10];
  68:VL6180x.c     **** reset = VL6180x_ReadByte(0x016);
 260              		.loc 1 68 0
 261 0006 0F23     		movs	r3, #15
 262 0008 FC18     		adds	r4, r7, r3
 263 000a 1620     		movs	r0, #22
 264 000c FFF7FEFF 		bl	VL6180x_ReadByte
 265 0010 0300     		movs	r3, r0
 266 0012 2370     		strb	r3, [r4]
  69:VL6180x.c     ****  
  70:VL6180x.c     **** if (reset==0x01){  // check to see has it be Initialised already
 267              		.loc 1 70 0
 268 0014 0F23     		movs	r3, #15
 269 0016 FB18     		adds	r3, r7, r3
 270 0018 1B78     		ldrb	r3, [r3]
 271 001a 012B     		cmp	r3, #1
 272 001c 00D0     		beq	.LCB213
ARM GAS  C:\Users\d4hhm\AppData\Local\Temp\cc3RUcFc.s 			page 7


 273 001e BDE0     		b	.L11	@long jump
 274              	.LCB213:
  71:VL6180x.c     ****        
  72:VL6180x.c     ****         //ÂêÑ„É¨„Ç∏„Çπ„Çø„ÅÆÂàùÊúüÂåñ***********************************//
  73:VL6180x.c     ****         VL6180x_WriteByte(0x207, 0x01);
 275              		.loc 1 73 0
 276 0020 614B     		ldr	r3, .L13
 277 0022 0121     		movs	r1, #1
 278 0024 1800     		movs	r0, r3
 279 0026 FFF7FEFF 		bl	VL6180x_WriteByte
  74:VL6180x.c     ****         VL6180x_WriteByte(0x208, 0x01);
 280              		.loc 1 74 0
 281 002a 8223     		movs	r3, #130
 282 002c 9B00     		lsls	r3, r3, #2
 283 002e 0121     		movs	r1, #1
 284 0030 1800     		movs	r0, r3
 285 0032 FFF7FEFF 		bl	VL6180x_WriteByte
  75:VL6180x.c     ****         VL6180x_WriteByte(0x096, 0x00);
 286              		.loc 1 75 0
 287 0036 0021     		movs	r1, #0
 288 0038 9620     		movs	r0, #150
 289 003a FFF7FEFF 		bl	VL6180x_WriteByte
  76:VL6180x.c     ****         VL6180x_WriteByte(0x097, 0xFD); // RANGE_SCALER = 253
 290              		.loc 1 76 0
 291 003e FD21     		movs	r1, #253
 292 0040 9720     		movs	r0, #151
 293 0042 FFF7FEFF 		bl	VL6180x_WriteByte
  77:VL6180x.c     ****         VL6180x_WriteByte(0x0E3, 0x00);
 294              		.loc 1 77 0
 295 0046 0021     		movs	r1, #0
 296 0048 E320     		movs	r0, #227
 297 004a FFF7FEFF 		bl	VL6180x_WriteByte
  78:VL6180x.c     ****         VL6180x_WriteByte(0x0E4, 0x04);
 298              		.loc 1 78 0
 299 004e 0421     		movs	r1, #4
 300 0050 E420     		movs	r0, #228
 301 0052 FFF7FEFF 		bl	VL6180x_WriteByte
  79:VL6180x.c     ****         VL6180x_WriteByte(0x0E5, 0x02);
 302              		.loc 1 79 0
 303 0056 0221     		movs	r1, #2
 304 0058 E520     		movs	r0, #229
 305 005a FFF7FEFF 		bl	VL6180x_WriteByte
  80:VL6180x.c     ****         VL6180x_WriteByte(0x0E6, 0x01);
 306              		.loc 1 80 0
 307 005e 0121     		movs	r1, #1
 308 0060 E620     		movs	r0, #230
 309 0062 FFF7FEFF 		bl	VL6180x_WriteByte
  81:VL6180x.c     ****         VL6180x_WriteByte(0x0E7, 0x03);
 310              		.loc 1 81 0
 311 0066 0321     		movs	r1, #3
 312 0068 E720     		movs	r0, #231
 313 006a FFF7FEFF 		bl	VL6180x_WriteByte
  82:VL6180x.c     ****         VL6180x_WriteByte(0x0F5, 0x02);
 314              		.loc 1 82 0
 315 006e 0221     		movs	r1, #2
 316 0070 F520     		movs	r0, #245
 317 0072 FFF7FEFF 		bl	VL6180x_WriteByte
ARM GAS  C:\Users\d4hhm\AppData\Local\Temp\cc3RUcFc.s 			page 8


  83:VL6180x.c     ****         VL6180x_WriteByte(0x0D9, 0x05);
 318              		.loc 1 83 0
 319 0076 0521     		movs	r1, #5
 320 0078 D920     		movs	r0, #217
 321 007a FFF7FEFF 		bl	VL6180x_WriteByte
  84:VL6180x.c     ****         VL6180x_WriteByte(0x0DB, 0xCE);
 322              		.loc 1 84 0
 323 007e CE21     		movs	r1, #206
 324 0080 DB20     		movs	r0, #219
 325 0082 FFF7FEFF 		bl	VL6180x_WriteByte
  85:VL6180x.c     ****         VL6180x_WriteByte(0x0DC, 0x03);
 326              		.loc 1 85 0
 327 0086 0321     		movs	r1, #3
 328 0088 DC20     		movs	r0, #220
 329 008a FFF7FEFF 		bl	VL6180x_WriteByte
  86:VL6180x.c     ****         VL6180x_WriteByte(0x0DD, 0xF8);
 330              		.loc 1 86 0
 331 008e F821     		movs	r1, #248
 332 0090 DD20     		movs	r0, #221
 333 0092 FFF7FEFF 		bl	VL6180x_WriteByte
  87:VL6180x.c     ****         VL6180x_WriteByte(0x09F, 0x00);
 334              		.loc 1 87 0
 335 0096 0021     		movs	r1, #0
 336 0098 9F20     		movs	r0, #159
 337 009a FFF7FEFF 		bl	VL6180x_WriteByte
  88:VL6180x.c     ****         VL6180x_WriteByte(0x0A3, 0x3C);
 338              		.loc 1 88 0
 339 009e 3C21     		movs	r1, #60
 340 00a0 A320     		movs	r0, #163
 341 00a2 FFF7FEFF 		bl	VL6180x_WriteByte
  89:VL6180x.c     ****         VL6180x_WriteByte(0x0B7, 0x00);
 342              		.loc 1 89 0
 343 00a6 0021     		movs	r1, #0
 344 00a8 B720     		movs	r0, #183
 345 00aa FFF7FEFF 		bl	VL6180x_WriteByte
  90:VL6180x.c     ****         VL6180x_WriteByte(0x0BB, 0x3C);
 346              		.loc 1 90 0
 347 00ae 3C21     		movs	r1, #60
 348 00b0 BB20     		movs	r0, #187
 349 00b2 FFF7FEFF 		bl	VL6180x_WriteByte
  91:VL6180x.c     ****         VL6180x_WriteByte(0x0B2, 0x09);
 350              		.loc 1 91 0
 351 00b6 0921     		movs	r1, #9
 352 00b8 B220     		movs	r0, #178
 353 00ba FFF7FEFF 		bl	VL6180x_WriteByte
  92:VL6180x.c     ****         VL6180x_WriteByte(0x0CA, 0x09);
 354              		.loc 1 92 0
 355 00be 0921     		movs	r1, #9
 356 00c0 CA20     		movs	r0, #202
 357 00c2 FFF7FEFF 		bl	VL6180x_WriteByte
  93:VL6180x.c     ****         VL6180x_WriteByte(0x198, 0x01);
 358              		.loc 1 93 0
 359 00c6 CC23     		movs	r3, #204
 360 00c8 5B00     		lsls	r3, r3, #1
 361 00ca 0121     		movs	r1, #1
 362 00cc 1800     		movs	r0, r3
 363 00ce FFF7FEFF 		bl	VL6180x_WriteByte
ARM GAS  C:\Users\d4hhm\AppData\Local\Temp\cc3RUcFc.s 			page 9


  94:VL6180x.c     ****         VL6180x_WriteByte(0x1B0, 0x17);
 364              		.loc 1 94 0
 365 00d2 D823     		movs	r3, #216
 366 00d4 5B00     		lsls	r3, r3, #1
 367 00d6 1721     		movs	r1, #23
 368 00d8 1800     		movs	r0, r3
 369 00da FFF7FEFF 		bl	VL6180x_WriteByte
  95:VL6180x.c     ****         VL6180x_WriteByte(0x1AD, 0x00);
 370              		.loc 1 95 0
 371 00de AE23     		movs	r3, #174
 372 00e0 FF33     		adds	r3, r3, #255
 373 00e2 0021     		movs	r1, #0
 374 00e4 1800     		movs	r0, r3
 375 00e6 FFF7FEFF 		bl	VL6180x_WriteByte
  96:VL6180x.c     ****         VL6180x_WriteByte(0x0FF, 0x05);
 376              		.loc 1 96 0
 377 00ea 0521     		movs	r1, #5
 378 00ec FF20     		movs	r0, #255
 379 00ee FFF7FEFF 		bl	VL6180x_WriteByte
  97:VL6180x.c     ****         VL6180x_WriteByte(0x100, 0x05);
 380              		.loc 1 97 0
 381 00f2 8023     		movs	r3, #128
 382 00f4 5B00     		lsls	r3, r3, #1
 383 00f6 0521     		movs	r1, #5
 384 00f8 1800     		movs	r0, r3
 385 00fa FFF7FEFF 		bl	VL6180x_WriteByte
  98:VL6180x.c     ****         VL6180x_WriteByte(0x199, 0x05);
 386              		.loc 1 98 0
 387 00fe 9A23     		movs	r3, #154
 388 0100 FF33     		adds	r3, r3, #255
 389 0102 0521     		movs	r1, #5
 390 0104 1800     		movs	r0, r3
 391 0106 FFF7FEFF 		bl	VL6180x_WriteByte
  99:VL6180x.c     ****         VL6180x_WriteByte(0x1A6, 0x1B);
 392              		.loc 1 99 0
 393 010a D323     		movs	r3, #211
 394 010c 5B00     		lsls	r3, r3, #1
 395 010e 1B21     		movs	r1, #27
 396 0110 1800     		movs	r0, r3
 397 0112 FFF7FEFF 		bl	VL6180x_WriteByte
 100:VL6180x.c     ****         VL6180x_WriteByte(0x1AC, 0x3E);
 398              		.loc 1 100 0
 399 0116 D623     		movs	r3, #214
 400 0118 5B00     		lsls	r3, r3, #1
 401 011a 3E21     		movs	r1, #62
 402 011c 1800     		movs	r0, r3
 403 011e FFF7FEFF 		bl	VL6180x_WriteByte
 101:VL6180x.c     ****         VL6180x_WriteByte(0x1A7, 0x1F);
 404              		.loc 1 101 0
 405 0122 A823     		movs	r3, #168
 406 0124 FF33     		adds	r3, r3, #255
 407 0126 1F21     		movs	r1, #31
 408 0128 1800     		movs	r0, r3
 409 012a FFF7FEFF 		bl	VL6180x_WriteByte
 102:VL6180x.c     ****         VL6180x_WriteByte(0x030, 0x00);
 410              		.loc 1 102 0
 411 012e 0021     		movs	r1, #0
ARM GAS  C:\Users\d4hhm\AppData\Local\Temp\cc3RUcFc.s 			page 10


 412 0130 3020     		movs	r0, #48
 413 0132 FFF7FEFF 		bl	VL6180x_WriteByte
 103:VL6180x.c     ****         
 104:VL6180x.c     ****         VL6180x_WriteByte(0x0011, 0x10); // Enables polling for ‚ÄòNew Sample ready‚Äô
 414              		.loc 1 104 0
 415 0136 1021     		movs	r1, #16
 416 0138 1120     		movs	r0, #17
 417 013a FFF7FEFF 		bl	VL6180x_WriteByte
 105:VL6180x.c     ****                                  // when measurement completes
 106:VL6180x.c     ****         VL6180x_WriteByte(0x010a, 0x30); // Set the averaging sample period
 418              		.loc 1 106 0
 419 013e 8523     		movs	r3, #133
 420 0140 5B00     		lsls	r3, r3, #1
 421 0142 3021     		movs	r1, #48
 422 0144 1800     		movs	r0, r3
 423 0146 FFF7FEFF 		bl	VL6180x_WriteByte
 107:VL6180x.c     ****                                  // (compromise between lower noise and
 108:VL6180x.c     ****                                  // increased execution time)
 109:VL6180x.c     **** 
 110:VL6180x.c     ****         VL6180x_WriteByte(0x003f, 0x46); // Sets the light and dark gain (upper
 424              		.loc 1 110 0
 425 014a 4621     		movs	r1, #70
 426 014c 3F20     		movs	r0, #63
 427 014e FFF7FEFF 		bl	VL6180x_WriteByte
 111:VL6180x.c     ****                                  // nibble). Dark gain should not be
 112:VL6180x.c     ****                                  // changed.
 113:VL6180x.c     ****         VL6180x_WriteByte(0x0031, 0xFF); // sets the # of range measurements after
 428              		.loc 1 113 0
 429 0152 FF21     		movs	r1, #255
 430 0154 3120     		movs	r0, #49
 431 0156 FFF7FEFF 		bl	VL6180x_WriteByte
 114:VL6180x.c     ****                                  // which auto calibration of system is
 115:VL6180x.c     ****                                  // performed
 116:VL6180x.c     **** 
 117:VL6180x.c     ****         VL6180x_WriteByte(0x0041, 0x63); // Set ALS integration time to 100ms
 432              		.loc 1 117 0
 433 015a 6321     		movs	r1, #99
 434 015c 4120     		movs	r0, #65
 435 015e FFF7FEFF 		bl	VL6180x_WriteByte
 118:VL6180x.c     ****         VL6180x_WriteByte(0x02E,0x01);
 436              		.loc 1 118 0
 437 0162 0121     		movs	r1, #1
 438 0164 2E20     		movs	r0, #46
 439 0166 FFF7FEFF 		bl	VL6180x_WriteByte
 119:VL6180x.c     ****         VL6180x_WriteByte(0x01B,0x09);
 440              		.loc 1 119 0
 441 016a 0921     		movs	r1, #9
 442 016c 1B20     		movs	r0, #27
 443 016e FFF7FEFF 		bl	VL6180x_WriteByte
 120:VL6180x.c     ****         VL6180x_WriteByte(0x03E,0x31);
 444              		.loc 1 120 0
 445 0172 3121     		movs	r1, #49
 446 0174 3E20     		movs	r0, #62
 447 0176 FFF7FEFF 		bl	VL6180x_WriteByte
 121:VL6180x.c     ****         VL6180x_WriteByte(0x014,0x24);
 448              		.loc 1 121 0
 449 017a 2421     		movs	r1, #36
ARM GAS  C:\Users\d4hhm\AppData\Local\Temp\cc3RUcFc.s 			page 11


 450 017c 1420     		movs	r0, #20
 451 017e FFF7FEFF 		bl	VL6180x_WriteByte
 122:VL6180x.c     ****         VL6180x_WriteByte(0x01C,0x31);
 452              		.loc 1 122 0
 453 0182 3121     		movs	r1, #49
 454 0184 1C20     		movs	r0, #28
 455 0186 FFF7FEFF 		bl	VL6180x_WriteByte
 123:VL6180x.c     ****         VL6180x_WriteByte(0x2A3,0);
 456              		.loc 1 123 0
 457 018a 084B     		ldr	r3, .L13+4
 458 018c 0021     		movs	r1, #0
 459 018e 1800     		movs	r0, r3
 460 0190 FFF7FEFF 		bl	VL6180x_WriteByte
 124:VL6180x.c     ****         //***************************************************//
 125:VL6180x.c     **** 
 126:VL6180x.c     ****         /*status„ÇíÂ§âÊõ¥*/
 127:VL6180x.c     ****         VL6180x_WriteByte(0x016, 0);
 461              		.loc 1 127 0
 462 0194 0021     		movs	r1, #0
 463 0196 1620     		movs	r0, #22
 464 0198 FFF7FEFF 		bl	VL6180x_WriteByte
 465              	.L11:
 128:VL6180x.c     ****         
 129:VL6180x.c     ****     }
 130:VL6180x.c     ****     return 0; 
 466              		.loc 1 130 0
 467 019c 0023     		movs	r3, #0
 131:VL6180x.c     **** }
 468              		.loc 1 131 0
 469 019e 1800     		movs	r0, r3
 470 01a0 BD46     		mov	sp, r7
 471 01a2 05B0     		add	sp, sp, #20
 472              		@ sp needed
 473 01a4 90BD     		pop	{r4, r7, pc}
 474              	.L14:
 475 01a6 C046     		.align	2
 476              	.L13:
 477 01a8 07020000 		.word	519
 478 01ac A3020000 		.word	675
 479              		.cfi_endproc
 480              	.LFE37:
 481              		.size	VL6180_Init, .-VL6180_Init
 482              		.section	.text.VL6180_Start_Range,"ax",%progbits
 483              		.align	2
 484              		.global	VL6180_Start_Range
 485              		.code	16
 486              		.thumb_func
 487              		.type	VL6180_Start_Range, %function
 488              	VL6180_Start_Range:
 489              	.LFB38:
 132:VL6180x.c     **** 
 133:VL6180x.c     **** //***************************************************************************//
 134:VL6180x.c     **** // single shot mode„Åß„É¨„É≥„Ç∏Ê∏¨ÂÆö„ÇíÈñãÂßã 
 135:VL6180x.c     **** //***************************************************************************//
 136:VL6180x.c     **** 
 137:VL6180x.c     **** int VL6180_Start_Range() {
 490              		.loc 1 137 0
ARM GAS  C:\Users\d4hhm\AppData\Local\Temp\cc3RUcFc.s 			page 12


 491              		.cfi_startproc
 492              		@ args = 0, pretend = 0, frame = 0
 493              		@ frame_needed = 1, uses_anonymous_args = 0
 494 0000 80B5     		push	{r7, lr}
 495              		.cfi_def_cfa_offset 8
 496              		.cfi_offset 7, -8
 497              		.cfi_offset 14, -4
 498 0002 00AF     		add	r7, sp, #0
 499              		.cfi_def_cfa_register 7
 138:VL6180x.c     ****     VL6180x_WriteByte(0x018,0x01);
 500              		.loc 1 138 0
 501 0004 0121     		movs	r1, #1
 502 0006 1820     		movs	r0, #24
 503 0008 FFF7FEFF 		bl	VL6180x_WriteByte
 139:VL6180x.c     ****     return 0; 
 504              		.loc 1 139 0
 505 000c 0023     		movs	r3, #0
 140:VL6180x.c     **** }
 506              		.loc 1 140 0
 507 000e 1800     		movs	r0, r3
 508 0010 BD46     		mov	sp, r7
 509              		@ sp needed
 510 0012 80BD     		pop	{r7, pc}
 511              		.cfi_endproc
 512              	.LFE38:
 513              		.size	VL6180_Start_Range, .-VL6180_Start_Range
 514              		.section	.text.VL6180_Poll_Range,"ax",%progbits
 515              		.align	2
 516              		.global	VL6180_Poll_Range
 517              		.code	16
 518              		.thumb_func
 519              		.type	VL6180_Poll_Range, %function
 520              	VL6180_Poll_Range:
 521              	.LFB39:
 141:VL6180x.c     **** 
 142:VL6180x.c     **** //***************************************************************************//
 143:VL6180x.c     **** // Êñ∞„Åó„ÅÑ„Çµ„É≥„Éó„É´„ÅÆÊ∫ñÂÇô„Åå„Åß„Åç„Å¶„ÅÑ„Çã„Åã„Å©„ÅÜ„Åã„ÅÆÁ¢∫Ë™ç
 144:VL6180x.c     **** //***************************************************************************//
 145:VL6180x.c     **** 
 146:VL6180x.c     **** int VL6180_Poll_Range() {
 522              		.loc 1 146 0
 523              		.cfi_startproc
 524              		@ args = 0, pretend = 0, frame = 16
 525              		@ frame_needed = 1, uses_anonymous_args = 0
 526 0000 90B5     		push	{r4, r7, lr}
 527              		.cfi_def_cfa_offset 12
 528              		.cfi_offset 4, -12
 529              		.cfi_offset 7, -8
 530              		.cfi_offset 14, -4
 531 0002 85B0     		sub	sp, sp, #20
 532              		.cfi_def_cfa_offset 32
 533 0004 00AF     		add	r7, sp, #0
 534              		.cfi_def_cfa_register 7
 147:VL6180x.c     ****     char status;
 148:VL6180x.c     ****     char range_status;
 149:VL6180x.c     ****     char out[10];
 150:VL6180x.c     ****     // status„Çí„ÉÅ„Çß„ÉÉ„ÇØ„Åô„Çã
ARM GAS  C:\Users\d4hhm\AppData\Local\Temp\cc3RUcFc.s 			page 13


 151:VL6180x.c     ****     status = VL6180x_ReadByte(0x04f); 
 535              		.loc 1 151 0
 536 0006 0E23     		movs	r3, #14
 537 0008 FC18     		adds	r4, r7, r3
 538 000a 4F20     		movs	r0, #79
 539 000c FFF7FEFF 		bl	VL6180x_ReadByte
 540 0010 0300     		movs	r3, r0
 541 0012 2370     		strb	r3, [r4]
 152:VL6180x.c     ****     range_status = status & 0x07;
 542              		.loc 1 152 0
 543 0014 0F23     		movs	r3, #15
 544 0016 FB18     		adds	r3, r7, r3
 545 0018 0E22     		movs	r2, #14
 546 001a BA18     		adds	r2, r7, r2
 547 001c 1278     		ldrb	r2, [r2]
 548 001e 0721     		movs	r1, #7
 549 0020 0A40     		ands	r2, r1
 550 0022 1A70     		strb	r2, [r3]
 153:VL6180x.c     ****     
 154:VL6180x.c     ****     // Ê∏¨ÂÆöÊ∫ñÂÇô„ÅåÂÆå‰∫Ü„Åô„Çã„Åæ„Åß„ÇíÂæÖ„Å§
 155:VL6180x.c     ****     while (range_status != 0x04) {
 551              		.loc 1 155 0
 552 0024 11E0     		b	.L18
 553              	.L19:
 156:VL6180x.c     ****         status = VL6180x_ReadByte(0x04f); 
 554              		.loc 1 156 0
 555 0026 0E23     		movs	r3, #14
 556 0028 FC18     		adds	r4, r7, r3
 557 002a 4F20     		movs	r0, #79
 558 002c FFF7FEFF 		bl	VL6180x_ReadByte
 559 0030 0300     		movs	r3, r0
 560 0032 2370     		strb	r3, [r4]
 157:VL6180x.c     ****         range_status = status & 0x07; 
 561              		.loc 1 157 0
 562 0034 0F23     		movs	r3, #15
 563 0036 FB18     		adds	r3, r7, r3
 564 0038 0E22     		movs	r2, #14
 565 003a BA18     		adds	r2, r7, r2
 566 003c 1278     		ldrb	r2, [r2]
 567 003e 0721     		movs	r1, #7
 568 0040 0A40     		ands	r2, r1
 569 0042 1A70     		strb	r2, [r3]
 158:VL6180x.c     ****         CyDelay(1); 
 570              		.loc 1 158 0
 571 0044 0120     		movs	r0, #1
 572 0046 FFF7FEFF 		bl	CyDelay
 573              	.L18:
 155:VL6180x.c     ****         status = VL6180x_ReadByte(0x04f); 
 574              		.loc 1 155 0
 575 004a 0F23     		movs	r3, #15
 576 004c FB18     		adds	r3, r7, r3
 577 004e 1B78     		ldrb	r3, [r3]
 578 0050 042B     		cmp	r3, #4
 579 0052 E8D1     		bne	.L19
 159:VL6180x.c     ****     }
 160:VL6180x.c     ****       
 161:VL6180x.c     ****     return 0; 
ARM GAS  C:\Users\d4hhm\AppData\Local\Temp\cc3RUcFc.s 			page 14


 580              		.loc 1 161 0
 581 0054 0023     		movs	r3, #0
 162:VL6180x.c     **** 
 163:VL6180x.c     **** }
 582              		.loc 1 163 0
 583 0056 1800     		movs	r0, r3
 584 0058 BD46     		mov	sp, r7
 585 005a 05B0     		add	sp, sp, #20
 586              		@ sp needed
 587 005c 90BD     		pop	{r4, r7, pc}
 588              		.cfi_endproc
 589              	.LFE39:
 590              		.size	VL6180_Poll_Range, .-VL6180_Poll_Range
 591 005e C046     		.section	.text.VL6180_Read_Range,"ax",%progbits
 592              		.align	2
 593              		.global	VL6180_Read_Range
 594              		.code	16
 595              		.thumb_func
 596              		.type	VL6180_Read_Range, %function
 597              	VL6180_Read_Range:
 598              	.LFB40:
 164:VL6180x.c     **** 
 165:VL6180x.c     **** //***************************************************************************//
 166:VL6180x.c     **** //range result(mm)„ÇíË™≠„ÅøÂá∫„Åô 
 167:VL6180x.c     **** //***************************************************************************//
 168:VL6180x.c     **** 
 169:VL6180x.c     **** int VL6180_Read_Range() {
 599              		.loc 1 169 0
 600              		.cfi_startproc
 601              		@ args = 0, pretend = 0, frame = 8
 602              		@ frame_needed = 1, uses_anonymous_args = 0
 603 0000 80B5     		push	{r7, lr}
 604              		.cfi_def_cfa_offset 8
 605              		.cfi_offset 7, -8
 606              		.cfi_offset 14, -4
 607 0002 82B0     		sub	sp, sp, #8
 608              		.cfi_def_cfa_offset 16
 609 0004 00AF     		add	r7, sp, #0
 610              		.cfi_def_cfa_register 7
 170:VL6180x.c     ****     int range; 
 171:VL6180x.c     ****     range=VL6180x_ReadByte(0x062); 
 611              		.loc 1 171 0
 612 0006 6220     		movs	r0, #98
 613 0008 FFF7FEFF 		bl	VL6180x_ReadByte
 614 000c 0300     		movs	r3, r0
 615 000e 7B60     		str	r3, [r7, #4]
 172:VL6180x.c     ****     return range;
 616              		.loc 1 172 0
 617 0010 7B68     		ldr	r3, [r7, #4]
 173:VL6180x.c     **** }
 618              		.loc 1 173 0
 619 0012 1800     		movs	r0, r3
 620 0014 BD46     		mov	sp, r7
 621 0016 02B0     		add	sp, sp, #8
 622              		@ sp needed
 623 0018 80BD     		pop	{r7, pc}
 624              		.cfi_endproc
ARM GAS  C:\Users\d4hhm\AppData\Local\Temp\cc3RUcFc.s 			page 15


 625              	.LFE40:
 626              		.size	VL6180_Read_Range, .-VL6180_Read_Range
 627 001a C046     		.section	.text.VL6180_Clear_Interrupts,"ax",%progbits
 628              		.align	2
 629              		.global	VL6180_Clear_Interrupts
 630              		.code	16
 631              		.thumb_func
 632              		.type	VL6180_Clear_Interrupts, %function
 633              	VL6180_Clear_Interrupts:
 634              	.LFB41:
 174:VL6180x.c     **** //***************************************************************************//
 175:VL6180x.c     **** // clear interrupts 
 176:VL6180x.c     **** //***************************************************************************//
 177:VL6180x.c     **** 
 178:VL6180x.c     **** int VL6180_Clear_Interrupts() {
 635              		.loc 1 178 0
 636              		.cfi_startproc
 637              		@ args = 0, pretend = 0, frame = 0
 638              		@ frame_needed = 1, uses_anonymous_args = 0
 639 0000 80B5     		push	{r7, lr}
 640              		.cfi_def_cfa_offset 8
 641              		.cfi_offset 7, -8
 642              		.cfi_offset 14, -4
 643 0002 00AF     		add	r7, sp, #0
 644              		.cfi_def_cfa_register 7
 179:VL6180x.c     ****     VL6180x_WriteByte(0x015,0x07);
 645              		.loc 1 179 0
 646 0004 0721     		movs	r1, #7
 647 0006 1520     		movs	r0, #21
 648 0008 FFF7FEFF 		bl	VL6180x_WriteByte
 180:VL6180x.c     ****     return 0; 
 649              		.loc 1 180 0
 650 000c 0023     		movs	r3, #0
 181:VL6180x.c     **** }...
 651              		.loc 1 181 0
 652 000e 1800     		movs	r0, r3
 653 0010 BD46     		mov	sp, r7
 654              		@ sp needed
 655 0012 80BD     		pop	{r7, pc}
 656              		.cfi_endproc
 657              	.LFE41:
 658              		.size	VL6180_Clear_Interrupts, .-VL6180_Clear_Interrupts
 659              		.text
 660              	.Letext0:
 661              		.file 2 "c:\\program files (x86)\\cypress\\psoc creator\\4.2\\psoc creator\\import\\gnu\\arm\\5.4.
 662              		.file 3 "c:\\program files (x86)\\cypress\\psoc creator\\4.2\\psoc creator\\import\\gnu\\arm\\5.4.
 663              		.file 4 "Generated_Source\\PSoC4/cytypes.h"
 664              		.section	.debug_info,"",%progbits
 665              	.Ldebug_info0:
 666 0000 B3020000 		.4byte	0x2b3
 667 0004 0400     		.2byte	0x4
 668 0006 00000000 		.4byte	.Ldebug_abbrev0
 669 000a 04       		.byte	0x4
 670 000b 01       		.uleb128 0x1
 671 000c 26010000 		.4byte	.LASF35
 672 0010 0C       		.byte	0xc
 673 0011 06020000 		.4byte	.LASF36
ARM GAS  C:\Users\d4hhm\AppData\Local\Temp\cc3RUcFc.s 			page 16


 674 0015 1B000000 		.4byte	.LASF37
 675 0019 00000000 		.4byte	.Ldebug_ranges0+0
 676 001d 00000000 		.4byte	0
 677 0021 00000000 		.4byte	.Ldebug_line0
 678 0025 02       		.uleb128 0x2
 679 0026 01       		.byte	0x1
 680 0027 06       		.byte	0x6
 681 0028 75020000 		.4byte	.LASF0
 682 002c 03       		.uleb128 0x3
 683 002d 11000000 		.4byte	.LASF9
 684 0031 02       		.byte	0x2
 685 0032 1D       		.byte	0x1d
 686 0033 37000000 		.4byte	0x37
 687 0037 02       		.uleb128 0x2
 688 0038 01       		.byte	0x1
 689 0039 08       		.byte	0x8
 690 003a F7000000 		.4byte	.LASF1
 691 003e 02       		.uleb128 0x2
 692 003f 02       		.byte	0x2
 693 0040 05       		.byte	0x5
 694 0041 50020000 		.4byte	.LASF2
 695 0045 02       		.uleb128 0x2
 696 0046 02       		.byte	0x2
 697 0047 07       		.byte	0x7
 698 0048 90000000 		.4byte	.LASF3
 699 004c 02       		.uleb128 0x2
 700 004d 04       		.byte	0x4
 701 004e 05       		.byte	0x5
 702 004f 60020000 		.4byte	.LASF4
 703 0053 02       		.uleb128 0x2
 704 0054 04       		.byte	0x4
 705 0055 07       		.byte	0x7
 706 0056 05010000 		.4byte	.LASF5
 707 005a 02       		.uleb128 0x2
 708 005b 08       		.byte	0x8
 709 005c 05       		.byte	0x5
 710 005d 22020000 		.4byte	.LASF6
 711 0061 02       		.uleb128 0x2
 712 0062 08       		.byte	0x8
 713 0063 07       		.byte	0x7
 714 0064 E0000000 		.4byte	.LASF7
 715 0068 04       		.uleb128 0x4
 716 0069 04       		.byte	0x4
 717 006a 05       		.byte	0x5
 718 006b 696E7400 		.ascii	"int\000"
 719 006f 02       		.uleb128 0x2
 720 0070 04       		.byte	0x4
 721 0071 07       		.byte	0x7
 722 0072 A3000000 		.4byte	.LASF8
 723 0076 03       		.uleb128 0x3
 724 0077 F7010000 		.4byte	.LASF10
 725 007b 03       		.byte	0x3
 726 007c 18       		.byte	0x18
 727 007d 2C000000 		.4byte	0x2c
 728 0081 05       		.uleb128 0x5
 729 0082 5A020000 		.4byte	.LASF11
 730 0086 04       		.byte	0x4
ARM GAS  C:\Users\d4hhm\AppData\Local\Temp\cc3RUcFc.s 			page 17


 731 0087 E601     		.2byte	0x1e6
 732 0089 37000000 		.4byte	0x37
 733 008d 05       		.uleb128 0x5
 734 008e CE010000 		.4byte	.LASF12
 735 0092 04       		.byte	0x4
 736 0093 E701     		.2byte	0x1e7
 737 0095 45000000 		.4byte	0x45
 738 0099 02       		.uleb128 0x2
 739 009a 04       		.byte	0x4
 740 009b 04       		.byte	0x4
 741 009c D5000000 		.4byte	.LASF13
 742 00a0 02       		.uleb128 0x2
 743 00a1 08       		.byte	0x8
 744 00a2 04       		.byte	0x4
 745 00a3 C7010000 		.4byte	.LASF14
 746 00a7 02       		.uleb128 0x2
 747 00a8 01       		.byte	0x1
 748 00a9 08       		.byte	0x8
 749 00aa F2010000 		.4byte	.LASF15
 750 00ae 02       		.uleb128 0x2
 751 00af 08       		.byte	0x8
 752 00b0 04       		.byte	0x4
 753 00b1 69020000 		.4byte	.LASF16
 754 00b5 02       		.uleb128 0x2
 755 00b6 04       		.byte	0x4
 756 00b7 07       		.byte	0x7
 757 00b8 19020000 		.4byte	.LASF17
 758 00bc 06       		.uleb128 0x6
 759 00bd 7E000000 		.4byte	.LASF23
 760 00c1 01       		.byte	0x1
 761 00c2 0A       		.byte	0xa
 762 00c3 00000000 		.4byte	.LFB35
 763 00c7 86000000 		.4byte	.LFE35-.LFB35
 764 00cb 01       		.uleb128 0x1
 765 00cc 9C       		.byte	0x9c
 766 00cd 26010000 		.4byte	0x126
 767 00d1 07       		.uleb128 0x7
 768 00d2 72656700 		.ascii	"reg\000"
 769 00d6 01       		.byte	0x1
 770 00d7 0A       		.byte	0xa
 771 00d8 8D000000 		.4byte	0x8d
 772 00dc 02       		.uleb128 0x2
 773 00dd 91       		.byte	0x91
 774 00de 5E       		.sleb128 -34
 775 00df 08       		.uleb128 0x8
 776 00e0 DB000000 		.4byte	.LASF18
 777 00e4 01       		.byte	0x1
 778 00e5 0A       		.byte	0xa
 779 00e6 81000000 		.4byte	0x81
 780 00ea 02       		.uleb128 0x2
 781 00eb 91       		.byte	0x91
 782 00ec 5D       		.sleb128 -35
 783 00ed 09       		.uleb128 0x9
 784 00ee E7010000 		.4byte	.LASF19
 785 00f2 01       		.byte	0x1
 786 00f3 0C       		.byte	0xc
 787 00f4 26010000 		.4byte	0x126
ARM GAS  C:\Users\d4hhm\AppData\Local\Temp\cc3RUcFc.s 			page 18


 788 00f8 02       		.uleb128 0x2
 789 00f9 91       		.byte	0x91
 790 00fa 70       		.sleb128 -16
 791 00fb 09       		.uleb128 0x9
 792 00fc B4010000 		.4byte	.LASF20
 793 0100 01       		.byte	0x1
 794 0101 0D       		.byte	0xd
 795 0102 81000000 		.4byte	0x81
 796 0106 02       		.uleb128 0x2
 797 0107 91       		.byte	0x91
 798 0108 77       		.sleb128 -9
 799 0109 0A       		.uleb128 0xa
 800 010a 6F757400 		.ascii	"out\000"
 801 010e 01       		.byte	0x1
 802 010f 11       		.byte	0x11
 803 0110 36010000 		.4byte	0x136
 804 0114 02       		.uleb128 0x2
 805 0115 91       		.byte	0x91
 806 0116 64       		.sleb128 -28
 807 0117 09       		.uleb128 0x9
 808 0118 17010000 		.4byte	.LASF21
 809 011c 01       		.byte	0x1
 810 011d 13       		.byte	0x13
 811 011e 81000000 		.4byte	0x81
 812 0122 02       		.uleb128 0x2
 813 0123 91       		.byte	0x91
 814 0124 76       		.sleb128 -10
 815 0125 00       		.byte	0
 816 0126 0B       		.uleb128 0xb
 817 0127 81000000 		.4byte	0x81
 818 012b 36010000 		.4byte	0x136
 819 012f 0C       		.uleb128 0xc
 820 0130 B5000000 		.4byte	0xb5
 821 0134 02       		.byte	0x2
 822 0135 00       		.byte	0
 823 0136 0B       		.uleb128 0xb
 824 0137 A7000000 		.4byte	0xa7
 825 013b 46010000 		.4byte	0x146
 826 013f 0C       		.uleb128 0xc
 827 0140 B5000000 		.4byte	0xb5
 828 0144 09       		.byte	0x9
 829 0145 00       		.byte	0
 830 0146 0D       		.uleb128 0xd
 831 0147 00000000 		.4byte	.LASF38
 832 014b 01       		.byte	0x1
 833 014c 22       		.byte	0x22
 834 014d 81000000 		.4byte	0x81
 835 0151 00000000 		.4byte	.LFB36
 836 0155 B0000000 		.4byte	.LFE36-.LFB36
 837 0159 01       		.uleb128 0x1
 838 015a 9C       		.byte	0x9c
 839 015b BF010000 		.4byte	0x1bf
 840 015f 07       		.uleb128 0x7
 841 0160 72656700 		.ascii	"reg\000"
 842 0164 01       		.byte	0x1
 843 0165 22       		.byte	0x22
 844 0166 76000000 		.4byte	0x76
ARM GAS  C:\Users\d4hhm\AppData\Local\Temp\cc3RUcFc.s 			page 19


 845 016a 02       		.uleb128 0x2
 846 016b 91       		.byte	0x91
 847 016c 5F       		.sleb128 -33
 848 016d 09       		.uleb128 0x9
 849 016e E7010000 		.4byte	.LASF19
 850 0172 01       		.byte	0x1
 851 0173 23       		.byte	0x23
 852 0174 BF010000 		.4byte	0x1bf
 853 0178 02       		.uleb128 0x2
 854 0179 91       		.byte	0x91
 855 017a 74       		.sleb128 -12
 856 017b 09       		.uleb128 0x9
 857 017c 1C010000 		.4byte	.LASF22
 858 0180 01       		.byte	0x1
 859 0181 24       		.byte	0x24
 860 0182 CF010000 		.4byte	0x1cf
 861 0186 02       		.uleb128 0x2
 862 0187 91       		.byte	0x91
 863 0188 70       		.sleb128 -16
 864 0189 09       		.uleb128 0x9
 865 018a B4010000 		.4byte	.LASF20
 866 018e 01       		.byte	0x1
 867 018f 25       		.byte	0x25
 868 0190 81000000 		.4byte	0x81
 869 0194 02       		.uleb128 0x2
 870 0195 91       		.byte	0x91
 871 0196 77       		.sleb128 -9
 872 0197 0E       		.uleb128 0xe
 873 0198 FF010000 		.4byte	.LASF26
 874 019c 01       		.byte	0x1
 875 019d 26       		.byte	0x26
 876 019e 76000000 		.4byte	0x76
 877 01a2 0A       		.uleb128 0xa
 878 01a3 6F757400 		.ascii	"out\000"
 879 01a7 01       		.byte	0x1
 880 01a8 27       		.byte	0x27
 881 01a9 36010000 		.4byte	0x136
 882 01ad 02       		.uleb128 0x2
 883 01ae 91       		.byte	0x91
 884 01af 64       		.sleb128 -28
 885 01b0 09       		.uleb128 0x9
 886 01b1 17010000 		.4byte	.LASF21
 887 01b5 01       		.byte	0x1
 888 01b6 28       		.byte	0x28
 889 01b7 81000000 		.4byte	0x81
 890 01bb 02       		.uleb128 0x2
 891 01bc 91       		.byte	0x91
 892 01bd 76       		.sleb128 -10
 893 01be 00       		.byte	0
 894 01bf 0B       		.uleb128 0xb
 895 01c0 81000000 		.4byte	0x81
 896 01c4 CF010000 		.4byte	0x1cf
 897 01c8 0C       		.uleb128 0xc
 898 01c9 B5000000 		.4byte	0xb5
 899 01cd 01       		.byte	0x1
 900 01ce 00       		.byte	0
 901 01cf 0B       		.uleb128 0xb
ARM GAS  C:\Users\d4hhm\AppData\Local\Temp\cc3RUcFc.s 			page 20


 902 01d0 81000000 		.4byte	0x81
 903 01d4 DF010000 		.4byte	0x1df
 904 01d8 0C       		.uleb128 0xc
 905 01d9 B5000000 		.4byte	0xb5
 906 01dd 00       		.byte	0
 907 01de 00       		.byte	0
 908 01df 0F       		.uleb128 0xf
 909 01e0 B0000000 		.4byte	.LASF24
 910 01e4 01       		.byte	0x1
 911 01e5 40       		.byte	0x40
 912 01e6 68000000 		.4byte	0x68
 913 01ea 00000000 		.4byte	.LFB37
 914 01ee B0010000 		.4byte	.LFE37-.LFB37
 915 01f2 01       		.uleb128 0x1
 916 01f3 9C       		.byte	0x9c
 917 01f4 20020000 		.4byte	0x220
 918 01f8 09       		.uleb128 0x9
 919 01f9 78000000 		.4byte	.LASF25
 920 01fd 01       		.byte	0x1
 921 01fe 41       		.byte	0x41
 922 01ff 81000000 		.4byte	0x81
 923 0203 02       		.uleb128 0x2
 924 0204 91       		.byte	0x91
 925 0205 6F       		.sleb128 -17
 926 0206 0E       		.uleb128 0xe
 927 0207 10020000 		.4byte	.LASF27
 928 020b 01       		.byte	0x1
 929 020c 42       		.byte	0x42
 930 020d 81000000 		.4byte	0x81
 931 0211 0A       		.uleb128 0xa
 932 0212 6F757400 		.ascii	"out\000"
 933 0216 01       		.byte	0x1
 934 0217 43       		.byte	0x43
 935 0218 36010000 		.4byte	0x136
 936 021c 02       		.uleb128 0x2
 937 021d 91       		.byte	0x91
 938 021e 64       		.sleb128 -28
 939 021f 00       		.byte	0
 940 0220 10       		.uleb128 0x10
 941 0221 3D020000 		.4byte	.LASF33
 942 0225 01       		.byte	0x1
 943 0226 89       		.byte	0x89
 944 0227 68000000 		.4byte	0x68
 945 022b 00000000 		.4byte	.LFB38
 946 022f 14000000 		.4byte	.LFE38-.LFB38
 947 0233 01       		.uleb128 0x1
 948 0234 9C       		.byte	0x9c
 949 0235 0F       		.uleb128 0xf
 950 0236 C3000000 		.4byte	.LASF28
 951 023a 01       		.byte	0x1
 952 023b 92       		.byte	0x92
 953 023c 68000000 		.4byte	0x68
 954 0240 00000000 		.4byte	.LFB39
 955 0244 5E000000 		.4byte	.LFE39-.LFB39
 956 0248 01       		.uleb128 0x1
 957 0249 9C       		.byte	0x9c
 958 024a 79020000 		.4byte	0x279
ARM GAS  C:\Users\d4hhm\AppData\Local\Temp\cc3RUcFc.s 			page 21


 959 024e 09       		.uleb128 0x9
 960 024f BC000000 		.4byte	.LASF29
 961 0253 01       		.byte	0x1
 962 0254 93       		.byte	0x93
 963 0255 A7000000 		.4byte	0xa7
 964 0259 02       		.uleb128 0x2
 965 025a 91       		.byte	0x91
 966 025b 6E       		.sleb128 -18
 967 025c 09       		.uleb128 0x9
 968 025d 30020000 		.4byte	.LASF30
 969 0261 01       		.byte	0x1
 970 0262 94       		.byte	0x94
 971 0263 A7000000 		.4byte	0xa7
 972 0267 02       		.uleb128 0x2
 973 0268 91       		.byte	0x91
 974 0269 6F       		.sleb128 -17
 975 026a 0A       		.uleb128 0xa
 976 026b 6F757400 		.ascii	"out\000"
 977 026f 01       		.byte	0x1
 978 0270 95       		.byte	0x95
 979 0271 36010000 		.4byte	0x136
 980 0275 02       		.uleb128 0x2
 981 0276 91       		.byte	0x91
 982 0277 64       		.sleb128 -28
 983 0278 00       		.byte	0
 984 0279 0F       		.uleb128 0xf
 985 027a D5010000 		.4byte	.LASF31
 986 027e 01       		.byte	0x1
 987 027f A9       		.byte	0xa9
 988 0280 68000000 		.4byte	0x68
 989 0284 00000000 		.4byte	.LFB40
 990 0288 1A000000 		.4byte	.LFE40-.LFB40
 991 028c 01       		.uleb128 0x1
 992 028d 9C       		.byte	0x9c
 993 028e A1020000 		.4byte	0x2a1
 994 0292 09       		.uleb128 0x9
 995 0293 C1010000 		.4byte	.LASF32
 996 0297 01       		.byte	0x1
 997 0298 AA       		.byte	0xaa
 998 0299 68000000 		.4byte	0x68
 999 029d 02       		.uleb128 0x2
 1000 029e 91       		.byte	0x91
 1001 029f 74       		.sleb128 -12
 1002 02a0 00       		.byte	0
 1003 02a1 10       		.uleb128 0x10
 1004 02a2 81020000 		.4byte	.LASF34
 1005 02a6 01       		.byte	0x1
 1006 02a7 B2       		.byte	0xb2
 1007 02a8 68000000 		.4byte	0x68
 1008 02ac 00000000 		.4byte	.LFB41
 1009 02b0 14000000 		.4byte	.LFE41-.LFB41
 1010 02b4 01       		.uleb128 0x1
 1011 02b5 9C       		.byte	0x9c
 1012 02b6 00       		.byte	0
 1013              		.section	.debug_abbrev,"",%progbits
 1014              	.Ldebug_abbrev0:
 1015 0000 01       		.uleb128 0x1
ARM GAS  C:\Users\d4hhm\AppData\Local\Temp\cc3RUcFc.s 			page 22


 1016 0001 11       		.uleb128 0x11
 1017 0002 01       		.byte	0x1
 1018 0003 25       		.uleb128 0x25
 1019 0004 0E       		.uleb128 0xe
 1020 0005 13       		.uleb128 0x13
 1021 0006 0B       		.uleb128 0xb
 1022 0007 03       		.uleb128 0x3
 1023 0008 0E       		.uleb128 0xe
 1024 0009 1B       		.uleb128 0x1b
 1025 000a 0E       		.uleb128 0xe
 1026 000b 55       		.uleb128 0x55
 1027 000c 17       		.uleb128 0x17
 1028 000d 11       		.uleb128 0x11
 1029 000e 01       		.uleb128 0x1
 1030 000f 10       		.uleb128 0x10
 1031 0010 17       		.uleb128 0x17
 1032 0011 00       		.byte	0
 1033 0012 00       		.byte	0
 1034 0013 02       		.uleb128 0x2
 1035 0014 24       		.uleb128 0x24
 1036 0015 00       		.byte	0
 1037 0016 0B       		.uleb128 0xb
 1038 0017 0B       		.uleb128 0xb
 1039 0018 3E       		.uleb128 0x3e
 1040 0019 0B       		.uleb128 0xb
 1041 001a 03       		.uleb128 0x3
 1042 001b 0E       		.uleb128 0xe
 1043 001c 00       		.byte	0
 1044 001d 00       		.byte	0
 1045 001e 03       		.uleb128 0x3
 1046 001f 16       		.uleb128 0x16
 1047 0020 00       		.byte	0
 1048 0021 03       		.uleb128 0x3
 1049 0022 0E       		.uleb128 0xe
 1050 0023 3A       		.uleb128 0x3a
 1051 0024 0B       		.uleb128 0xb
 1052 0025 3B       		.uleb128 0x3b
 1053 0026 0B       		.uleb128 0xb
 1054 0027 49       		.uleb128 0x49
 1055 0028 13       		.uleb128 0x13
 1056 0029 00       		.byte	0
 1057 002a 00       		.byte	0
 1058 002b 04       		.uleb128 0x4
 1059 002c 24       		.uleb128 0x24
 1060 002d 00       		.byte	0
 1061 002e 0B       		.uleb128 0xb
 1062 002f 0B       		.uleb128 0xb
 1063 0030 3E       		.uleb128 0x3e
 1064 0031 0B       		.uleb128 0xb
 1065 0032 03       		.uleb128 0x3
 1066 0033 08       		.uleb128 0x8
 1067 0034 00       		.byte	0
 1068 0035 00       		.byte	0
 1069 0036 05       		.uleb128 0x5
 1070 0037 16       		.uleb128 0x16
 1071 0038 00       		.byte	0
 1072 0039 03       		.uleb128 0x3
ARM GAS  C:\Users\d4hhm\AppData\Local\Temp\cc3RUcFc.s 			page 23


 1073 003a 0E       		.uleb128 0xe
 1074 003b 3A       		.uleb128 0x3a
 1075 003c 0B       		.uleb128 0xb
 1076 003d 3B       		.uleb128 0x3b
 1077 003e 05       		.uleb128 0x5
 1078 003f 49       		.uleb128 0x49
 1079 0040 13       		.uleb128 0x13
 1080 0041 00       		.byte	0
 1081 0042 00       		.byte	0
 1082 0043 06       		.uleb128 0x6
 1083 0044 2E       		.uleb128 0x2e
 1084 0045 01       		.byte	0x1
 1085 0046 3F       		.uleb128 0x3f
 1086 0047 19       		.uleb128 0x19
 1087 0048 03       		.uleb128 0x3
 1088 0049 0E       		.uleb128 0xe
 1089 004a 3A       		.uleb128 0x3a
 1090 004b 0B       		.uleb128 0xb
 1091 004c 3B       		.uleb128 0x3b
 1092 004d 0B       		.uleb128 0xb
 1093 004e 27       		.uleb128 0x27
 1094 004f 19       		.uleb128 0x19
 1095 0050 11       		.uleb128 0x11
 1096 0051 01       		.uleb128 0x1
 1097 0052 12       		.uleb128 0x12
 1098 0053 06       		.uleb128 0x6
 1099 0054 40       		.uleb128 0x40
 1100 0055 18       		.uleb128 0x18
 1101 0056 9642     		.uleb128 0x2116
 1102 0058 19       		.uleb128 0x19
 1103 0059 01       		.uleb128 0x1
 1104 005a 13       		.uleb128 0x13
 1105 005b 00       		.byte	0
 1106 005c 00       		.byte	0
 1107 005d 07       		.uleb128 0x7
 1108 005e 05       		.uleb128 0x5
 1109 005f 00       		.byte	0
 1110 0060 03       		.uleb128 0x3
 1111 0061 08       		.uleb128 0x8
 1112 0062 3A       		.uleb128 0x3a
 1113 0063 0B       		.uleb128 0xb
 1114 0064 3B       		.uleb128 0x3b
 1115 0065 0B       		.uleb128 0xb
 1116 0066 49       		.uleb128 0x49
 1117 0067 13       		.uleb128 0x13
 1118 0068 02       		.uleb128 0x2
 1119 0069 18       		.uleb128 0x18
 1120 006a 00       		.byte	0
 1121 006b 00       		.byte	0
 1122 006c 08       		.uleb128 0x8
 1123 006d 05       		.uleb128 0x5
 1124 006e 00       		.byte	0
 1125 006f 03       		.uleb128 0x3
 1126 0070 0E       		.uleb128 0xe
 1127 0071 3A       		.uleb128 0x3a
 1128 0072 0B       		.uleb128 0xb
 1129 0073 3B       		.uleb128 0x3b
ARM GAS  C:\Users\d4hhm\AppData\Local\Temp\cc3RUcFc.s 			page 24


 1130 0074 0B       		.uleb128 0xb
 1131 0075 49       		.uleb128 0x49
 1132 0076 13       		.uleb128 0x13
 1133 0077 02       		.uleb128 0x2
 1134 0078 18       		.uleb128 0x18
 1135 0079 00       		.byte	0
 1136 007a 00       		.byte	0
 1137 007b 09       		.uleb128 0x9
 1138 007c 34       		.uleb128 0x34
 1139 007d 00       		.byte	0
 1140 007e 03       		.uleb128 0x3
 1141 007f 0E       		.uleb128 0xe
 1142 0080 3A       		.uleb128 0x3a
 1143 0081 0B       		.uleb128 0xb
 1144 0082 3B       		.uleb128 0x3b
 1145 0083 0B       		.uleb128 0xb
 1146 0084 49       		.uleb128 0x49
 1147 0085 13       		.uleb128 0x13
 1148 0086 02       		.uleb128 0x2
 1149 0087 18       		.uleb128 0x18
 1150 0088 00       		.byte	0
 1151 0089 00       		.byte	0
 1152 008a 0A       		.uleb128 0xa
 1153 008b 34       		.uleb128 0x34
 1154 008c 00       		.byte	0
 1155 008d 03       		.uleb128 0x3
 1156 008e 08       		.uleb128 0x8
 1157 008f 3A       		.uleb128 0x3a
 1158 0090 0B       		.uleb128 0xb
 1159 0091 3B       		.uleb128 0x3b
 1160 0092 0B       		.uleb128 0xb
 1161 0093 49       		.uleb128 0x49
 1162 0094 13       		.uleb128 0x13
 1163 0095 02       		.uleb128 0x2
 1164 0096 18       		.uleb128 0x18
 1165 0097 00       		.byte	0
 1166 0098 00       		.byte	0
 1167 0099 0B       		.uleb128 0xb
 1168 009a 01       		.uleb128 0x1
 1169 009b 01       		.byte	0x1
 1170 009c 49       		.uleb128 0x49
 1171 009d 13       		.uleb128 0x13
 1172 009e 01       		.uleb128 0x1
 1173 009f 13       		.uleb128 0x13
 1174 00a0 00       		.byte	0
 1175 00a1 00       		.byte	0
 1176 00a2 0C       		.uleb128 0xc
 1177 00a3 21       		.uleb128 0x21
 1178 00a4 00       		.byte	0
 1179 00a5 49       		.uleb128 0x49
 1180 00a6 13       		.uleb128 0x13
 1181 00a7 2F       		.uleb128 0x2f
 1182 00a8 0B       		.uleb128 0xb
 1183 00a9 00       		.byte	0
 1184 00aa 00       		.byte	0
 1185 00ab 0D       		.uleb128 0xd
 1186 00ac 2E       		.uleb128 0x2e
ARM GAS  C:\Users\d4hhm\AppData\Local\Temp\cc3RUcFc.s 			page 25


 1187 00ad 01       		.byte	0x1
 1188 00ae 3F       		.uleb128 0x3f
 1189 00af 19       		.uleb128 0x19
 1190 00b0 03       		.uleb128 0x3
 1191 00b1 0E       		.uleb128 0xe
 1192 00b2 3A       		.uleb128 0x3a
 1193 00b3 0B       		.uleb128 0xb
 1194 00b4 3B       		.uleb128 0x3b
 1195 00b5 0B       		.uleb128 0xb
 1196 00b6 27       		.uleb128 0x27
 1197 00b7 19       		.uleb128 0x19
 1198 00b8 49       		.uleb128 0x49
 1199 00b9 13       		.uleb128 0x13
 1200 00ba 11       		.uleb128 0x11
 1201 00bb 01       		.uleb128 0x1
 1202 00bc 12       		.uleb128 0x12
 1203 00bd 06       		.uleb128 0x6
 1204 00be 40       		.uleb128 0x40
 1205 00bf 18       		.uleb128 0x18
 1206 00c0 9642     		.uleb128 0x2116
 1207 00c2 19       		.uleb128 0x19
 1208 00c3 01       		.uleb128 0x1
 1209 00c4 13       		.uleb128 0x13
 1210 00c5 00       		.byte	0
 1211 00c6 00       		.byte	0
 1212 00c7 0E       		.uleb128 0xe
 1213 00c8 34       		.uleb128 0x34
 1214 00c9 00       		.byte	0
 1215 00ca 03       		.uleb128 0x3
 1216 00cb 0E       		.uleb128 0xe
 1217 00cc 3A       		.uleb128 0x3a
 1218 00cd 0B       		.uleb128 0xb
 1219 00ce 3B       		.uleb128 0x3b
 1220 00cf 0B       		.uleb128 0xb
 1221 00d0 49       		.uleb128 0x49
 1222 00d1 13       		.uleb128 0x13
 1223 00d2 00       		.byte	0
 1224 00d3 00       		.byte	0
 1225 00d4 0F       		.uleb128 0xf
 1226 00d5 2E       		.uleb128 0x2e
 1227 00d6 01       		.byte	0x1
 1228 00d7 3F       		.uleb128 0x3f
 1229 00d8 19       		.uleb128 0x19
 1230 00d9 03       		.uleb128 0x3
 1231 00da 0E       		.uleb128 0xe
 1232 00db 3A       		.uleb128 0x3a
 1233 00dc 0B       		.uleb128 0xb
 1234 00dd 3B       		.uleb128 0x3b
 1235 00de 0B       		.uleb128 0xb
 1236 00df 49       		.uleb128 0x49
 1237 00e0 13       		.uleb128 0x13
 1238 00e1 11       		.uleb128 0x11
 1239 00e2 01       		.uleb128 0x1
 1240 00e3 12       		.uleb128 0x12
 1241 00e4 06       		.uleb128 0x6
 1242 00e5 40       		.uleb128 0x40
 1243 00e6 18       		.uleb128 0x18
ARM GAS  C:\Users\d4hhm\AppData\Local\Temp\cc3RUcFc.s 			page 26


 1244 00e7 9642     		.uleb128 0x2116
 1245 00e9 19       		.uleb128 0x19
 1246 00ea 01       		.uleb128 0x1
 1247 00eb 13       		.uleb128 0x13
 1248 00ec 00       		.byte	0
 1249 00ed 00       		.byte	0
 1250 00ee 10       		.uleb128 0x10
 1251 00ef 2E       		.uleb128 0x2e
 1252 00f0 00       		.byte	0
 1253 00f1 3F       		.uleb128 0x3f
 1254 00f2 19       		.uleb128 0x19
 1255 00f3 03       		.uleb128 0x3
 1256 00f4 0E       		.uleb128 0xe
 1257 00f5 3A       		.uleb128 0x3a
 1258 00f6 0B       		.uleb128 0xb
 1259 00f7 3B       		.uleb128 0x3b
 1260 00f8 0B       		.uleb128 0xb
 1261 00f9 49       		.uleb128 0x49
 1262 00fa 13       		.uleb128 0x13
 1263 00fb 11       		.uleb128 0x11
 1264 00fc 01       		.uleb128 0x1
 1265 00fd 12       		.uleb128 0x12
 1266 00fe 06       		.uleb128 0x6
 1267 00ff 40       		.uleb128 0x40
 1268 0100 18       		.uleb128 0x18
 1269 0101 9642     		.uleb128 0x2116
 1270 0103 19       		.uleb128 0x19
 1271 0104 00       		.byte	0
 1272 0105 00       		.byte	0
 1273 0106 00       		.byte	0
 1274              		.section	.debug_aranges,"",%progbits
 1275 0000 4C000000 		.4byte	0x4c
 1276 0004 0200     		.2byte	0x2
 1277 0006 00000000 		.4byte	.Ldebug_info0
 1278 000a 04       		.byte	0x4
 1279 000b 00       		.byte	0
 1280 000c 0000     		.2byte	0
 1281 000e 0000     		.2byte	0
 1282 0010 00000000 		.4byte	.LFB35
 1283 0014 86000000 		.4byte	.LFE35-.LFB35
 1284 0018 00000000 		.4byte	.LFB36
 1285 001c B0000000 		.4byte	.LFE36-.LFB36
 1286 0020 00000000 		.4byte	.LFB37
 1287 0024 B0010000 		.4byte	.LFE37-.LFB37
 1288 0028 00000000 		.4byte	.LFB38
 1289 002c 14000000 		.4byte	.LFE38-.LFB38
 1290 0030 00000000 		.4byte	.LFB39
 1291 0034 5E000000 		.4byte	.LFE39-.LFB39
 1292 0038 00000000 		.4byte	.LFB40
 1293 003c 1A000000 		.4byte	.LFE40-.LFB40
 1294 0040 00000000 		.4byte	.LFB41
 1295 0044 14000000 		.4byte	.LFE41-.LFB41
 1296 0048 00000000 		.4byte	0
 1297 004c 00000000 		.4byte	0
 1298              		.section	.debug_ranges,"",%progbits
 1299              	.Ldebug_ranges0:
 1300 0000 00000000 		.4byte	.LFB35
ARM GAS  C:\Users\d4hhm\AppData\Local\Temp\cc3RUcFc.s 			page 27


 1301 0004 86000000 		.4byte	.LFE35
 1302 0008 00000000 		.4byte	.LFB36
 1303 000c B0000000 		.4byte	.LFE36
 1304 0010 00000000 		.4byte	.LFB37
 1305 0014 B0010000 		.4byte	.LFE37
 1306 0018 00000000 		.4byte	.LFB38
 1307 001c 14000000 		.4byte	.LFE38
 1308 0020 00000000 		.4byte	.LFB39
 1309 0024 5E000000 		.4byte	.LFE39
 1310 0028 00000000 		.4byte	.LFB40
 1311 002c 1A000000 		.4byte	.LFE40
 1312 0030 00000000 		.4byte	.LFB41
 1313 0034 14000000 		.4byte	.LFE41
 1314 0038 00000000 		.4byte	0
 1315 003c 00000000 		.4byte	0
 1316              		.section	.debug_line,"",%progbits
 1317              	.Ldebug_line0:
 1318 0000 2D020000 		.section	.debug_str,"MS",%progbits,1
 1318      02004101 
 1318      00000201 
 1318      FB0E0D00 
 1318      01010101 
 1319              	.LASF38:
 1320 0000 564C3631 		.ascii	"VL6180x_ReadByte\000"
 1320      3830785F 
 1320      52656164 
 1320      42797465 
 1320      00
 1321              	.LASF9:
 1322 0011 5F5F7569 		.ascii	"__uint8_t\000"
 1322      6E74385F 
 1322      7400
 1323              	.LASF37:
 1324 001b 433A5C55 		.ascii	"C:\\Users\\d4hhm\\Documents\\Care-support-system\\P"
 1324      73657273 
 1324      5C643468 
 1324      686D5C44 
 1324      6F63756D 
 1325 0049 65726970 		.ascii	"eripheral\\Care_support_system_peripheral.cydsn\000"
 1325      68657261 
 1325      6C5C4361 
 1325      72655F73 
 1325      7570706F 
 1326              	.LASF25:
 1327 0078 72657365 		.ascii	"reset\000"
 1327      7400
 1328              	.LASF23:
 1329 007e 564C3631 		.ascii	"VL6180x_WriteByte\000"
 1329      3830785F 
 1329      57726974 
 1329      65427974 
 1329      6500
 1330              	.LASF3:
 1331 0090 73686F72 		.ascii	"short unsigned int\000"
 1331      7420756E 
 1331      7369676E 
 1331      65642069 
ARM GAS  C:\Users\d4hhm\AppData\Local\Temp\cc3RUcFc.s 			page 28


 1331      6E7400
 1332              	.LASF8:
 1333 00a3 756E7369 		.ascii	"unsigned int\000"
 1333      676E6564 
 1333      20696E74 
 1333      00
 1334              	.LASF24:
 1335 00b0 564C3631 		.ascii	"VL6180_Init\000"
 1335      38305F49 
 1335      6E697400 
 1336              	.LASF29:
 1337 00bc 73746174 		.ascii	"status\000"
 1337      757300
 1338              	.LASF28:
 1339 00c3 564C3631 		.ascii	"VL6180_Poll_Range\000"
 1339      38305F50 
 1339      6F6C6C5F 
 1339      52616E67 
 1339      6500
 1340              	.LASF13:
 1341 00d5 666C6F61 		.ascii	"float\000"
 1341      7400
 1342              	.LASF18:
 1343 00db 64617461 		.ascii	"data\000"
 1343      00
 1344              	.LASF7:
 1345 00e0 6C6F6E67 		.ascii	"long long unsigned int\000"
 1345      206C6F6E 
 1345      6720756E 
 1345      7369676E 
 1345      65642069 
 1346              	.LASF1:
 1347 00f7 756E7369 		.ascii	"unsigned char\000"
 1347      676E6564 
 1347      20636861 
 1347      7200
 1348              	.LASF5:
 1349 0105 6C6F6E67 		.ascii	"long unsigned int\000"
 1349      20756E73 
 1349      69676E65 
 1349      6420696E 
 1349      7400
 1350              	.LASF21:
 1351 0117 74656D70 		.ascii	"temp\000"
 1351      00
 1352              	.LASF22:
 1353 011c 64617461 		.ascii	"data_read\000"
 1353      5F726561 
 1353      6400
 1354              	.LASF35:
 1355 0126 474E5520 		.ascii	"GNU C11 5.4.1 20160609 (release) [ARM/embedded-5-br"
 1355      43313120 
 1355      352E342E 
 1355      31203230 
 1355      31363036 
 1356 0159 616E6368 		.ascii	"anch revision 237715] -mcpu=cortex-m0 -mthumb -g -O"
 1356      20726576 
ARM GAS  C:\Users\d4hhm\AppData\Local\Temp\cc3RUcFc.s 			page 29


 1356      6973696F 
 1356      6E203233 
 1356      37373135 
 1357 018c 30202D66 		.ascii	"0 -ffunction-sections -ffat-lto-objects\000"
 1357      66756E63 
 1357      74696F6E 
 1357      2D736563 
 1357      74696F6E 
 1358              	.LASF20:
 1359 01b4 536C6176 		.ascii	"SlaveAddress\000"
 1359      65416464 
 1359      72657373 
 1359      00
 1360              	.LASF32:
 1361 01c1 72616E67 		.ascii	"range\000"
 1361      6500
 1362              	.LASF14:
 1363 01c7 646F7562 		.ascii	"double\000"
 1363      6C6500
 1364              	.LASF12:
 1365 01ce 75696E74 		.ascii	"uint16\000"
 1365      313600
 1366              	.LASF31:
 1367 01d5 564C3631 		.ascii	"VL6180_Read_Range\000"
 1367      38305F52 
 1367      6561645F 
 1367      52616E67 
 1367      6500
 1368              	.LASF19:
 1369 01e7 64617461 		.ascii	"data_write\000"
 1369      5F777269 
 1369      746500
 1370              	.LASF15:
 1371 01f2 63686172 		.ascii	"char\000"
 1371      00
 1372              	.LASF10:
 1373 01f7 75696E74 		.ascii	"uint8_t\000"
 1373      385F7400 
 1374              	.LASF26:
 1375 01ff 72657375 		.ascii	"result\000"
 1375      6C7400
 1376              	.LASF36:
 1377 0206 564C3631 		.ascii	"VL6180x.c\000"
 1377      3830782E 
 1377      6300
 1378              	.LASF27:
 1379 0210 72657365 		.ascii	"reset_16\000"
 1379      745F3136 
 1379      00
 1380              	.LASF17:
 1381 0219 73697A65 		.ascii	"sizetype\000"
 1381      74797065 
 1381      00
 1382              	.LASF6:
 1383 0222 6C6F6E67 		.ascii	"long long int\000"
 1383      206C6F6E 
 1383      6720696E 
ARM GAS  C:\Users\d4hhm\AppData\Local\Temp\cc3RUcFc.s 			page 30


 1383      7400
 1384              	.LASF30:
 1385 0230 72616E67 		.ascii	"range_status\000"
 1385      655F7374 
 1385      61747573 
 1385      00
 1386              	.LASF33:
 1387 023d 564C3631 		.ascii	"VL6180_Start_Range\000"
 1387      38305F53 
 1387      74617274 
 1387      5F52616E 
 1387      676500
 1388              	.LASF2:
 1389 0250 73686F72 		.ascii	"short int\000"
 1389      7420696E 
 1389      7400
 1390              	.LASF11:
 1391 025a 75696E74 		.ascii	"uint8\000"
 1391      3800
 1392              	.LASF4:
 1393 0260 6C6F6E67 		.ascii	"long int\000"
 1393      20696E74 
 1393      00
 1394              	.LASF16:
 1395 0269 6C6F6E67 		.ascii	"long double\000"
 1395      20646F75 
 1395      626C6500 
 1396              	.LASF0:
 1397 0275 7369676E 		.ascii	"signed char\000"
 1397      65642063 
 1397      68617200 
 1398              	.LASF34:
 1399 0281 564C3631 		.ascii	"VL6180_Clear_Interrupts\000"
 1399      38305F43 
 1399      6C656172 
 1399      5F496E74 
 1399      65727275 
 1400              		.ident	"GCC: (GNU Tools for ARM Embedded Processors) 5.4.1 20160609 (release) [ARM/embedded-5-bran
