ARM GAS  C:\Users\d4hhm\AppData\Local\Temp\ccCDokDf.s 			page 1


   1              		.syntax unified
   2              		.cpu cortex-m0
   3              		.fpu softvfp
   4              		.eabi_attribute 20, 1
   5              		.eabi_attribute 21, 1
   6              		.eabi_attribute 23, 3
   7              		.eabi_attribute 24, 1
   8              		.eabi_attribute 25, 1
   9              		.eabi_attribute 26, 1
  10              		.eabi_attribute 30, 6
  11              		.eabi_attribute 34, 0
  12              		.eabi_attribute 18, 4
  13              		.thumb
  14              		.syntax unified
  15              		.file	"BME280.c"
  16              		.text
  17              	.Ltext0:
  18              		.cfi_sections	.debug_frame
  19              		.global	bme280
  20              		.data
  21              		.align	2
  22              		.type	bme280, %object
  23              		.size	bme280, 64
  24              	bme280:
  25 0000 00       		.byte	0
  26 0001 76       		.byte	118
  27 0002 0A       		.byte	10
  28 0003 03       		.byte	3
  29 0004 0000     		.space	2
  30 0006 01       		.byte	1
  31 0007 01       		.byte	1
  32 0008 01       		.byte	1
  33 0009 00       		.space	1
  34 000a 00000000 		.space	36
  34      00000000 
  34      00000000 
  34      00000000 
  34      00000000 
  35 002e 0000     		.space	2
  36 0030 00000000 		.word	0
  37 0034 003C1CC6 		.word	-971228160
  38 0038 003C1CC6 		.word	-971228160
  39 003c 003C1CC6 		.word	-971228160
  40              		.section	.text.BME280_start,"ax",%progbits
  41              		.align	2
  42              		.global	BME280_start
  43              		.code	16
  44              		.thumb_func
  45              		.type	BME280_start, %function
  46              	BME280_start:
  47              	.LFB35:
  48              		.file 1 "..\\..\\ble-beacon_capsense+vl6180+bme280\\Design01.cydsn\\BME280.c"
   1:..\..\ble-beacon_capsense+vl6180+bme280\Design01.cydsn/BME280.c **** /******************************************************************************
   2:..\..\ble-beacon_capsense+vl6180+bme280\Design01.cydsn/BME280.c **** SparkFunBME280.cpp
   3:..\..\ble-beacon_capsense+vl6180+bme280\Design01.cydsn/BME280.c **** BME280 Arduino and Teensy Driver
   4:..\..\ble-beacon_capsense+vl6180+bme280\Design01.cydsn/BME280.c **** Marshall Taylor @ SparkFun Electronics
   5:..\..\ble-beacon_capsense+vl6180+bme280\Design01.cydsn/BME280.c **** May 20, 2015
ARM GAS  C:\Users\d4hhm\AppData\Local\Temp\ccCDokDf.s 			page 2


   6:..\..\ble-beacon_capsense+vl6180+bme280\Design01.cydsn/BME280.c **** https://github.com/sparkfun/BME280_Breakout
   7:..\..\ble-beacon_capsense+vl6180+bme280\Design01.cydsn/BME280.c **** 
   8:..\..\ble-beacon_capsense+vl6180+bme280\Design01.cydsn/BME280.c **** Resources:
   9:..\..\ble-beacon_capsense+vl6180+bme280\Design01.cydsn/BME280.c **** Uses Wire.h for i2c operation
  10:..\..\ble-beacon_capsense+vl6180+bme280\Design01.cydsn/BME280.c **** Uses SPI.h for SPI operation
  11:..\..\ble-beacon_capsense+vl6180+bme280\Design01.cydsn/BME280.c **** 
  12:..\..\ble-beacon_capsense+vl6180+bme280\Design01.cydsn/BME280.c **** Development environment specifics:
  13:..\..\ble-beacon_capsense+vl6180+bme280\Design01.cydsn/BME280.c **** Arduino IDE 1.6.4
  14:..\..\ble-beacon_capsense+vl6180+bme280\Design01.cydsn/BME280.c **** Teensy loader 1.23
  15:..\..\ble-beacon_capsense+vl6180+bme280\Design01.cydsn/BME280.c **** 
  16:..\..\ble-beacon_capsense+vl6180+bme280\Design01.cydsn/BME280.c **** This code is released under the [MIT License](http://opensource.org/licenses/MIT).
  17:..\..\ble-beacon_capsense+vl6180+bme280\Design01.cydsn/BME280.c **** Please review the LICENSE.md file included with this example. If you have any questions 
  18:..\..\ble-beacon_capsense+vl6180+bme280\Design01.cydsn/BME280.c **** or concerns with licensing, please contact techsupport@sparkfun.com.
  19:..\..\ble-beacon_capsense+vl6180+bme280\Design01.cydsn/BME280.c **** Distributed as-is; no warranty is given.
  20:..\..\ble-beacon_capsense+vl6180+bme280\Design01.cydsn/BME280.c **** ******************************************************************************/
  21:..\..\ble-beacon_capsense+vl6180+bme280\Design01.cydsn/BME280.c **** //See SparkFunBME280.h for additional topology notes.
  22:..\..\ble-beacon_capsense+vl6180+bme280\Design01.cydsn/BME280.c **** 
  23:..\..\ble-beacon_capsense+vl6180+bme280\Design01.cydsn/BME280.c **** #include "BME280.h"
  24:..\..\ble-beacon_capsense+vl6180+bme280\Design01.cydsn/BME280.c **** #include <math.h>
  25:..\..\ble-beacon_capsense+vl6180+bme280\Design01.cydsn/BME280.c **** 
  26:..\..\ble-beacon_capsense+vl6180+bme280\Design01.cydsn/BME280.c **** 
  27:..\..\ble-beacon_capsense+vl6180+bme280\Design01.cydsn/BME280.c **** //****************************************************************************//
  28:..\..\ble-beacon_capsense+vl6180+bme280\Design01.cydsn/BME280.c **** //
  29:..\..\ble-beacon_capsense+vl6180+bme280\Design01.cydsn/BME280.c **** //  Settings and configuration
  30:..\..\ble-beacon_capsense+vl6180+bme280\Design01.cydsn/BME280.c **** //
  31:..\..\ble-beacon_capsense+vl6180+bme280\Design01.cydsn/BME280.c **** //****************************************************************************//
  32:..\..\ble-beacon_capsense+vl6180+bme280\Design01.cydsn/BME280.c **** 
  33:..\..\ble-beacon_capsense+vl6180+bme280\Design01.cydsn/BME280.c **** //Construct with these default settings if nothing is specified
  34:..\..\ble-beacon_capsense+vl6180+bme280\Design01.cydsn/BME280.c **** BME280 bme280 = {
  35:..\..\ble-beacon_capsense+vl6180+bme280\Design01.cydsn/BME280.c ****     .settings = {
  36:..\..\ble-beacon_capsense+vl6180+bme280\Design01.cydsn/BME280.c ****         //Select interface mode
  37:..\..\ble-beacon_capsense+vl6180+bme280\Design01.cydsn/BME280.c ****         .commInterface  = BME280_I2C_MODE,
  38:..\..\ble-beacon_capsense+vl6180+bme280\Design01.cydsn/BME280.c ****     	//Select address for I2C.  Does nothing for SPI            
  39:..\..\ble-beacon_capsense+vl6180+bme280\Design01.cydsn/BME280.c ****         .I2CAddress     = 0x76,
  40:..\..\ble-beacon_capsense+vl6180+bme280\Design01.cydsn/BME280.c ****     	//Select CS pin for SPI.  Does nothing for I2C            
  41:..\..\ble-beacon_capsense+vl6180+bme280\Design01.cydsn/BME280.c ****         .chipSelectPin  = 10,
  42:..\..\ble-beacon_capsense+vl6180+bme280\Design01.cydsn/BME280.c ****         .runMode        = 3,
  43:..\..\ble-beacon_capsense+vl6180+bme280\Design01.cydsn/BME280.c ****         .tempOverSample = 1,
  44:..\..\ble-beacon_capsense+vl6180+bme280\Design01.cydsn/BME280.c ****         .pressOverSample= 1,
  45:..\..\ble-beacon_capsense+vl6180+bme280\Design01.cydsn/BME280.c ****         .humidOverSample= 1
  46:..\..\ble-beacon_capsense+vl6180+bme280\Design01.cydsn/BME280.c ****         },
  47:..\..\ble-beacon_capsense+vl6180+bme280\Design01.cydsn/BME280.c ****     .calibration = {},
  48:..\..\ble-beacon_capsense+vl6180+bme280\Design01.cydsn/BME280.c ****     .t_fine = 0,
  49:..\..\ble-beacon_capsense+vl6180+bme280\Design01.cydsn/BME280.c ****     .temp_C     = -9999,
  50:..\..\ble-beacon_capsense+vl6180+bme280\Design01.cydsn/BME280.c ****     .press_Pa   = -9999,
  51:..\..\ble-beacon_capsense+vl6180+bme280\Design01.cydsn/BME280.c ****     .RH         = -9999
  52:..\..\ble-beacon_capsense+vl6180+bme280\Design01.cydsn/BME280.c **** };
  53:..\..\ble-beacon_capsense+vl6180+bme280\Design01.cydsn/BME280.c **** 
  54:..\..\ble-beacon_capsense+vl6180+bme280\Design01.cydsn/BME280.c **** void BME280_start() {
  49              		.loc 1 54 0
  50              		.cfi_startproc
  51              		@ args = 0, pretend = 0, frame = 0
  52              		@ frame_needed = 1, uses_anonymous_args = 0
  53 0000 80B5     		push	{r7, lr}
  54              		.cfi_def_cfa_offset 8
  55              		.cfi_offset 7, -8
  56              		.cfi_offset 14, -4
ARM GAS  C:\Users\d4hhm\AppData\Local\Temp\ccCDokDf.s 			page 3


  57 0002 00AF     		add	r7, sp, #0
  58              		.cfi_def_cfa_register 7
  55:..\..\ble-beacon_capsense+vl6180+bme280\Design01.cydsn/BME280.c ****     SCB_1_Start();
  59              		.loc 1 55 0
  60 0004 FFF7FEFF 		bl	SCB_1_Start
  56:..\..\ble-beacon_capsense+vl6180+bme280\Design01.cydsn/BME280.c ****     //I2C_Sleep();
  57:..\..\ble-beacon_capsense+vl6180+bme280\Design01.cydsn/BME280.c **** }
  61              		.loc 1 57 0
  62 0008 C046     		nop
  63 000a BD46     		mov	sp, r7
  64              		@ sp needed
  65 000c 80BD     		pop	{r7, pc}
  66              		.cfi_endproc
  67              	.LFE35:
  68              		.size	BME280_start, .-BME280_start
  69 000e C046     		.section	.text.BME280_stop,"ax",%progbits
  70              		.align	2
  71              		.global	BME280_stop
  72              		.code	16
  73              		.thumb_func
  74              		.type	BME280_stop, %function
  75              	BME280_stop:
  76              	.LFB36:
  58:..\..\ble-beacon_capsense+vl6180+bme280\Design01.cydsn/BME280.c **** 
  59:..\..\ble-beacon_capsense+vl6180+bme280\Design01.cydsn/BME280.c **** void BME280_stop() {
  77              		.loc 1 59 0
  78              		.cfi_startproc
  79              		@ args = 0, pretend = 0, frame = 0
  80              		@ frame_needed = 1, uses_anonymous_args = 0
  81 0000 80B5     		push	{r7, lr}
  82              		.cfi_def_cfa_offset 8
  83              		.cfi_offset 7, -8
  84              		.cfi_offset 14, -4
  85 0002 00AF     		add	r7, sp, #0
  86              		.cfi_def_cfa_register 7
  60:..\..\ble-beacon_capsense+vl6180+bme280\Design01.cydsn/BME280.c ****     SCB_1_Stop();
  87              		.loc 1 60 0
  88 0004 FFF7FEFF 		bl	SCB_1_Stop
  61:..\..\ble-beacon_capsense+vl6180+bme280\Design01.cydsn/BME280.c **** }
  89              		.loc 1 61 0
  90 0008 C046     		nop
  91 000a BD46     		mov	sp, r7
  92              		@ sp needed
  93 000c 80BD     		pop	{r7, pc}
  94              		.cfi_endproc
  95              	.LFE36:
  96              		.size	BME280_stop, .-BME280_stop
  97 000e C046     		.section	.text.BME280_init,"ax",%progbits
  98              		.align	2
  99              		.global	BME280_init
 100              		.code	16
 101              		.thumb_func
 102              		.type	BME280_init, %function
 103              	BME280_init:
 104              	.LFB37:
  62:..\..\ble-beacon_capsense+vl6180+bme280\Design01.cydsn/BME280.c **** 
  63:..\..\ble-beacon_capsense+vl6180+bme280\Design01.cydsn/BME280.c **** //****************************************************************************//
ARM GAS  C:\Users\d4hhm\AppData\Local\Temp\ccCDokDf.s 			page 4


  64:..\..\ble-beacon_capsense+vl6180+bme280\Design01.cydsn/BME280.c **** //
  65:..\..\ble-beacon_capsense+vl6180+bme280\Design01.cydsn/BME280.c **** //  Configuration section
  66:..\..\ble-beacon_capsense+vl6180+bme280\Design01.cydsn/BME280.c **** //
  67:..\..\ble-beacon_capsense+vl6180+bme280\Design01.cydsn/BME280.c **** //  This uses the stored SensorSettings to start the IMU
  68:..\..\ble-beacon_capsense+vl6180+bme280\Design01.cydsn/BME280.c **** //  Use statements such as "mySensor.settings.commInterface = SPI_MODE;" to 
  69:..\..\ble-beacon_capsense+vl6180+bme280\Design01.cydsn/BME280.c **** //  configure before calling .begin();
  70:..\..\ble-beacon_capsense+vl6180+bme280\Design01.cydsn/BME280.c **** //
  71:..\..\ble-beacon_capsense+vl6180+bme280\Design01.cydsn/BME280.c **** //****************************************************************************//
  72:..\..\ble-beacon_capsense+vl6180+bme280\Design01.cydsn/BME280.c **** uint8_t BME280_init()
  73:..\..\ble-beacon_capsense+vl6180+bme280\Design01.cydsn/BME280.c **** {
 105              		.loc 1 73 0
 106              		.cfi_startproc
 107              		@ args = 0, pretend = 0, frame = 8
 108              		@ frame_needed = 1, uses_anonymous_args = 0
 109 0000 90B5     		push	{r4, r7, lr}
 110              		.cfi_def_cfa_offset 12
 111              		.cfi_offset 4, -12
 112              		.cfi_offset 7, -8
 113              		.cfi_offset 14, -4
 114 0002 83B0     		sub	sp, sp, #12
 115              		.cfi_def_cfa_offset 24
 116 0004 00AF     		add	r7, sp, #0
 117              		.cfi_def_cfa_register 7
  74:..\..\ble-beacon_capsense+vl6180+bme280\Design01.cydsn/BME280.c **** 	//Check the settings structure values to determine how to setup the device
  75:..\..\ble-beacon_capsense+vl6180+bme280\Design01.cydsn/BME280.c **** 	uint8_t data_to_write = 0, device_address;  //Temporary variable
 118              		.loc 1 75 0
 119 0006 FB1D     		adds	r3, r7, #7
 120 0008 0022     		movs	r2, #0
 121 000a 1A70     		strb	r2, [r3]
  76:..\..\ble-beacon_capsense+vl6180+bme280\Design01.cydsn/BME280.c **** 	SCB_1_Start();
 122              		.loc 1 76 0
 123 000c FFF7FEFF 		bl	SCB_1_Start
  77:..\..\ble-beacon_capsense+vl6180+bme280\Design01.cydsn/BME280.c ****     //I2C_Sleep();
  78:..\..\ble-beacon_capsense+vl6180+bme280\Design01.cydsn/BME280.c ****     
  79:..\..\ble-beacon_capsense+vl6180+bme280\Design01.cydsn/BME280.c **** 	//Reading all compensation data, range 0x88:A1, 0xE1:E7
  80:..\..\ble-beacon_capsense+vl6180+bme280\Design01.cydsn/BME280.c **** 	bme280.calibration.dig_T1 = ((uint16_t)((BME280_readRegister(BME280_DIG_T1_MSB_REG) << 8) + BME280
 124              		.loc 1 80 0
 125 0010 8920     		movs	r0, #137
 126 0012 FFF7FEFF 		bl	BME280_readRegister
 127 0016 0300     		movs	r3, r0
 128 0018 9BB2     		uxth	r3, r3
 129 001a 1B02     		lsls	r3, r3, #8
 130 001c 9CB2     		uxth	r4, r3
 131 001e 8820     		movs	r0, #136
 132 0020 FFF7FEFF 		bl	BME280_readRegister
 133 0024 0300     		movs	r3, r0
 134 0026 9BB2     		uxth	r3, r3
 135 0028 E318     		adds	r3, r4, r3
 136 002a 9AB2     		uxth	r2, r3
 137 002c B44B     		ldr	r3, .L5
 138 002e 5A81     		strh	r2, [r3, #10]
  81:..\..\ble-beacon_capsense+vl6180+bme280\Design01.cydsn/BME280.c **** 	bme280.calibration.dig_T2 = ((int16_t)((BME280_readRegister(BME280_DIG_T2_MSB_REG) << 8) + BME280_
 139              		.loc 1 81 0
 140 0030 8B20     		movs	r0, #139
 141 0032 FFF7FEFF 		bl	BME280_readRegister
 142 0036 0300     		movs	r3, r0
 143 0038 9BB2     		uxth	r3, r3
ARM GAS  C:\Users\d4hhm\AppData\Local\Temp\ccCDokDf.s 			page 5


 144 003a 1B02     		lsls	r3, r3, #8
 145 003c 9CB2     		uxth	r4, r3
 146 003e 8A20     		movs	r0, #138
 147 0040 FFF7FEFF 		bl	BME280_readRegister
 148 0044 0300     		movs	r3, r0
 149 0046 9BB2     		uxth	r3, r3
 150 0048 E318     		adds	r3, r4, r3
 151 004a 9BB2     		uxth	r3, r3
 152 004c 1AB2     		sxth	r2, r3
 153 004e AC4B     		ldr	r3, .L5
 154 0050 9A81     		strh	r2, [r3, #12]
  82:..\..\ble-beacon_capsense+vl6180+bme280\Design01.cydsn/BME280.c **** 	bme280.calibration.dig_T3 = ((int16_t)((BME280_readRegister(BME280_DIG_T3_MSB_REG) << 8) + BME280_
 155              		.loc 1 82 0
 156 0052 8D20     		movs	r0, #141
 157 0054 FFF7FEFF 		bl	BME280_readRegister
 158 0058 0300     		movs	r3, r0
 159 005a 9BB2     		uxth	r3, r3
 160 005c 1B02     		lsls	r3, r3, #8
 161 005e 9CB2     		uxth	r4, r3
 162 0060 8C20     		movs	r0, #140
 163 0062 FFF7FEFF 		bl	BME280_readRegister
 164 0066 0300     		movs	r3, r0
 165 0068 9BB2     		uxth	r3, r3
 166 006a E318     		adds	r3, r4, r3
 167 006c 9BB2     		uxth	r3, r3
 168 006e 1AB2     		sxth	r2, r3
 169 0070 A34B     		ldr	r3, .L5
 170 0072 DA81     		strh	r2, [r3, #14]
  83:..\..\ble-beacon_capsense+vl6180+bme280\Design01.cydsn/BME280.c **** 
  84:..\..\ble-beacon_capsense+vl6180+bme280\Design01.cydsn/BME280.c **** 	bme280.calibration.dig_P1 = ((uint16_t)((BME280_readRegister(BME280_DIG_P1_MSB_REG) << 8) + BME280
 171              		.loc 1 84 0
 172 0074 8F20     		movs	r0, #143
 173 0076 FFF7FEFF 		bl	BME280_readRegister
 174 007a 0300     		movs	r3, r0
 175 007c 9BB2     		uxth	r3, r3
 176 007e 1B02     		lsls	r3, r3, #8
 177 0080 9CB2     		uxth	r4, r3
 178 0082 8E20     		movs	r0, #142
 179 0084 FFF7FEFF 		bl	BME280_readRegister
 180 0088 0300     		movs	r3, r0
 181 008a 9BB2     		uxth	r3, r3
 182 008c E318     		adds	r3, r4, r3
 183 008e 9AB2     		uxth	r2, r3
 184 0090 9B4B     		ldr	r3, .L5
 185 0092 1A82     		strh	r2, [r3, #16]
  85:..\..\ble-beacon_capsense+vl6180+bme280\Design01.cydsn/BME280.c **** 	bme280.calibration.dig_P2 = ((int16_t)((BME280_readRegister(BME280_DIG_P2_MSB_REG) << 8) + BME280_
 186              		.loc 1 85 0
 187 0094 9120     		movs	r0, #145
 188 0096 FFF7FEFF 		bl	BME280_readRegister
 189 009a 0300     		movs	r3, r0
 190 009c 9BB2     		uxth	r3, r3
 191 009e 1B02     		lsls	r3, r3, #8
 192 00a0 9CB2     		uxth	r4, r3
 193 00a2 9020     		movs	r0, #144
 194 00a4 FFF7FEFF 		bl	BME280_readRegister
 195 00a8 0300     		movs	r3, r0
 196 00aa 9BB2     		uxth	r3, r3
ARM GAS  C:\Users\d4hhm\AppData\Local\Temp\ccCDokDf.s 			page 6


 197 00ac E318     		adds	r3, r4, r3
 198 00ae 9BB2     		uxth	r3, r3
 199 00b0 1AB2     		sxth	r2, r3
 200 00b2 934B     		ldr	r3, .L5
 201 00b4 5A82     		strh	r2, [r3, #18]
  86:..\..\ble-beacon_capsense+vl6180+bme280\Design01.cydsn/BME280.c **** 	bme280.calibration.dig_P3 = ((int16_t)((BME280_readRegister(BME280_DIG_P3_MSB_REG) << 8) + BME280_
 202              		.loc 1 86 0
 203 00b6 9320     		movs	r0, #147
 204 00b8 FFF7FEFF 		bl	BME280_readRegister
 205 00bc 0300     		movs	r3, r0
 206 00be 9BB2     		uxth	r3, r3
 207 00c0 1B02     		lsls	r3, r3, #8
 208 00c2 9CB2     		uxth	r4, r3
 209 00c4 9220     		movs	r0, #146
 210 00c6 FFF7FEFF 		bl	BME280_readRegister
 211 00ca 0300     		movs	r3, r0
 212 00cc 9BB2     		uxth	r3, r3
 213 00ce E318     		adds	r3, r4, r3
 214 00d0 9BB2     		uxth	r3, r3
 215 00d2 1AB2     		sxth	r2, r3
 216 00d4 8A4B     		ldr	r3, .L5
 217 00d6 9A82     		strh	r2, [r3, #20]
  87:..\..\ble-beacon_capsense+vl6180+bme280\Design01.cydsn/BME280.c **** 	bme280.calibration.dig_P4 = ((int16_t)((BME280_readRegister(BME280_DIG_P4_MSB_REG) << 8) + BME280_
 218              		.loc 1 87 0
 219 00d8 9520     		movs	r0, #149
 220 00da FFF7FEFF 		bl	BME280_readRegister
 221 00de 0300     		movs	r3, r0
 222 00e0 9BB2     		uxth	r3, r3
 223 00e2 1B02     		lsls	r3, r3, #8
 224 00e4 9CB2     		uxth	r4, r3
 225 00e6 9420     		movs	r0, #148
 226 00e8 FFF7FEFF 		bl	BME280_readRegister
 227 00ec 0300     		movs	r3, r0
 228 00ee 9BB2     		uxth	r3, r3
 229 00f0 E318     		adds	r3, r4, r3
 230 00f2 9BB2     		uxth	r3, r3
 231 00f4 1AB2     		sxth	r2, r3
 232 00f6 824B     		ldr	r3, .L5
 233 00f8 DA82     		strh	r2, [r3, #22]
  88:..\..\ble-beacon_capsense+vl6180+bme280\Design01.cydsn/BME280.c **** 	bme280.calibration.dig_P5 = ((int16_t)((BME280_readRegister(BME280_DIG_P5_MSB_REG) << 8) + BME280_
 234              		.loc 1 88 0
 235 00fa 9720     		movs	r0, #151
 236 00fc FFF7FEFF 		bl	BME280_readRegister
 237 0100 0300     		movs	r3, r0
 238 0102 9BB2     		uxth	r3, r3
 239 0104 1B02     		lsls	r3, r3, #8
 240 0106 9CB2     		uxth	r4, r3
 241 0108 9620     		movs	r0, #150
 242 010a FFF7FEFF 		bl	BME280_readRegister
 243 010e 0300     		movs	r3, r0
 244 0110 9BB2     		uxth	r3, r3
 245 0112 E318     		adds	r3, r4, r3
 246 0114 9BB2     		uxth	r3, r3
 247 0116 1AB2     		sxth	r2, r3
 248 0118 794B     		ldr	r3, .L5
 249 011a 1A83     		strh	r2, [r3, #24]
  89:..\..\ble-beacon_capsense+vl6180+bme280\Design01.cydsn/BME280.c **** 	bme280.calibration.dig_P6 = ((int16_t)((BME280_readRegister(BME280_DIG_P6_MSB_REG) << 8) + BME280_
ARM GAS  C:\Users\d4hhm\AppData\Local\Temp\ccCDokDf.s 			page 7


 250              		.loc 1 89 0
 251 011c 9920     		movs	r0, #153
 252 011e FFF7FEFF 		bl	BME280_readRegister
 253 0122 0300     		movs	r3, r0
 254 0124 9BB2     		uxth	r3, r3
 255 0126 1B02     		lsls	r3, r3, #8
 256 0128 9CB2     		uxth	r4, r3
 257 012a 9820     		movs	r0, #152
 258 012c FFF7FEFF 		bl	BME280_readRegister
 259 0130 0300     		movs	r3, r0
 260 0132 9BB2     		uxth	r3, r3
 261 0134 E318     		adds	r3, r4, r3
 262 0136 9BB2     		uxth	r3, r3
 263 0138 1AB2     		sxth	r2, r3
 264 013a 714B     		ldr	r3, .L5
 265 013c 5A83     		strh	r2, [r3, #26]
  90:..\..\ble-beacon_capsense+vl6180+bme280\Design01.cydsn/BME280.c **** 	bme280.calibration.dig_P7 = ((int16_t)((BME280_readRegister(BME280_DIG_P7_MSB_REG) << 8) + BME280_
 266              		.loc 1 90 0
 267 013e 9B20     		movs	r0, #155
 268 0140 FFF7FEFF 		bl	BME280_readRegister
 269 0144 0300     		movs	r3, r0
 270 0146 9BB2     		uxth	r3, r3
 271 0148 1B02     		lsls	r3, r3, #8
 272 014a 9CB2     		uxth	r4, r3
 273 014c 9A20     		movs	r0, #154
 274 014e FFF7FEFF 		bl	BME280_readRegister
 275 0152 0300     		movs	r3, r0
 276 0154 9BB2     		uxth	r3, r3
 277 0156 E318     		adds	r3, r4, r3
 278 0158 9BB2     		uxth	r3, r3
 279 015a 1AB2     		sxth	r2, r3
 280 015c 684B     		ldr	r3, .L5
 281 015e 9A83     		strh	r2, [r3, #28]
  91:..\..\ble-beacon_capsense+vl6180+bme280\Design01.cydsn/BME280.c **** 	bme280.calibration.dig_P8 = ((int16_t)((BME280_readRegister(BME280_DIG_P8_MSB_REG) << 8) + BME280_
 282              		.loc 1 91 0
 283 0160 9D20     		movs	r0, #157
 284 0162 FFF7FEFF 		bl	BME280_readRegister
 285 0166 0300     		movs	r3, r0
 286 0168 9BB2     		uxth	r3, r3
 287 016a 1B02     		lsls	r3, r3, #8
 288 016c 9CB2     		uxth	r4, r3
 289 016e 9C20     		movs	r0, #156
 290 0170 FFF7FEFF 		bl	BME280_readRegister
 291 0174 0300     		movs	r3, r0
 292 0176 9BB2     		uxth	r3, r3
 293 0178 E318     		adds	r3, r4, r3
 294 017a 9BB2     		uxth	r3, r3
 295 017c 1AB2     		sxth	r2, r3
 296 017e 604B     		ldr	r3, .L5
 297 0180 DA83     		strh	r2, [r3, #30]
  92:..\..\ble-beacon_capsense+vl6180+bme280\Design01.cydsn/BME280.c **** 	bme280.calibration.dig_P9 = ((int16_t)((BME280_readRegister(BME280_DIG_P9_MSB_REG) << 8) + BME280_
 298              		.loc 1 92 0
 299 0182 9F20     		movs	r0, #159
 300 0184 FFF7FEFF 		bl	BME280_readRegister
 301 0188 0300     		movs	r3, r0
 302 018a 9BB2     		uxth	r3, r3
 303 018c 1B02     		lsls	r3, r3, #8
ARM GAS  C:\Users\d4hhm\AppData\Local\Temp\ccCDokDf.s 			page 8


 304 018e 9CB2     		uxth	r4, r3
 305 0190 9E20     		movs	r0, #158
 306 0192 FFF7FEFF 		bl	BME280_readRegister
 307 0196 0300     		movs	r3, r0
 308 0198 9BB2     		uxth	r3, r3
 309 019a E318     		adds	r3, r4, r3
 310 019c 9BB2     		uxth	r3, r3
 311 019e 1AB2     		sxth	r2, r3
 312 01a0 574B     		ldr	r3, .L5
 313 01a2 1A84     		strh	r2, [r3, #32]
  93:..\..\ble-beacon_capsense+vl6180+bme280\Design01.cydsn/BME280.c **** 
  94:..\..\ble-beacon_capsense+vl6180+bme280\Design01.cydsn/BME280.c **** 	bme280.calibration.dig_H1 = ((uint8_t)(BME280_readRegister(BME280_DIG_H1_REG)));
 314              		.loc 1 94 0
 315 01a4 A120     		movs	r0, #161
 316 01a6 FFF7FEFF 		bl	BME280_readRegister
 317 01aa 0300     		movs	r3, r0
 318 01ac 1900     		movs	r1, r3
 319 01ae 544B     		ldr	r3, .L5
 320 01b0 2222     		movs	r2, #34
 321 01b2 9954     		strb	r1, [r3, r2]
  95:..\..\ble-beacon_capsense+vl6180+bme280\Design01.cydsn/BME280.c **** 	bme280.calibration.dig_H2 = ((int16_t)((BME280_readRegister(BME280_DIG_H2_MSB_REG) << 8) + BME280_
 322              		.loc 1 95 0
 323 01b4 E220     		movs	r0, #226
 324 01b6 FFF7FEFF 		bl	BME280_readRegister
 325 01ba 0300     		movs	r3, r0
 326 01bc 9BB2     		uxth	r3, r3
 327 01be 1B02     		lsls	r3, r3, #8
 328 01c0 9CB2     		uxth	r4, r3
 329 01c2 E120     		movs	r0, #225
 330 01c4 FFF7FEFF 		bl	BME280_readRegister
 331 01c8 0300     		movs	r3, r0
 332 01ca 9BB2     		uxth	r3, r3
 333 01cc E318     		adds	r3, r4, r3
 334 01ce 9BB2     		uxth	r3, r3
 335 01d0 1AB2     		sxth	r2, r3
 336 01d2 4B4B     		ldr	r3, .L5
 337 01d4 9A84     		strh	r2, [r3, #36]
  96:..\..\ble-beacon_capsense+vl6180+bme280\Design01.cydsn/BME280.c **** 	bme280.calibration.dig_H3 = ((uint8_t)(BME280_readRegister(BME280_DIG_H3_REG)));
 338              		.loc 1 96 0
 339 01d6 E320     		movs	r0, #227
 340 01d8 FFF7FEFF 		bl	BME280_readRegister
 341 01dc 0300     		movs	r3, r0
 342 01de 1900     		movs	r1, r3
 343 01e0 474B     		ldr	r3, .L5
 344 01e2 2622     		movs	r2, #38
 345 01e4 9954     		strb	r1, [r3, r2]
  97:..\..\ble-beacon_capsense+vl6180+bme280\Design01.cydsn/BME280.c **** 	bme280.calibration.dig_H4 = ((int16_t)((BME280_readRegister(BME280_DIG_H4_MSB_REG) << 4) + (BME280
 346              		.loc 1 97 0
 347 01e6 E420     		movs	r0, #228
 348 01e8 FFF7FEFF 		bl	BME280_readRegister
 349 01ec 0300     		movs	r3, r0
 350 01ee 9BB2     		uxth	r3, r3
 351 01f0 1B01     		lsls	r3, r3, #4
 352 01f2 9CB2     		uxth	r4, r3
 353 01f4 E520     		movs	r0, #229
 354 01f6 FFF7FEFF 		bl	BME280_readRegister
 355 01fa 0300     		movs	r3, r0
ARM GAS  C:\Users\d4hhm\AppData\Local\Temp\ccCDokDf.s 			page 9


 356 01fc 9BB2     		uxth	r3, r3
 357 01fe 0F22     		movs	r2, #15
 358 0200 1340     		ands	r3, r2
 359 0202 9BB2     		uxth	r3, r3
 360 0204 E318     		adds	r3, r4, r3
 361 0206 9BB2     		uxth	r3, r3
 362 0208 1AB2     		sxth	r2, r3
 363 020a 3D4B     		ldr	r3, .L5
 364 020c 1A85     		strh	r2, [r3, #40]
  98:..\..\ble-beacon_capsense+vl6180+bme280\Design01.cydsn/BME280.c **** 	bme280.calibration.dig_H5 = ((int16_t)((BME280_readRegister(BME280_DIG_H5_MSB_REG) << 4) + ((BME28
 365              		.loc 1 98 0
 366 020e E620     		movs	r0, #230
 367 0210 FFF7FEFF 		bl	BME280_readRegister
 368 0214 0300     		movs	r3, r0
 369 0216 9BB2     		uxth	r3, r3
 370 0218 1B01     		lsls	r3, r3, #4
 371 021a 9CB2     		uxth	r4, r3
 372 021c E520     		movs	r0, #229
 373 021e FFF7FEFF 		bl	BME280_readRegister
 374 0222 0300     		movs	r3, r0
 375 0224 1B09     		lsrs	r3, r3, #4
 376 0226 DBB2     		uxtb	r3, r3
 377 0228 9BB2     		uxth	r3, r3
 378 022a 0F22     		movs	r2, #15
 379 022c 1340     		ands	r3, r2
 380 022e 9BB2     		uxth	r3, r3
 381 0230 E318     		adds	r3, r4, r3
 382 0232 9BB2     		uxth	r3, r3
 383 0234 1AB2     		sxth	r2, r3
 384 0236 324B     		ldr	r3, .L5
 385 0238 5A85     		strh	r2, [r3, #42]
  99:..\..\ble-beacon_capsense+vl6180+bme280\Design01.cydsn/BME280.c **** 	bme280.calibration.dig_H6 = ((uint8_t)BME280_readRegister(BME280_DIG_H6_REG));
 386              		.loc 1 99 0
 387 023a E720     		movs	r0, #231
 388 023c FFF7FEFF 		bl	BME280_readRegister
 389 0240 0300     		movs	r3, r0
 390 0242 1900     		movs	r1, r3
 391 0244 2E4B     		ldr	r3, .L5
 392 0246 2C22     		movs	r2, #44
 393 0248 9954     		strb	r1, [r3, r2]
 100:..\..\ble-beacon_capsense+vl6180+bme280\Design01.cydsn/BME280.c **** 
 101:..\..\ble-beacon_capsense+vl6180+bme280\Design01.cydsn/BME280.c **** 	//Set the oversampling control words.
 102:..\..\ble-beacon_capsense+vl6180+bme280\Design01.cydsn/BME280.c **** 	//config will only be writeable in sleep mode, so first insure that.
 103:..\..\ble-beacon_capsense+vl6180+bme280\Design01.cydsn/BME280.c **** 	BME280_writeRegister(BME280_CTRL_MEAS_REG, 0x00);
 394              		.loc 1 103 0
 395 024a 0021     		movs	r1, #0
 396 024c F420     		movs	r0, #244
 397 024e FFF7FEFF 		bl	BME280_writeRegister
 104:..\..\ble-beacon_capsense+vl6180+bme280\Design01.cydsn/BME280.c **** 	
 105:..\..\ble-beacon_capsense+vl6180+bme280\Design01.cydsn/BME280.c **** 	//Set the config word
 106:..\..\ble-beacon_capsense+vl6180+bme280\Design01.cydsn/BME280.c **** 	data_to_write = (bme280.settings.tStandby << 0x5) & 0xE0;
 398              		.loc 1 106 0
 399 0252 2B4B     		ldr	r3, .L5
 400 0254 1B79     		ldrb	r3, [r3, #4]
 401 0256 5A01     		lsls	r2, r3, #5
 402 0258 FB1D     		adds	r3, r7, #7
 403 025a 1A70     		strb	r2, [r3]
ARM GAS  C:\Users\d4hhm\AppData\Local\Temp\ccCDokDf.s 			page 10


 107:..\..\ble-beacon_capsense+vl6180+bme280\Design01.cydsn/BME280.c **** 	data_to_write |= (bme280.settings.filter << 0x02) & 0x1C;
 404              		.loc 1 107 0
 405 025c 284B     		ldr	r3, .L5
 406 025e 5B79     		ldrb	r3, [r3, #5]
 407 0260 9B00     		lsls	r3, r3, #2
 408 0262 5BB2     		sxtb	r3, r3
 409 0264 1C22     		movs	r2, #28
 410 0266 1340     		ands	r3, r2
 411 0268 5AB2     		sxtb	r2, r3
 412 026a FB1D     		adds	r3, r7, #7
 413 026c 1B78     		ldrb	r3, [r3]
 414 026e 5BB2     		sxtb	r3, r3
 415 0270 1343     		orrs	r3, r2
 416 0272 5AB2     		sxtb	r2, r3
 417 0274 FB1D     		adds	r3, r7, #7
 418 0276 1A70     		strb	r2, [r3]
 108:..\..\ble-beacon_capsense+vl6180+bme280\Design01.cydsn/BME280.c **** 	BME280_writeRegister(BME280_CONFIG_REG, data_to_write);
 419              		.loc 1 108 0
 420 0278 FB1D     		adds	r3, r7, #7
 421 027a 1B78     		ldrb	r3, [r3]
 422 027c 1900     		movs	r1, r3
 423 027e F520     		movs	r0, #245
 424 0280 FFF7FEFF 		bl	BME280_writeRegister
 109:..\..\ble-beacon_capsense+vl6180+bme280\Design01.cydsn/BME280.c **** 	
 110:..\..\ble-beacon_capsense+vl6180+bme280\Design01.cydsn/BME280.c **** 	//Set ctrl_hum first, then ctrl_meas to activate ctrl_hum
 111:..\..\ble-beacon_capsense+vl6180+bme280\Design01.cydsn/BME280.c **** 	data_to_write = bme280.settings.humidOverSample & 0x07; //all other bits can be ignored
 425              		.loc 1 111 0
 426 0284 1E4B     		ldr	r3, .L5
 427 0286 1A7A     		ldrb	r2, [r3, #8]
 428 0288 FB1D     		adds	r3, r7, #7
 429 028a 0721     		movs	r1, #7
 430 028c 0A40     		ands	r2, r1
 431 028e 1A70     		strb	r2, [r3]
 112:..\..\ble-beacon_capsense+vl6180+bme280\Design01.cydsn/BME280.c **** 	BME280_writeRegister(BME280_CTRL_HUMIDITY_REG, data_to_write);
 432              		.loc 1 112 0
 433 0290 FB1D     		adds	r3, r7, #7
 434 0292 1B78     		ldrb	r3, [r3]
 435 0294 1900     		movs	r1, r3
 436 0296 F220     		movs	r0, #242
 437 0298 FFF7FEFF 		bl	BME280_writeRegister
 113:..\..\ble-beacon_capsense+vl6180+bme280\Design01.cydsn/BME280.c **** 	
 114:..\..\ble-beacon_capsense+vl6180+bme280\Design01.cydsn/BME280.c **** 	//set ctrl_meas
 115:..\..\ble-beacon_capsense+vl6180+bme280\Design01.cydsn/BME280.c **** 	//First, set temp oversampling
 116:..\..\ble-beacon_capsense+vl6180+bme280\Design01.cydsn/BME280.c **** 	data_to_write = (bme280.settings.tempOverSample << 0x05) & 0xE0;
 438              		.loc 1 116 0
 439 029c 184B     		ldr	r3, .L5
 440 029e 9B79     		ldrb	r3, [r3, #6]
 441 02a0 5A01     		lsls	r2, r3, #5
 442 02a2 FB1D     		adds	r3, r7, #7
 443 02a4 1A70     		strb	r2, [r3]
 117:..\..\ble-beacon_capsense+vl6180+bme280\Design01.cydsn/BME280.c **** 	//Next, pressure oversampling
 118:..\..\ble-beacon_capsense+vl6180+bme280\Design01.cydsn/BME280.c **** 	data_to_write |= (bme280.settings.pressOverSample << 0x02) & 0x1C;
 444              		.loc 1 118 0
 445 02a6 164B     		ldr	r3, .L5
 446 02a8 DB79     		ldrb	r3, [r3, #7]
 447 02aa 9B00     		lsls	r3, r3, #2
 448 02ac 5BB2     		sxtb	r3, r3
ARM GAS  C:\Users\d4hhm\AppData\Local\Temp\ccCDokDf.s 			page 11


 449 02ae 1C22     		movs	r2, #28
 450 02b0 1340     		ands	r3, r2
 451 02b2 5AB2     		sxtb	r2, r3
 452 02b4 FB1D     		adds	r3, r7, #7
 453 02b6 1B78     		ldrb	r3, [r3]
 454 02b8 5BB2     		sxtb	r3, r3
 455 02ba 1343     		orrs	r3, r2
 456 02bc 5AB2     		sxtb	r2, r3
 457 02be FB1D     		adds	r3, r7, #7
 458 02c0 1A70     		strb	r2, [r3]
 119:..\..\ble-beacon_capsense+vl6180+bme280\Design01.cydsn/BME280.c **** 	//Last, set mode
 120:..\..\ble-beacon_capsense+vl6180+bme280\Design01.cydsn/BME280.c **** 	data_to_write |= (bme280.settings.runMode) & 0x03;
 459              		.loc 1 120 0
 460 02c2 0F4B     		ldr	r3, .L5
 461 02c4 DB78     		ldrb	r3, [r3, #3]
 462 02c6 5BB2     		sxtb	r3, r3
 463 02c8 0322     		movs	r2, #3
 464 02ca 1340     		ands	r3, r2
 465 02cc 5AB2     		sxtb	r2, r3
 466 02ce FB1D     		adds	r3, r7, #7
 467 02d0 1B78     		ldrb	r3, [r3]
 468 02d2 5BB2     		sxtb	r3, r3
 469 02d4 1343     		orrs	r3, r2
 470 02d6 5AB2     		sxtb	r2, r3
 471 02d8 FB1D     		adds	r3, r7, #7
 472 02da 1A70     		strb	r2, [r3]
 121:..\..\ble-beacon_capsense+vl6180+bme280\Design01.cydsn/BME280.c **** 	//Load the byte
 122:..\..\ble-beacon_capsense+vl6180+bme280\Design01.cydsn/BME280.c **** 	BME280_writeRegister(BME280_CTRL_MEAS_REG, data_to_write);
 473              		.loc 1 122 0
 474 02dc FB1D     		adds	r3, r7, #7
 475 02de 1B78     		ldrb	r3, [r3]
 476 02e0 1900     		movs	r1, r3
 477 02e2 F420     		movs	r0, #244
 478 02e4 FFF7FEFF 		bl	BME280_writeRegister
 123:..\..\ble-beacon_capsense+vl6180+bme280\Design01.cydsn/BME280.c **** 	
 124:..\..\ble-beacon_capsense+vl6180+bme280\Design01.cydsn/BME280.c ****     // dataToWrite is a placeholder for the value we will return
 125:..\..\ble-beacon_capsense+vl6180+bme280\Design01.cydsn/BME280.c **** 	device_address = BME280_readRegister(0xD0);
 479              		.loc 1 125 0
 480 02e8 BC1D     		adds	r4, r7, #6
 481 02ea D020     		movs	r0, #208
 482 02ec FFF7FEFF 		bl	BME280_readRegister
 483 02f0 0300     		movs	r3, r0
 484 02f2 2370     		strb	r3, [r4]
 126:..\..\ble-beacon_capsense+vl6180+bme280\Design01.cydsn/BME280.c ****     return device_address;
 485              		.loc 1 126 0
 486 02f4 BB1D     		adds	r3, r7, #6
 487 02f6 1B78     		ldrb	r3, [r3]
 127:..\..\ble-beacon_capsense+vl6180+bme280\Design01.cydsn/BME280.c **** }
 488              		.loc 1 127 0
 489 02f8 1800     		movs	r0, r3
 490 02fa BD46     		mov	sp, r7
 491 02fc 03B0     		add	sp, sp, #12
 492              		@ sp needed
 493 02fe 90BD     		pop	{r4, r7, pc}
 494              	.L6:
 495              		.align	2
 496              	.L5:
ARM GAS  C:\Users\d4hhm\AppData\Local\Temp\ccCDokDf.s 			page 12


 497 0300 00000000 		.word	bme280
 498              		.cfi_endproc
 499              	.LFE37:
 500              		.size	BME280_init, .-BME280_init
 501              		.section	.text.BME280_reset,"ax",%progbits
 502              		.align	2
 503              		.global	BME280_reset
 504              		.code	16
 505              		.thumb_func
 506              		.type	BME280_reset, %function
 507              	BME280_reset:
 508              	.LFB38:
 128:..\..\ble-beacon_capsense+vl6180+bme280\Design01.cydsn/BME280.c **** 
 129:..\..\ble-beacon_capsense+vl6180+bme280\Design01.cydsn/BME280.c **** //Strictly resets.  Run BME280_init() afterwards
 130:..\..\ble-beacon_capsense+vl6180+bme280\Design01.cydsn/BME280.c **** void BME280_reset()
 131:..\..\ble-beacon_capsense+vl6180+bme280\Design01.cydsn/BME280.c **** {
 509              		.loc 1 131 0
 510              		.cfi_startproc
 511              		@ args = 0, pretend = 0, frame = 0
 512              		@ frame_needed = 1, uses_anonymous_args = 0
 513 0000 80B5     		push	{r7, lr}
 514              		.cfi_def_cfa_offset 8
 515              		.cfi_offset 7, -8
 516              		.cfi_offset 14, -4
 517 0002 00AF     		add	r7, sp, #0
 518              		.cfi_def_cfa_register 7
 132:..\..\ble-beacon_capsense+vl6180+bme280\Design01.cydsn/BME280.c **** 	BME280_writeRegister(BME280_RST_REG, 0xB6);
 519              		.loc 1 132 0
 520 0004 B621     		movs	r1, #182
 521 0006 E020     		movs	r0, #224
 522 0008 FFF7FEFF 		bl	BME280_writeRegister
 133:..\..\ble-beacon_capsense+vl6180+bme280\Design01.cydsn/BME280.c **** 	
 134:..\..\ble-beacon_capsense+vl6180+bme280\Design01.cydsn/BME280.c **** }
 523              		.loc 1 134 0
 524 000c C046     		nop
 525 000e BD46     		mov	sp, r7
 526              		@ sp needed
 527 0010 80BD     		pop	{r7, pc}
 528              		.cfi_endproc
 529              	.LFE38:
 530              		.size	BME280_reset, .-BME280_reset
 531              		.global	__aeabi_lmul
 532              		.global	__aeabi_ldivmod
 533              		.global	__aeabi_l2f
 534              		.global	__aeabi_fdiv
 535 0012 C046     		.section	.text.BME280_readFloatPressure,"ax",%progbits
 536              		.align	2
 537              		.global	BME280_readFloatPressure
 538              		.code	16
 539              		.thumb_func
 540              		.type	BME280_readFloatPressure, %function
 541              	BME280_readFloatPressure:
 542              	.LFB39:
 135:..\..\ble-beacon_capsense+vl6180+bme280\Design01.cydsn/BME280.c **** 
 136:..\..\ble-beacon_capsense+vl6180+bme280\Design01.cydsn/BME280.c **** //****************************************************************************//
 137:..\..\ble-beacon_capsense+vl6180+bme280\Design01.cydsn/BME280.c **** //
 138:..\..\ble-beacon_capsense+vl6180+bme280\Design01.cydsn/BME280.c **** //  Pressure Section
ARM GAS  C:\Users\d4hhm\AppData\Local\Temp\ccCDokDf.s 			page 13


 139:..\..\ble-beacon_capsense+vl6180+bme280\Design01.cydsn/BME280.c **** //
 140:..\..\ble-beacon_capsense+vl6180+bme280\Design01.cydsn/BME280.c **** //****************************************************************************//
 141:..\..\ble-beacon_capsense+vl6180+bme280\Design01.cydsn/BME280.c **** float BME280_readFloatPressure( void )
 142:..\..\ble-beacon_capsense+vl6180+bme280\Design01.cydsn/BME280.c **** {
 543              		.loc 1 142 0
 544              		.cfi_startproc
 545              		@ args = 0, pretend = 0, frame = 176
 546              		@ frame_needed = 1, uses_anonymous_args = 0
 547 0000 F0B5     		push	{r4, r5, r6, r7, lr}
 548              		.cfi_def_cfa_offset 20
 549              		.cfi_offset 4, -20
 550              		.cfi_offset 5, -16
 551              		.cfi_offset 6, -12
 552              		.cfi_offset 7, -8
 553              		.cfi_offset 14, -4
 554 0002 ADB0     		sub	sp, sp, #180
 555              		.cfi_def_cfa_offset 200
 556 0004 00AF     		add	r7, sp, #0
 557              		.cfi_def_cfa_register 7
 143:..\..\ble-beacon_capsense+vl6180+bme280\Design01.cydsn/BME280.c **** 
 144:..\..\ble-beacon_capsense+vl6180+bme280\Design01.cydsn/BME280.c **** 	// Returns pressure in Pa as unsigned 32 bit integer in Q24.8 format (24 integer bits and 8 fracti
 145:..\..\ble-beacon_capsense+vl6180+bme280\Design01.cydsn/BME280.c **** 	// Output value of “24674867” represents 24674867/256 = 96386.2 Pa = 963.862 hPa
 146:..\..\ble-beacon_capsense+vl6180+bme280\Design01.cydsn/BME280.c **** 	int32_t adc_P = ((uint32_t)BME280_readRegister(BME280_PRESSURE_MSB_REG) << 12) | ((uint32_t)BME280
 558              		.loc 1 146 0
 559 0006 F720     		movs	r0, #247
 560 0008 FFF7FEFF 		bl	BME280_readRegister
 561 000c 0300     		movs	r3, r0
 562 000e 1C03     		lsls	r4, r3, #12
 563 0010 F820     		movs	r0, #248
 564 0012 FFF7FEFF 		bl	BME280_readRegister
 565 0016 0300     		movs	r3, r0
 566 0018 1B01     		lsls	r3, r3, #4
 567 001a 1C43     		orrs	r4, r3
 568 001c F920     		movs	r0, #249
 569 001e FFF7FEFF 		bl	BME280_readRegister
 570 0022 0300     		movs	r3, r0
 571 0024 1B09     		lsrs	r3, r3, #4
 572 0026 DBB2     		uxtb	r3, r3
 573 0028 1A00     		movs	r2, r3
 574 002a 0F23     		movs	r3, #15
 575 002c 1340     		ands	r3, r2
 576 002e 2343     		orrs	r3, r4
 577 0030 AC22     		movs	r2, #172
 578 0032 BA18     		adds	r2, r7, r2
 579 0034 1360     		str	r3, [r2]
 147:..\..\ble-beacon_capsense+vl6180+bme280\Design01.cydsn/BME280.c **** 	
 148:..\..\ble-beacon_capsense+vl6180+bme280\Design01.cydsn/BME280.c **** 	int64_t var1, var2, p_acc;
 149:..\..\ble-beacon_capsense+vl6180+bme280\Design01.cydsn/BME280.c **** 	var1 = ((int64_t) bme280.t_fine) - 128000;
 580              		.loc 1 149 0
 581 0036 724B     		ldr	r3, .L11
 582 0038 1B6B     		ldr	r3, [r3, #48]
 583 003a 3B65     		str	r3, [r7, #80]
 584 003c DB17     		asrs	r3, r3, #31
 585 003e 7B65     		str	r3, [r7, #84]
 586 0040 704B     		ldr	r3, .L11+4
 587 0042 0124     		movs	r4, #1
 588 0044 6442     		rsbs	r4, r4, #0
ARM GAS  C:\Users\d4hhm\AppData\Local\Temp\ccCDokDf.s 			page 14


 589 0046 396D     		ldr	r1, [r7, #80]
 590 0048 7A6D     		ldr	r2, [r7, #84]
 591 004a C918     		adds	r1, r1, r3
 592 004c 6241     		adcs	r2, r2, r4
 593 004e 0B00     		movs	r3, r1
 594 0050 1400     		movs	r4, r2
 595 0052 A022     		movs	r2, #160
 596 0054 BA18     		adds	r2, r7, r2
 597 0056 1360     		str	r3, [r2]
 598 0058 5460     		str	r4, [r2, #4]
 150:..\..\ble-beacon_capsense+vl6180+bme280\Design01.cydsn/BME280.c **** 	var2 = var1 * var1 * (int64_t) bme280.calibration.dig_P6;
 599              		.loc 1 150 0
 600 005a A023     		movs	r3, #160
 601 005c FB18     		adds	r3, r7, r3
 602 005e 1A68     		ldr	r2, [r3]
 603 0060 5B68     		ldr	r3, [r3, #4]
 604 0062 A021     		movs	r1, #160
 605 0064 7918     		adds	r1, r7, r1
 606 0066 0868     		ldr	r0, [r1]
 607 0068 4968     		ldr	r1, [r1, #4]
 608 006a FFF7FEFF 		bl	__aeabi_lmul
 609 006e 0300     		movs	r3, r0
 610 0070 0C00     		movs	r4, r1
 611 0072 1800     		movs	r0, r3
 612 0074 2100     		movs	r1, r4
 613 0076 624B     		ldr	r3, .L11
 614 0078 1A22     		movs	r2, #26
 615 007a 9B5E     		ldrsh	r3, [r3, r2]
 616 007c BB64     		str	r3, [r7, #72]
 617 007e DB17     		asrs	r3, r3, #31
 618 0080 FB64     		str	r3, [r7, #76]
 619 0082 BA6C     		ldr	r2, [r7, #72]
 620 0084 FB6C     		ldr	r3, [r7, #76]
 621 0086 FFF7FEFF 		bl	__aeabi_lmul
 622 008a 0300     		movs	r3, r0
 623 008c 0C00     		movs	r4, r1
 624 008e 9822     		movs	r2, #152
 625 0090 BA18     		adds	r2, r7, r2
 626 0092 1360     		str	r3, [r2]
 627 0094 5460     		str	r4, [r2, #4]
 151:..\..\ble-beacon_capsense+vl6180+bme280\Design01.cydsn/BME280.c **** 	var2 = var2 + ((var1 * (int64_t) bme280.calibration.dig_P5)<<17);
 628              		.loc 1 151 0
 629 0096 5A4B     		ldr	r3, .L11
 630 0098 1822     		movs	r2, #24
 631 009a 9B5E     		ldrsh	r3, [r3, r2]
 632 009c 3B64     		str	r3, [r7, #64]
 633 009e DB17     		asrs	r3, r3, #31
 634 00a0 7B64     		str	r3, [r7, #68]
 635 00a2 A023     		movs	r3, #160
 636 00a4 FB18     		adds	r3, r7, r3
 637 00a6 1A68     		ldr	r2, [r3]
 638 00a8 5B68     		ldr	r3, [r3, #4]
 639 00aa 386C     		ldr	r0, [r7, #64]
 640 00ac 796C     		ldr	r1, [r7, #68]
 641 00ae FFF7FEFF 		bl	__aeabi_lmul
 642 00b2 0300     		movs	r3, r0
 643 00b4 0C00     		movs	r4, r1
ARM GAS  C:\Users\d4hhm\AppData\Local\Temp\ccCDokDf.s 			page 15


 644 00b6 DA0B     		lsrs	r2, r3, #15
 645 00b8 6604     		lsls	r6, r4, #17
 646 00ba 1643     		orrs	r6, r2
 647 00bc 5D04     		lsls	r5, r3, #17
 648 00be 9823     		movs	r3, #152
 649 00c0 FB18     		adds	r3, r7, r3
 650 00c2 5C68     		ldr	r4, [r3, #4]
 651 00c4 1B68     		ldr	r3, [r3]
 652 00c6 5B19     		adds	r3, r3, r5
 653 00c8 7441     		adcs	r4, r4, r6
 654 00ca 9822     		movs	r2, #152
 655 00cc BA18     		adds	r2, r7, r2
 656 00ce 1360     		str	r3, [r2]
 657 00d0 5460     		str	r4, [r2, #4]
 152:..\..\ble-beacon_capsense+vl6180+bme280\Design01.cydsn/BME280.c **** 	var2 = var2 + (((int64_t) bme280.calibration.dig_P4)<<35);
 658              		.loc 1 152 0
 659 00d2 4B4B     		ldr	r3, .L11
 660 00d4 1622     		movs	r2, #22
 661 00d6 9B5E     		ldrsh	r3, [r3, r2]
 662 00d8 BB63     		str	r3, [r7, #56]
 663 00da DB17     		asrs	r3, r3, #31
 664 00dc FB63     		str	r3, [r7, #60]
 665 00de BB6B     		ldr	r3, [r7, #56]
 666 00e0 DB00     		lsls	r3, r3, #3
 667 00e2 7B63     		str	r3, [r7, #52]
 668 00e4 0023     		movs	r3, #0
 669 00e6 3B63     		str	r3, [r7, #48]
 670 00e8 9823     		movs	r3, #152
 671 00ea FB18     		adds	r3, r7, r3
 672 00ec 5C68     		ldr	r4, [r3, #4]
 673 00ee 1B68     		ldr	r3, [r3]
 674 00f0 396B     		ldr	r1, [r7, #48]
 675 00f2 7A6B     		ldr	r2, [r7, #52]
 676 00f4 5B18     		adds	r3, r3, r1
 677 00f6 5441     		adcs	r4, r4, r2
 678 00f8 9822     		movs	r2, #152
 679 00fa BA18     		adds	r2, r7, r2
 680 00fc 1360     		str	r3, [r2]
 681 00fe 5460     		str	r4, [r2, #4]
 153:..\..\ble-beacon_capsense+vl6180+bme280\Design01.cydsn/BME280.c **** 	var1 = ((var1 * var1 * (int64_t) bme280.calibration.dig_P3)>>8) + ((var1 * (int64_t) bme280.calibr
 682              		.loc 1 153 0
 683 0100 A023     		movs	r3, #160
 684 0102 FB18     		adds	r3, r7, r3
 685 0104 1A68     		ldr	r2, [r3]
 686 0106 5B68     		ldr	r3, [r3, #4]
 687 0108 A021     		movs	r1, #160
 688 010a 7918     		adds	r1, r7, r1
 689 010c 0868     		ldr	r0, [r1]
 690 010e 4968     		ldr	r1, [r1, #4]
 691 0110 FFF7FEFF 		bl	__aeabi_lmul
 692 0114 0300     		movs	r3, r0
 693 0116 0C00     		movs	r4, r1
 694 0118 1800     		movs	r0, r3
 695 011a 2100     		movs	r1, r4
 696 011c 384B     		ldr	r3, .L11
 697 011e 1422     		movs	r2, #20
 698 0120 9B5E     		ldrsh	r3, [r3, r2]
ARM GAS  C:\Users\d4hhm\AppData\Local\Temp\ccCDokDf.s 			page 16


 699 0122 BB62     		str	r3, [r7, #40]
 700 0124 DB17     		asrs	r3, r3, #31
 701 0126 FB62     		str	r3, [r7, #44]
 702 0128 BA6A     		ldr	r2, [r7, #40]
 703 012a FB6A     		ldr	r3, [r7, #44]
 704 012c FFF7FEFF 		bl	__aeabi_lmul
 705 0130 0300     		movs	r3, r0
 706 0132 0C00     		movs	r4, r1
 707 0134 2206     		lsls	r2, r4, #24
 708 0136 190A     		lsrs	r1, r3, #8
 709 0138 8820     		movs	r0, #136
 710 013a 3818     		adds	r0, r7, r0
 711 013c 0160     		str	r1, [r0]
 712 013e 8821     		movs	r1, #136
 713 0140 7918     		adds	r1, r7, r1
 714 0142 0968     		ldr	r1, [r1]
 715 0144 1143     		orrs	r1, r2
 716 0146 8822     		movs	r2, #136
 717 0148 BA18     		adds	r2, r7, r2
 718 014a 1160     		str	r1, [r2]
 719 014c 2312     		asrs	r3, r4, #8
 720 014e 8C22     		movs	r2, #140
 721 0150 BA18     		adds	r2, r7, r2
 722 0152 1360     		str	r3, [r2]
 723 0154 2A4B     		ldr	r3, .L11
 724 0156 1222     		movs	r2, #18
 725 0158 9B5E     		ldrsh	r3, [r3, r2]
 726 015a 3B62     		str	r3, [r7, #32]
 727 015c DB17     		asrs	r3, r3, #31
 728 015e 7B62     		str	r3, [r7, #36]
 729 0160 A023     		movs	r3, #160
 730 0162 FB18     		adds	r3, r7, r3
 731 0164 1A68     		ldr	r2, [r3]
 732 0166 5B68     		ldr	r3, [r3, #4]
 733 0168 386A     		ldr	r0, [r7, #32]
 734 016a 796A     		ldr	r1, [r7, #36]
 735 016c FFF7FEFF 		bl	__aeabi_lmul
 736 0170 0300     		movs	r3, r0
 737 0172 0C00     		movs	r4, r1
 738 0174 1A0D     		lsrs	r2, r3, #20
 739 0176 2103     		lsls	r1, r4, #12
 740 0178 8420     		movs	r0, #132
 741 017a 3818     		adds	r0, r7, r0
 742 017c 0160     		str	r1, [r0]
 743 017e 8421     		movs	r1, #132
 744 0180 7918     		adds	r1, r7, r1
 745 0182 0968     		ldr	r1, [r1]
 746 0184 1143     		orrs	r1, r2
 747 0186 8422     		movs	r2, #132
 748 0188 BA18     		adds	r2, r7, r2
 749 018a 1160     		str	r1, [r2]
 750 018c 1B03     		lsls	r3, r3, #12
 751 018e 8022     		movs	r2, #128
 752 0190 BA18     		adds	r2, r7, r2
 753 0192 1360     		str	r3, [r2]
 754 0194 8823     		movs	r3, #136
 755 0196 FB18     		adds	r3, r7, r3
ARM GAS  C:\Users\d4hhm\AppData\Local\Temp\ccCDokDf.s 			page 17


 756 0198 5C68     		ldr	r4, [r3, #4]
 757 019a 1B68     		ldr	r3, [r3]
 758 019c 8022     		movs	r2, #128
 759 019e BA18     		adds	r2, r7, r2
 760 01a0 1168     		ldr	r1, [r2]
 761 01a2 5268     		ldr	r2, [r2, #4]
 762 01a4 5B18     		adds	r3, r3, r1
 763 01a6 5441     		adcs	r4, r4, r2
 764 01a8 A022     		movs	r2, #160
 765 01aa BA18     		adds	r2, r7, r2
 766 01ac 1360     		str	r3, [r2]
 767 01ae 5460     		str	r4, [r2, #4]
 154:..\..\ble-beacon_capsense+vl6180+bme280\Design01.cydsn/BME280.c **** 	var1 = (((((int64_t)1)<<47)+var1))*((int64_t) bme280.calibration.dig_P1)>>33;
 768              		.loc 1 154 0
 769 01b0 A023     		movs	r3, #160
 770 01b2 FB18     		adds	r3, r7, r3
 771 01b4 1968     		ldr	r1, [r3]
 772 01b6 5A68     		ldr	r2, [r3, #4]
 773 01b8 0023     		movs	r3, #0
 774 01ba 8024     		movs	r4, #128
 775 01bc 2402     		lsls	r4, r4, #8
 776 01be C918     		adds	r1, r1, r3
 777 01c0 6241     		adcs	r2, r2, r4
 778 01c2 0800     		movs	r0, r1
 779 01c4 1100     		movs	r1, r2
 780 01c6 0E4B     		ldr	r3, .L11
 781 01c8 1B8A     		ldrh	r3, [r3, #16]
 782 01ca BB61     		str	r3, [r7, #24]
 783 01cc 0023     		movs	r3, #0
 784 01ce FB61     		str	r3, [r7, #28]
 785 01d0 BA69     		ldr	r2, [r7, #24]
 786 01d2 FB69     		ldr	r3, [r7, #28]
 787 01d4 FFF7FEFF 		bl	__aeabi_lmul
 788 01d8 0300     		movs	r3, r0
 789 01da 0C00     		movs	r4, r1
 790 01dc 6210     		asrs	r2, r4, #1
 791 01de A021     		movs	r1, #160
 792 01e0 7918     		adds	r1, r7, r1
 793 01e2 0A60     		str	r2, [r1]
 794 01e4 E317     		asrs	r3, r4, #31
 795 01e6 A422     		movs	r2, #164
 796 01e8 BA18     		adds	r2, r7, r2
 797 01ea 1360     		str	r3, [r2]
 155:..\..\ble-beacon_capsense+vl6180+bme280\Design01.cydsn/BME280.c **** 	if (var1 == 0)
 798              		.loc 1 155 0
 799 01ec A023     		movs	r3, #160
 800 01ee FB18     		adds	r3, r7, r3
 801 01f0 1A68     		ldr	r2, [r3]
 802 01f2 A423     		movs	r3, #164
 803 01f4 FB18     		adds	r3, r7, r3
 804 01f6 1B68     		ldr	r3, [r3]
 805 01f8 1A43     		orrs	r2, r3
 806 01fa 05D1     		bne	.L9
 156:..\..\ble-beacon_capsense+vl6180+bme280\Design01.cydsn/BME280.c **** 	{
 157:..\..\ble-beacon_capsense+vl6180+bme280\Design01.cydsn/BME280.c **** 		return 0; // avoid exception caused by division by zero
 807              		.loc 1 157 0
 808 01fc 0023     		movs	r3, #0
ARM GAS  C:\Users\d4hhm\AppData\Local\Temp\ccCDokDf.s 			page 18


 809 01fe E0E0     		b	.L10
 810              	.L12:
 811              		.align	2
 812              	.L11:
 813 0200 00000000 		.word	bme280
 814 0204 000CFEFF 		.word	-128000
 815              	.L9:
 158:..\..\ble-beacon_capsense+vl6180+bme280\Design01.cydsn/BME280.c **** 	}
 159:..\..\ble-beacon_capsense+vl6180+bme280\Design01.cydsn/BME280.c **** 	p_acc = 1048576 - adc_P;
 816              		.loc 1 159 0
 817 0208 AC23     		movs	r3, #172
 818 020a FB18     		adds	r3, r7, r3
 819 020c 1A68     		ldr	r2, [r3]
 820 020e 8023     		movs	r3, #128
 821 0210 5B03     		lsls	r3, r3, #13
 822 0212 9B1A     		subs	r3, r3, r2
 823 0214 9022     		movs	r2, #144
 824 0216 BA18     		adds	r2, r7, r2
 825 0218 1360     		str	r3, [r2]
 826 021a DB17     		asrs	r3, r3, #31
 827 021c 9422     		movs	r2, #148
 828 021e BA18     		adds	r2, r7, r2
 829 0220 1360     		str	r3, [r2]
 160:..\..\ble-beacon_capsense+vl6180+bme280\Design01.cydsn/BME280.c **** 	p_acc = (((p_acc<<31) - var2)*3125)/var1;
 830              		.loc 1 160 0
 831 0222 9023     		movs	r3, #144
 832 0224 FB18     		adds	r3, r7, r3
 833 0226 1B68     		ldr	r3, [r3]
 834 0228 5A08     		lsrs	r2, r3, #1
 835 022a 9423     		movs	r3, #148
 836 022c FB18     		adds	r3, r7, r3
 837 022e 1B68     		ldr	r3, [r3]
 838 0230 DB07     		lsls	r3, r3, #31
 839 0232 FB67     		str	r3, [r7, #124]
 840 0234 FB6F     		ldr	r3, [r7, #124]
 841 0236 1343     		orrs	r3, r2
 842 0238 FB67     		str	r3, [r7, #124]
 843 023a 9023     		movs	r3, #144
 844 023c FB18     		adds	r3, r7, r3
 845 023e 1B68     		ldr	r3, [r3]
 846 0240 DB07     		lsls	r3, r3, #31
 847 0242 BB67     		str	r3, [r7, #120]
 848 0244 9823     		movs	r3, #152
 849 0246 FB18     		adds	r3, r7, r3
 850 0248 5C68     		ldr	r4, [r3, #4]
 851 024a 1B68     		ldr	r3, [r3]
 852 024c B86F     		ldr	r0, [r7, #120]
 853 024e F96F     		ldr	r1, [r7, #124]
 854 0250 C01A     		subs	r0, r0, r3
 855 0252 A141     		sbcs	r1, r1, r4
 856 0254 5D4A     		ldr	r2, .L13
 857 0256 0023     		movs	r3, #0
 858 0258 FFF7FEFF 		bl	__aeabi_lmul
 859 025c 0300     		movs	r3, r0
 860 025e 0C00     		movs	r4, r1
 861 0260 1800     		movs	r0, r3
 862 0262 2100     		movs	r1, r4
ARM GAS  C:\Users\d4hhm\AppData\Local\Temp\ccCDokDf.s 			page 19


 863 0264 A023     		movs	r3, #160
 864 0266 FB18     		adds	r3, r7, r3
 865 0268 1A68     		ldr	r2, [r3]
 866 026a 5B68     		ldr	r3, [r3, #4]
 867 026c FFF7FEFF 		bl	__aeabi_ldivmod
 868 0270 0300     		movs	r3, r0
 869 0272 0C00     		movs	r4, r1
 870 0274 9022     		movs	r2, #144
 871 0276 BA18     		adds	r2, r7, r2
 872 0278 1360     		str	r3, [r2]
 873 027a 5460     		str	r4, [r2, #4]
 161:..\..\ble-beacon_capsense+vl6180+bme280\Design01.cydsn/BME280.c **** 	var1 = (((int64_t) bme280.calibration.dig_P9) * (p_acc>>13) * (p_acc>>13)) >> 25;
 874              		.loc 1 161 0
 875 027c 544B     		ldr	r3, .L13+4
 876 027e 2022     		movs	r2, #32
 877 0280 9B5E     		ldrsh	r3, [r3, r2]
 878 0282 3B61     		str	r3, [r7, #16]
 879 0284 DB17     		asrs	r3, r3, #31
 880 0286 7B61     		str	r3, [r7, #20]
 881 0288 9423     		movs	r3, #148
 882 028a FB18     		adds	r3, r7, r3
 883 028c 1B68     		ldr	r3, [r3]
 884 028e DA04     		lsls	r2, r3, #19
 885 0290 9023     		movs	r3, #144
 886 0292 FB18     		adds	r3, r7, r3
 887 0294 1B68     		ldr	r3, [r3]
 888 0296 5B0B     		lsrs	r3, r3, #13
 889 0298 3B67     		str	r3, [r7, #112]
 890 029a 3B6F     		ldr	r3, [r7, #112]
 891 029c 1343     		orrs	r3, r2
 892 029e 3B67     		str	r3, [r7, #112]
 893 02a0 9423     		movs	r3, #148
 894 02a2 FB18     		adds	r3, r7, r3
 895 02a4 1B68     		ldr	r3, [r3]
 896 02a6 5B13     		asrs	r3, r3, #13
 897 02a8 7B67     		str	r3, [r7, #116]
 898 02aa 3A6F     		ldr	r2, [r7, #112]
 899 02ac 7B6F     		ldr	r3, [r7, #116]
 900 02ae 3869     		ldr	r0, [r7, #16]
 901 02b0 7969     		ldr	r1, [r7, #20]
 902 02b2 FFF7FEFF 		bl	__aeabi_lmul
 903 02b6 0300     		movs	r3, r0
 904 02b8 0C00     		movs	r4, r1
 905 02ba 1800     		movs	r0, r3
 906 02bc 2100     		movs	r1, r4
 907 02be 9423     		movs	r3, #148
 908 02c0 FB18     		adds	r3, r7, r3
 909 02c2 1B68     		ldr	r3, [r3]
 910 02c4 DA04     		lsls	r2, r3, #19
 911 02c6 9023     		movs	r3, #144
 912 02c8 FB18     		adds	r3, r7, r3
 913 02ca 1B68     		ldr	r3, [r3]
 914 02cc 5B0B     		lsrs	r3, r3, #13
 915 02ce BB66     		str	r3, [r7, #104]
 916 02d0 BB6E     		ldr	r3, [r7, #104]
 917 02d2 1343     		orrs	r3, r2
 918 02d4 BB66     		str	r3, [r7, #104]
ARM GAS  C:\Users\d4hhm\AppData\Local\Temp\ccCDokDf.s 			page 20


 919 02d6 9423     		movs	r3, #148
 920 02d8 FB18     		adds	r3, r7, r3
 921 02da 1B68     		ldr	r3, [r3]
 922 02dc 5B13     		asrs	r3, r3, #13
 923 02de FB66     		str	r3, [r7, #108]
 924 02e0 BA6E     		ldr	r2, [r7, #104]
 925 02e2 FB6E     		ldr	r3, [r7, #108]
 926 02e4 FFF7FEFF 		bl	__aeabi_lmul
 927 02e8 0300     		movs	r3, r0
 928 02ea 0C00     		movs	r4, r1
 929 02ec E201     		lsls	r2, r4, #7
 930 02ee 590E     		lsrs	r1, r3, #25
 931 02f0 0A43     		orrs	r2, r1
 932 02f2 A021     		movs	r1, #160
 933 02f4 7918     		adds	r1, r7, r1
 934 02f6 0A60     		str	r2, [r1]
 935 02f8 6316     		asrs	r3, r4, #25
 936 02fa A422     		movs	r2, #164
 937 02fc BA18     		adds	r2, r7, r2
 938 02fe 1360     		str	r3, [r2]
 162:..\..\ble-beacon_capsense+vl6180+bme280\Design01.cydsn/BME280.c **** 	var2 = (((int64_t) bme280.calibration.dig_P8) * p_acc) >> 19;
 939              		.loc 1 162 0
 940 0300 334B     		ldr	r3, .L13+4
 941 0302 1E22     		movs	r2, #30
 942 0304 9B5E     		ldrsh	r3, [r3, r2]
 943 0306 BB60     		str	r3, [r7, #8]
 944 0308 DB17     		asrs	r3, r3, #31
 945 030a FB60     		str	r3, [r7, #12]
 946 030c 9023     		movs	r3, #144
 947 030e FB18     		adds	r3, r7, r3
 948 0310 1A68     		ldr	r2, [r3]
 949 0312 5B68     		ldr	r3, [r3, #4]
 950 0314 B868     		ldr	r0, [r7, #8]
 951 0316 F968     		ldr	r1, [r7, #12]
 952 0318 FFF7FEFF 		bl	__aeabi_lmul
 953 031c 0300     		movs	r3, r0
 954 031e 0C00     		movs	r4, r1
 955 0320 6203     		lsls	r2, r4, #13
 956 0322 D90C     		lsrs	r1, r3, #19
 957 0324 0A43     		orrs	r2, r1
 958 0326 9821     		movs	r1, #152
 959 0328 7918     		adds	r1, r7, r1
 960 032a 0A60     		str	r2, [r1]
 961 032c E314     		asrs	r3, r4, #19
 962 032e 9C22     		movs	r2, #156
 963 0330 BA18     		adds	r2, r7, r2
 964 0332 1360     		str	r3, [r2]
 163:..\..\ble-beacon_capsense+vl6180+bme280\Design01.cydsn/BME280.c **** 	p_acc = ((p_acc + var1 + var2) >> 8) + (((int64_t) bme280.calibration.dig_P7)<<4);
 965              		.loc 1 163 0
 966 0334 9023     		movs	r3, #144
 967 0336 FB18     		adds	r3, r7, r3
 968 0338 1968     		ldr	r1, [r3]
 969 033a 5A68     		ldr	r2, [r3, #4]
 970 033c A023     		movs	r3, #160
 971 033e FB18     		adds	r3, r7, r3
 972 0340 5C68     		ldr	r4, [r3, #4]
 973 0342 1B68     		ldr	r3, [r3]
ARM GAS  C:\Users\d4hhm\AppData\Local\Temp\ccCDokDf.s 			page 21


 974 0344 C918     		adds	r1, r1, r3
 975 0346 6241     		adcs	r2, r2, r4
 976 0348 9823     		movs	r3, #152
 977 034a FB18     		adds	r3, r7, r3
 978 034c 5C68     		ldr	r4, [r3, #4]
 979 034e 1B68     		ldr	r3, [r3]
 980 0350 5B18     		adds	r3, r3, r1
 981 0352 5441     		adcs	r4, r4, r2
 982 0354 2206     		lsls	r2, r4, #24
 983 0356 190A     		lsrs	r1, r3, #8
 984 0358 3966     		str	r1, [r7, #96]
 985 035a 396E     		ldr	r1, [r7, #96]
 986 035c 1143     		orrs	r1, r2
 987 035e 3966     		str	r1, [r7, #96]
 988 0360 2312     		asrs	r3, r4, #8
 989 0362 7B66     		str	r3, [r7, #100]
 990 0364 1A4B     		ldr	r3, .L13+4
 991 0366 1C22     		movs	r2, #28
 992 0368 9B5E     		ldrsh	r3, [r3, r2]
 993 036a 3B60     		str	r3, [r7]
 994 036c DB17     		asrs	r3, r3, #31
 995 036e 7B60     		str	r3, [r7, #4]
 996 0370 3968     		ldr	r1, [r7]
 997 0372 7A68     		ldr	r2, [r7, #4]
 998 0374 0B00     		movs	r3, r1
 999 0376 1B0F     		lsrs	r3, r3, #28
 1000 0378 1000     		movs	r0, r2
 1001 037a 0001     		lsls	r0, r0, #4
 1002 037c F865     		str	r0, [r7, #92]
 1003 037e F86D     		ldr	r0, [r7, #92]
 1004 0380 1843     		orrs	r0, r3
 1005 0382 F865     		str	r0, [r7, #92]
 1006 0384 0B00     		movs	r3, r1
 1007 0386 1B01     		lsls	r3, r3, #4
 1008 0388 BB65     		str	r3, [r7, #88]
 1009 038a 3B6E     		ldr	r3, [r7, #96]
 1010 038c 7C6E     		ldr	r4, [r7, #100]
 1011 038e B96D     		ldr	r1, [r7, #88]
 1012 0390 FA6D     		ldr	r2, [r7, #92]
 1013 0392 5B18     		adds	r3, r3, r1
 1014 0394 5441     		adcs	r4, r4, r2
 1015 0396 9022     		movs	r2, #144
 1016 0398 BA18     		adds	r2, r7, r2
 1017 039a 1360     		str	r3, [r2]
 1018 039c 5460     		str	r4, [r2, #4]
 164:..\..\ble-beacon_capsense+vl6180+bme280\Design01.cydsn/BME280.c **** 	
 165:..\..\ble-beacon_capsense+vl6180+bme280\Design01.cydsn/BME280.c ****     bme280.press_Pa = (float)p_acc / 256.0;
 1019              		.loc 1 165 0
 1020 039e 9023     		movs	r3, #144
 1021 03a0 FB18     		adds	r3, r7, r3
 1022 03a2 1868     		ldr	r0, [r3]
 1023 03a4 5968     		ldr	r1, [r3, #4]
 1024 03a6 FFF7FEFF 		bl	__aeabi_l2f
 1025 03aa 031C     		adds	r3, r0, #0
 1026 03ac 8721     		movs	r1, #135
 1027 03ae C905     		lsls	r1, r1, #23
 1028 03b0 181C     		adds	r0, r3, #0
ARM GAS  C:\Users\d4hhm\AppData\Local\Temp\ccCDokDf.s 			page 22


 1029 03b2 FFF7FEFF 		bl	__aeabi_fdiv
 1030 03b6 031C     		adds	r3, r0, #0
 1031 03b8 1A1C     		adds	r2, r3, #0
 1032 03ba 054B     		ldr	r3, .L13+4
 1033 03bc 9A63     		str	r2, [r3, #56]
 166:..\..\ble-beacon_capsense+vl6180+bme280\Design01.cydsn/BME280.c ****     return bme280.press_Pa;
 1034              		.loc 1 166 0
 1035 03be 044B     		ldr	r3, .L13+4
 1036 03c0 9B6B     		ldr	r3, [r3, #56]
 1037              	.L10:
 167:..\..\ble-beacon_capsense+vl6180+bme280\Design01.cydsn/BME280.c **** 	
 168:..\..\ble-beacon_capsense+vl6180+bme280\Design01.cydsn/BME280.c **** }
 1038              		.loc 1 168 0
 1039 03c2 181C     		adds	r0, r3, #0
 1040 03c4 BD46     		mov	sp, r7
 1041 03c6 2DB0     		add	sp, sp, #180
 1042              		@ sp needed
 1043 03c8 F0BD     		pop	{r4, r5, r6, r7, pc}
 1044              	.L14:
 1045 03ca C046     		.align	2
 1046              	.L13:
 1047 03cc 350C0000 		.word	3125
 1048 03d0 00000000 		.word	bme280
 1049              		.cfi_endproc
 1050              	.LFE39:
 1051              		.size	BME280_readFloatPressure, .-BME280_readFloatPressure
 1052              		.global	__aeabi_f2d
 1053              		.global	__aeabi_dsub
 1054              		.global	__aeabi_dmul
 1055              		.global	__aeabi_d2f
 1056              		.section	.text.BME280_readFloatAltitudeMeters,"ax",%progbits
 1057              		.align	2
 1058              		.global	BME280_readFloatAltitudeMeters
 1059              		.code	16
 1060              		.thumb_func
 1061              		.type	BME280_readFloatAltitudeMeters, %function
 1062              	BME280_readFloatAltitudeMeters:
 1063              	.LFB40:
 169:..\..\ble-beacon_capsense+vl6180+bme280\Design01.cydsn/BME280.c **** 
 170:..\..\ble-beacon_capsense+vl6180+bme280\Design01.cydsn/BME280.c **** float BME280_readFloatAltitudeMeters( void )
 171:..\..\ble-beacon_capsense+vl6180+bme280\Design01.cydsn/BME280.c **** {
 1064              		.loc 1 171 0
 1065              		.cfi_startproc
 1066              		@ args = 0, pretend = 0, frame = 8
 1067              		@ frame_needed = 1, uses_anonymous_args = 0
 1068 0000 90B5     		push	{r4, r7, lr}
 1069              		.cfi_def_cfa_offset 12
 1070              		.cfi_offset 4, -12
 1071              		.cfi_offset 7, -8
 1072              		.cfi_offset 14, -4
 1073 0002 83B0     		sub	sp, sp, #12
 1074              		.cfi_def_cfa_offset 24
 1075 0004 00AF     		add	r7, sp, #0
 1076              		.cfi_def_cfa_register 7
 172:..\..\ble-beacon_capsense+vl6180+bme280\Design01.cydsn/BME280.c **** 	float heightOutput = 0;
 1077              		.loc 1 172 0
 1078 0006 0023     		movs	r3, #0
ARM GAS  C:\Users\d4hhm\AppData\Local\Temp\ccCDokDf.s 			page 23


 1079 0008 7B60     		str	r3, [r7, #4]
 173:..\..\ble-beacon_capsense+vl6180+bme280\Design01.cydsn/BME280.c **** 	
 174:..\..\ble-beacon_capsense+vl6180+bme280\Design01.cydsn/BME280.c **** 	heightOutput = ((float)-45846.2)*(pow(((float) BME280_readFloatPressure()/(float) P_SURFACE), 0.19
 1080              		.loc 1 174 0
 1081 000a FFF7FEFF 		bl	BME280_readFloatPressure
 1082 000e 031C     		adds	r3, r0, #0
 1083 0010 1349     		ldr	r1, .L17
 1084 0012 181C     		adds	r0, r3, #0
 1085 0014 FFF7FEFF 		bl	__aeabi_fdiv
 1086 0018 031C     		adds	r3, r0, #0
 1087 001a 181C     		adds	r0, r3, #0
 1088 001c FFF7FEFF 		bl	__aeabi_f2d
 1089 0020 104B     		ldr	r3, .L17+4
 1090 0022 114C     		ldr	r4, .L17+8
 1091 0024 1A00     		movs	r2, r3
 1092 0026 2300     		movs	r3, r4
 1093 0028 FFF7FEFF 		bl	pow
 1094 002c 0022     		movs	r2, #0
 1095 002e 0F4B     		ldr	r3, .L17+12
 1096 0030 FFF7FEFF 		bl	__aeabi_dsub
 1097 0034 0300     		movs	r3, r0
 1098 0036 0C00     		movs	r4, r1
 1099 0038 1800     		movs	r0, r3
 1100 003a 2100     		movs	r1, r4
 1101 003c C022     		movs	r2, #192
 1102 003e D205     		lsls	r2, r2, #23
 1103 0040 0B4B     		ldr	r3, .L17+16
 1104 0042 FFF7FEFF 		bl	__aeabi_dmul
 1105 0046 0300     		movs	r3, r0
 1106 0048 0C00     		movs	r4, r1
 1107 004a 1800     		movs	r0, r3
 1108 004c 2100     		movs	r1, r4
 1109 004e FFF7FEFF 		bl	__aeabi_d2f
 1110 0052 031C     		adds	r3, r0, #0
 1111 0054 7B60     		str	r3, [r7, #4]
 175:..\..\ble-beacon_capsense+vl6180+bme280\Design01.cydsn/BME280.c **** 	return heightOutput;
 1112              		.loc 1 175 0
 1113 0056 7B68     		ldr	r3, [r7, #4]
 176:..\..\ble-beacon_capsense+vl6180+bme280\Design01.cydsn/BME280.c **** 	
 177:..\..\ble-beacon_capsense+vl6180+bme280\Design01.cydsn/BME280.c **** }
 1114              		.loc 1 177 0
 1115 0058 181C     		adds	r0, r3, #0
 1116 005a BD46     		mov	sp, r7
 1117 005c 03B0     		add	sp, sp, #12
 1118              		@ sp needed
 1119 005e 90BD     		pop	{r4, r7, pc}
 1120              	.L18:
 1121              		.align	2
 1122              	.L17:
 1123 0060 80E6C547 		.word	1204151936
 1124 0064 C5C551B9 		.word	-1185823291
 1125 0068 895AC83F 		.word	1070094985
 1126 006c 0000F03F 		.word	1072693248
 1127 0070 C662E6C0 		.word	-1058643258
 1128              		.cfi_endproc
 1129              	.LFE40:
 1130              		.size	BME280_readFloatAltitudeMeters, .-BME280_readFloatAltitudeMeters
ARM GAS  C:\Users\d4hhm\AppData\Local\Temp\ccCDokDf.s 			page 24


 1131              		.section	.text.BME280_readFloatAltitudeFeet,"ax",%progbits
 1132              		.align	2
 1133              		.global	BME280_readFloatAltitudeFeet
 1134              		.code	16
 1135              		.thumb_func
 1136              		.type	BME280_readFloatAltitudeFeet, %function
 1137              	BME280_readFloatAltitudeFeet:
 1138              	.LFB41:
 178:..\..\ble-beacon_capsense+vl6180+bme280\Design01.cydsn/BME280.c **** 
 179:..\..\ble-beacon_capsense+vl6180+bme280\Design01.cydsn/BME280.c **** float BME280_readFloatAltitudeFeet( void )
 180:..\..\ble-beacon_capsense+vl6180+bme280\Design01.cydsn/BME280.c **** {
 1139              		.loc 1 180 0
 1140              		.cfi_startproc
 1141              		@ args = 0, pretend = 0, frame = 8
 1142              		@ frame_needed = 1, uses_anonymous_args = 0
 1143 0000 90B5     		push	{r4, r7, lr}
 1144              		.cfi_def_cfa_offset 12
 1145              		.cfi_offset 4, -12
 1146              		.cfi_offset 7, -8
 1147              		.cfi_offset 14, -4
 1148 0002 83B0     		sub	sp, sp, #12
 1149              		.cfi_def_cfa_offset 24
 1150 0004 00AF     		add	r7, sp, #0
 1151              		.cfi_def_cfa_register 7
 181:..\..\ble-beacon_capsense+vl6180+bme280\Design01.cydsn/BME280.c **** 	float heightOutput = 0;
 1152              		.loc 1 181 0
 1153 0006 0023     		movs	r3, #0
 1154 0008 7B60     		str	r3, [r7, #4]
 182:..\..\ble-beacon_capsense+vl6180+bme280\Design01.cydsn/BME280.c **** 	
 183:..\..\ble-beacon_capsense+vl6180+bme280\Design01.cydsn/BME280.c **** 	heightOutput = BME280_readFloatAltitudeMeters() * 3.28084;
 1155              		.loc 1 183 0
 1156 000a FFF7FEFF 		bl	BME280_readFloatAltitudeMeters
 1157 000e 031C     		adds	r3, r0, #0
 1158 0010 181C     		adds	r0, r3, #0
 1159 0012 FFF7FEFF 		bl	__aeabi_f2d
 1160 0016 084A     		ldr	r2, .L21
 1161 0018 084B     		ldr	r3, .L21+4
 1162 001a FFF7FEFF 		bl	__aeabi_dmul
 1163 001e 0300     		movs	r3, r0
 1164 0020 0C00     		movs	r4, r1
 1165 0022 1800     		movs	r0, r3
 1166 0024 2100     		movs	r1, r4
 1167 0026 FFF7FEFF 		bl	__aeabi_d2f
 1168 002a 031C     		adds	r3, r0, #0
 1169 002c 7B60     		str	r3, [r7, #4]
 184:..\..\ble-beacon_capsense+vl6180+bme280\Design01.cydsn/BME280.c **** 	return heightOutput;
 1170              		.loc 1 184 0
 1171 002e 7B68     		ldr	r3, [r7, #4]
 185:..\..\ble-beacon_capsense+vl6180+bme280\Design01.cydsn/BME280.c **** 	
 186:..\..\ble-beacon_capsense+vl6180+bme280\Design01.cydsn/BME280.c **** }
 1172              		.loc 1 186 0
 1173 0030 181C     		adds	r0, r3, #0
 1174 0032 BD46     		mov	sp, r7
 1175 0034 03B0     		add	sp, sp, #12
 1176              		@ sp needed
 1177 0036 90BD     		pop	{r4, r7, pc}
 1178              	.L22:
ARM GAS  C:\Users\d4hhm\AppData\Local\Temp\ccCDokDf.s 			page 25


 1179              		.align	2
 1180              	.L21:
 1181 0038 E544BB0A 		.word	180045029
 1182 003c 293F0A40 		.word	1074413353
 1183              		.cfi_endproc
 1184              	.LFE41:
 1185              		.size	BME280_readFloatAltitudeFeet, .-BME280_readFloatAltitudeFeet
 1186              		.global	__aeabi_i2f
 1187              		.section	.text.BME280_readFloatHumidity,"ax",%progbits
 1188              		.align	2
 1189              		.global	BME280_readFloatHumidity
 1190              		.code	16
 1191              		.thumb_func
 1192              		.type	BME280_readFloatHumidity, %function
 1193              	BME280_readFloatHumidity:
 1194              	.LFB42:
 187:..\..\ble-beacon_capsense+vl6180+bme280\Design01.cydsn/BME280.c **** 
 188:..\..\ble-beacon_capsense+vl6180+bme280\Design01.cydsn/BME280.c **** //****************************************************************************//
 189:..\..\ble-beacon_capsense+vl6180+bme280\Design01.cydsn/BME280.c **** //
 190:..\..\ble-beacon_capsense+vl6180+bme280\Design01.cydsn/BME280.c **** //  Humidity Section
 191:..\..\ble-beacon_capsense+vl6180+bme280\Design01.cydsn/BME280.c **** //
 192:..\..\ble-beacon_capsense+vl6180+bme280\Design01.cydsn/BME280.c **** //****************************************************************************//
 193:..\..\ble-beacon_capsense+vl6180+bme280\Design01.cydsn/BME280.c **** float BME280_readFloatHumidity( void )
 194:..\..\ble-beacon_capsense+vl6180+bme280\Design01.cydsn/BME280.c **** {
 1195              		.loc 1 194 0
 1196              		.cfi_startproc
 1197              		@ args = 0, pretend = 0, frame = 8
 1198              		@ frame_needed = 1, uses_anonymous_args = 0
 1199 0000 90B5     		push	{r4, r7, lr}
 1200              		.cfi_def_cfa_offset 12
 1201              		.cfi_offset 4, -12
 1202              		.cfi_offset 7, -8
 1203              		.cfi_offset 14, -4
 1204 0002 83B0     		sub	sp, sp, #12
 1205              		.cfi_def_cfa_offset 24
 1206 0004 00AF     		add	r7, sp, #0
 1207              		.cfi_def_cfa_register 7
 195:..\..\ble-beacon_capsense+vl6180+bme280\Design01.cydsn/BME280.c **** 	
 196:..\..\ble-beacon_capsense+vl6180+bme280\Design01.cydsn/BME280.c **** 	// Returns humidity in %RH as unsigned 32 bit integer in Q22. 10 format (22 integer and 10 fractio
 197:..\..\ble-beacon_capsense+vl6180+bme280\Design01.cydsn/BME280.c **** 	// Output value of “47445” represents 47445/1024 = 46. 333 %RH
 198:..\..\ble-beacon_capsense+vl6180+bme280\Design01.cydsn/BME280.c **** 	int32_t adc_H = ((uint32_t) BME280_readRegister(BME280_HUMIDITY_MSB_REG) << 8) | ((uint32_t) BME28
 1208              		.loc 1 198 0
 1209 0006 FD20     		movs	r0, #253
 1210 0008 FFF7FEFF 		bl	BME280_readRegister
 1211 000c 0300     		movs	r3, r0
 1212 000e 1C02     		lsls	r4, r3, #8
 1213 0010 FE20     		movs	r0, #254
 1214 0012 FFF7FEFF 		bl	BME280_readRegister
 1215 0016 0300     		movs	r3, r0
 1216 0018 2343     		orrs	r3, r4
 1217 001a 7B60     		str	r3, [r7, #4]
 199:..\..\ble-beacon_capsense+vl6180+bme280\Design01.cydsn/BME280.c **** 	
 200:..\..\ble-beacon_capsense+vl6180+bme280\Design01.cydsn/BME280.c **** 	int32_t var1;
 201:..\..\ble-beacon_capsense+vl6180+bme280\Design01.cydsn/BME280.c **** 	var1 = (bme280.t_fine - ((int32_t)76800));
 1218              		.loc 1 201 0
 1219 001c 354B     		ldr	r3, .L27
 1220 001e 1B6B     		ldr	r3, [r3, #48]
ARM GAS  C:\Users\d4hhm\AppData\Local\Temp\ccCDokDf.s 			page 26


 1221 0020 354A     		ldr	r2, .L27+4
 1222 0022 9446     		mov	ip, r2
 1223 0024 6344     		add	r3, r3, ip
 1224 0026 3B60     		str	r3, [r7]
 202:..\..\ble-beacon_capsense+vl6180+bme280\Design01.cydsn/BME280.c **** 	var1 = (((((adc_H << 14) - (((int32_t)bme280.calibration.dig_H4) << 20) - (((int32_t)bme280.calibr
 1225              		.loc 1 202 0
 1226 0028 7B68     		ldr	r3, [r7, #4]
 1227 002a 9A03     		lsls	r2, r3, #14
 1228 002c 314B     		ldr	r3, .L27
 1229 002e 2821     		movs	r1, #40
 1230 0030 5B5E     		ldrsh	r3, [r3, r1]
 1231 0032 1B05     		lsls	r3, r3, #20
 1232 0034 D21A     		subs	r2, r2, r3
 1233 0036 2F4B     		ldr	r3, .L27
 1234 0038 2A21     		movs	r1, #42
 1235 003a 5B5E     		ldrsh	r3, [r3, r1]
 1236 003c 1900     		movs	r1, r3
 1237 003e 3B68     		ldr	r3, [r7]
 1238 0040 4B43     		muls	r3, r1
 1239 0042 D31A     		subs	r3, r2, r3
 1240 0044 8022     		movs	r2, #128
 1241 0046 D201     		lsls	r2, r2, #7
 1242 0048 9446     		mov	ip, r2
 1243 004a 6344     		add	r3, r3, ip
 203:..\..\ble-beacon_capsense+vl6180+bme280\Design01.cydsn/BME280.c **** 	((int32_t)16384)) >> 15) * (((((((var1 * ((int32_t)bme280.calibration.dig_H6)) >> 10) * (((var1 * 
 1244              		.loc 1 203 0
 1245 004c DB13     		asrs	r3, r3, #15
 1246 004e 294A     		ldr	r2, .L27
 1247 0050 2C21     		movs	r1, #44
 1248 0052 525C     		ldrb	r2, [r2, r1]
 1249 0054 1100     		movs	r1, r2
 1250 0056 3A68     		ldr	r2, [r7]
 1251 0058 4A43     		muls	r2, r1
 1252 005a 9212     		asrs	r2, r2, #10
 1253 005c 2549     		ldr	r1, .L27
 1254 005e 2620     		movs	r0, #38
 1255 0060 095C     		ldrb	r1, [r1, r0]
 1256 0062 0800     		movs	r0, r1
 1257 0064 3968     		ldr	r1, [r7]
 1258 0066 4143     		muls	r1, r0
 1259 0068 C912     		asrs	r1, r1, #11
 1260 006a 8020     		movs	r0, #128
 1261 006c 0002     		lsls	r0, r0, #8
 1262 006e 8446     		mov	ip, r0
 1263 0070 6144     		add	r1, r1, ip
 1264 0072 4A43     		muls	r2, r1
 1265 0074 9212     		asrs	r2, r2, #10
 1266 0076 8021     		movs	r1, #128
 1267 0078 8903     		lsls	r1, r1, #14
 1268 007a 8C46     		mov	ip, r1
 1269 007c 6244     		add	r2, r2, ip
 204:..\..\ble-beacon_capsense+vl6180+bme280\Design01.cydsn/BME280.c **** 	((int32_t)bme280.calibration.dig_H2) + 8192) >> 14));
 1270              		.loc 1 204 0
 1271 007e 1D49     		ldr	r1, .L27
 1272 0080 2420     		movs	r0, #36
 1273 0082 095E     		ldrsh	r1, [r1, r0]
 203:..\..\ble-beacon_capsense+vl6180+bme280\Design01.cydsn/BME280.c **** 	((int32_t)16384)) >> 15) * (((((((var1 * ((int32_t)bme280.calibration.dig_H6)) >> 10) * (((var1 * 
ARM GAS  C:\Users\d4hhm\AppData\Local\Temp\ccCDokDf.s 			page 27


 1274              		.loc 1 203 0
 1275 0084 4A43     		muls	r2, r1
 1276              		.loc 1 204 0
 1277 0086 8021     		movs	r1, #128
 1278 0088 8901     		lsls	r1, r1, #6
 1279 008a 8C46     		mov	ip, r1
 1280 008c 6244     		add	r2, r2, ip
 1281 008e 9213     		asrs	r2, r2, #14
 202:..\..\ble-beacon_capsense+vl6180+bme280\Design01.cydsn/BME280.c **** 	var1 = (((((adc_H << 14) - (((int32_t)bme280.calibration.dig_H4) << 20) - (((int32_t)bme280.calibr
 1282              		.loc 1 202 0
 1283 0090 5343     		muls	r3, r2
 1284 0092 3B60     		str	r3, [r7]
 205:..\..\ble-beacon_capsense+vl6180+bme280\Design01.cydsn/BME280.c **** 	var1 = (var1 - (((((var1 >> 15) * (var1 >> 15)) >> 7) * ((int32_t)bme280.calibration.dig_H1)) >> 4
 1285              		.loc 1 205 0
 1286 0094 3B68     		ldr	r3, [r7]
 1287 0096 DB13     		asrs	r3, r3, #15
 1288 0098 3A68     		ldr	r2, [r7]
 1289 009a D213     		asrs	r2, r2, #15
 1290 009c 5343     		muls	r3, r2
 1291 009e DB11     		asrs	r3, r3, #7
 1292 00a0 144A     		ldr	r2, .L27
 1293 00a2 2221     		movs	r1, #34
 1294 00a4 525C     		ldrb	r2, [r2, r1]
 1295 00a6 5343     		muls	r3, r2
 1296 00a8 1B11     		asrs	r3, r3, #4
 1297 00aa 3A68     		ldr	r2, [r7]
 1298 00ac D31A     		subs	r3, r2, r3
 1299 00ae 3B60     		str	r3, [r7]
 206:..\..\ble-beacon_capsense+vl6180+bme280\Design01.cydsn/BME280.c **** 	var1 = (var1 < 0 ? 0 : var1);
 1300              		.loc 1 206 0
 1301 00b0 3B68     		ldr	r3, [r7]
 1302 00b2 002B     		cmp	r3, #0
 1303 00b4 00DA     		bge	.L24
 1304 00b6 0023     		movs	r3, #0
 1305              	.L24:
 1306 00b8 3B60     		str	r3, [r7]
 207:..\..\ble-beacon_capsense+vl6180+bme280\Design01.cydsn/BME280.c **** 	var1 = (var1 > 419430400 ? 419430400 : var1);
 1307              		.loc 1 207 0
 1308 00ba 3B68     		ldr	r3, [r7]
 1309 00bc C822     		movs	r2, #200
 1310 00be 5205     		lsls	r2, r2, #21
 1311 00c0 9342     		cmp	r3, r2
 1312 00c2 01DD     		ble	.L25
 1313 00c4 C823     		movs	r3, #200
 1314 00c6 5B05     		lsls	r3, r3, #21
 1315              	.L25:
 1316 00c8 3B60     		str	r3, [r7]
 208:..\..\ble-beacon_capsense+vl6180+bme280\Design01.cydsn/BME280.c **** 
 209:..\..\ble-beacon_capsense+vl6180+bme280\Design01.cydsn/BME280.c ****     bme280.RH = (float) (var1>>12) / 1024.0;
 1317              		.loc 1 209 0
 1318 00ca 3B68     		ldr	r3, [r7]
 1319 00cc 1B13     		asrs	r3, r3, #12
 1320 00ce 1800     		movs	r0, r3
 1321 00d0 FFF7FEFF 		bl	__aeabi_i2f
 1322 00d4 031C     		adds	r3, r0, #0
 1323 00d6 8921     		movs	r1, #137
 1324 00d8 C905     		lsls	r1, r1, #23
ARM GAS  C:\Users\d4hhm\AppData\Local\Temp\ccCDokDf.s 			page 28


 1325 00da 181C     		adds	r0, r3, #0
 1326 00dc FFF7FEFF 		bl	__aeabi_fdiv
 1327 00e0 031C     		adds	r3, r0, #0
 1328 00e2 1A1C     		adds	r2, r3, #0
 1329 00e4 034B     		ldr	r3, .L27
 1330 00e6 DA63     		str	r2, [r3, #60]
 210:..\..\ble-beacon_capsense+vl6180+bme280\Design01.cydsn/BME280.c **** 	return bme280.RH;
 1331              		.loc 1 210 0
 1332 00e8 024B     		ldr	r3, .L27
 1333 00ea DB6B     		ldr	r3, [r3, #60]
 211:..\..\ble-beacon_capsense+vl6180+bme280\Design01.cydsn/BME280.c **** 
 212:..\..\ble-beacon_capsense+vl6180+bme280\Design01.cydsn/BME280.c **** }
 1334              		.loc 1 212 0
 1335 00ec 181C     		adds	r0, r3, #0
 1336 00ee BD46     		mov	sp, r7
 1337 00f0 03B0     		add	sp, sp, #12
 1338              		@ sp needed
 1339 00f2 90BD     		pop	{r4, r7, pc}
 1340              	.L28:
 1341              		.align	2
 1342              	.L27:
 1343 00f4 00000000 		.word	bme280
 1344 00f8 00D4FEFF 		.word	-76800
 1345              		.cfi_endproc
 1346              	.LFE42:
 1347              		.size	BME280_readFloatHumidity, .-BME280_readFloatHumidity
 1348              		.section	.text.BME280_readTempC,"ax",%progbits
 1349              		.align	2
 1350              		.global	BME280_readTempC
 1351              		.code	16
 1352              		.thumb_func
 1353              		.type	BME280_readTempC, %function
 1354              	BME280_readTempC:
 1355              	.LFB43:
 213:..\..\ble-beacon_capsense+vl6180+bme280\Design01.cydsn/BME280.c **** 
 214:..\..\ble-beacon_capsense+vl6180+bme280\Design01.cydsn/BME280.c **** 
 215:..\..\ble-beacon_capsense+vl6180+bme280\Design01.cydsn/BME280.c **** 
 216:..\..\ble-beacon_capsense+vl6180+bme280\Design01.cydsn/BME280.c **** //****************************************************************************//
 217:..\..\ble-beacon_capsense+vl6180+bme280\Design01.cydsn/BME280.c **** //
 218:..\..\ble-beacon_capsense+vl6180+bme280\Design01.cydsn/BME280.c **** //  Temperature Section
 219:..\..\ble-beacon_capsense+vl6180+bme280\Design01.cydsn/BME280.c **** //
 220:..\..\ble-beacon_capsense+vl6180+bme280\Design01.cydsn/BME280.c **** //****************************************************************************//
 221:..\..\ble-beacon_capsense+vl6180+bme280\Design01.cydsn/BME280.c **** 
 222:..\..\ble-beacon_capsense+vl6180+bme280\Design01.cydsn/BME280.c **** float BME280_readTempC( void )
 223:..\..\ble-beacon_capsense+vl6180+bme280\Design01.cydsn/BME280.c **** {
 1356              		.loc 1 223 0
 1357              		.cfi_startproc
 1358              		@ args = 0, pretend = 0, frame = 32
 1359              		@ frame_needed = 1, uses_anonymous_args = 0
 1360 0000 90B5     		push	{r4, r7, lr}
 1361              		.cfi_def_cfa_offset 12
 1362              		.cfi_offset 4, -12
 1363              		.cfi_offset 7, -8
 1364              		.cfi_offset 14, -4
 1365 0002 89B0     		sub	sp, sp, #36
 1366              		.cfi_def_cfa_offset 48
 1367 0004 00AF     		add	r7, sp, #0
ARM GAS  C:\Users\d4hhm\AppData\Local\Temp\ccCDokDf.s 			page 29


 1368              		.cfi_def_cfa_register 7
 224:..\..\ble-beacon_capsense+vl6180+bme280\Design01.cydsn/BME280.c **** 	// Returns temperature in DegC, resolution is 0.01 DegC. Output value of “5123” equals 51.23 D
 225:..\..\ble-beacon_capsense+vl6180+bme280\Design01.cydsn/BME280.c **** 	// t_fine carries fine temperature as global value
 226:..\..\ble-beacon_capsense+vl6180+bme280\Design01.cydsn/BME280.c **** 
 227:..\..\ble-beacon_capsense+vl6180+bme280\Design01.cydsn/BME280.c **** 	//get the reading (adc_T);
 228:..\..\ble-beacon_capsense+vl6180+bme280\Design01.cydsn/BME280.c **** 	int32_t adc_T = ((uint32_t)BME280_readRegister(BME280_TEMPERATURE_MSB_REG) << 12) | ((uint32_t)BME
 1369              		.loc 1 228 0
 1370 0006 FA20     		movs	r0, #250
 1371 0008 FFF7FEFF 		bl	BME280_readRegister
 1372 000c 0300     		movs	r3, r0
 1373 000e 1C03     		lsls	r4, r3, #12
 1374 0010 FB20     		movs	r0, #251
 1375 0012 FFF7FEFF 		bl	BME280_readRegister
 1376 0016 0300     		movs	r3, r0
 1377 0018 1B01     		lsls	r3, r3, #4
 1378 001a 1C43     		orrs	r4, r3
 1379 001c FC20     		movs	r0, #252
 1380 001e FFF7FEFF 		bl	BME280_readRegister
 1381 0022 0300     		movs	r3, r0
 1382 0024 1B09     		lsrs	r3, r3, #4
 1383 0026 DBB2     		uxtb	r3, r3
 1384 0028 1A00     		movs	r2, r3
 1385 002a 0F23     		movs	r3, #15
 1386 002c 1340     		ands	r3, r2
 1387 002e 2343     		orrs	r3, r4
 1388 0030 FB61     		str	r3, [r7, #28]
 229:..\..\ble-beacon_capsense+vl6180+bme280\Design01.cydsn/BME280.c **** 
 230:..\..\ble-beacon_capsense+vl6180+bme280\Design01.cydsn/BME280.c **** 	//By datasheet, calibrate
 231:..\..\ble-beacon_capsense+vl6180+bme280\Design01.cydsn/BME280.c **** 	int64_t var1, var2;
 232:..\..\ble-beacon_capsense+vl6180+bme280\Design01.cydsn/BME280.c **** 
 233:..\..\ble-beacon_capsense+vl6180+bme280\Design01.cydsn/BME280.c **** 	var1 = ((((adc_T>>3) - ((int32_t)bme280.calibration.dig_T1<<1))) * ((int32_t)bme280.calibration.di
 1389              		.loc 1 233 0
 1390 0032 FB69     		ldr	r3, [r7, #28]
 1391 0034 DA10     		asrs	r2, r3, #3
 1392 0036 204B     		ldr	r3, .L31
 1393 0038 5B89     		ldrh	r3, [r3, #10]
 1394 003a 5B00     		lsls	r3, r3, #1
 1395 003c D31A     		subs	r3, r2, r3
 1396 003e 1E4A     		ldr	r2, .L31
 1397 0040 0C21     		movs	r1, #12
 1398 0042 525E     		ldrsh	r2, [r2, r1]
 1399 0044 5343     		muls	r3, r2
 1400 0046 DB12     		asrs	r3, r3, #11
 1401 0048 3B61     		str	r3, [r7, #16]
 1402 004a DB17     		asrs	r3, r3, #31
 1403 004c 7B61     		str	r3, [r7, #20]
 234:..\..\ble-beacon_capsense+vl6180+bme280\Design01.cydsn/BME280.c **** 	var2 = (((((adc_T>>4) - ((int32_t)bme280.calibration.dig_T1)) * ((adc_T>>4) - ((int32_t)bme280.cal
 1404              		.loc 1 234 0
 1405 004e FB69     		ldr	r3, [r7, #28]
 1406 0050 1B11     		asrs	r3, r3, #4
 1407 0052 194A     		ldr	r2, .L31
 1408 0054 5289     		ldrh	r2, [r2, #10]
 1409 0056 9B1A     		subs	r3, r3, r2
 1410 0058 FA69     		ldr	r2, [r7, #28]
 1411 005a 1211     		asrs	r2, r2, #4
 1412 005c 1649     		ldr	r1, .L31
 1413 005e 4989     		ldrh	r1, [r1, #10]
ARM GAS  C:\Users\d4hhm\AppData\Local\Temp\ccCDokDf.s 			page 30


 1414 0060 521A     		subs	r2, r2, r1
 1415 0062 5343     		muls	r3, r2
 1416 0064 1B13     		asrs	r3, r3, #12
 1417 0066 144A     		ldr	r2, .L31
 1418 0068 0E21     		movs	r1, #14
 1419 006a 525E     		ldrsh	r2, [r2, r1]
 1420 006c 5343     		muls	r3, r2
 1421 006e 9B13     		asrs	r3, r3, #14
 1422 0070 BB60     		str	r3, [r7, #8]
 1423 0072 DB17     		asrs	r3, r3, #31
 1424 0074 FB60     		str	r3, [r7, #12]
 235:..\..\ble-beacon_capsense+vl6180+bme280\Design01.cydsn/BME280.c **** 	
 236:..\..\ble-beacon_capsense+vl6180+bme280\Design01.cydsn/BME280.c ****     bme280.t_fine = var1 + var2;
 1425              		.loc 1 236 0
 1426 0076 3A69     		ldr	r2, [r7, #16]
 1427 0078 BB68     		ldr	r3, [r7, #8]
 1428 007a D318     		adds	r3, r2, r3
 1429 007c 1A00     		movs	r2, r3
 1430 007e 0E4B     		ldr	r3, .L31
 1431 0080 1A63     		str	r2, [r3, #48]
 237:..\..\ble-beacon_capsense+vl6180+bme280\Design01.cydsn/BME280.c **** 	float output = (bme280.t_fine * 5 + 128) >> 8;
 1432              		.loc 1 237 0
 1433 0082 0D4B     		ldr	r3, .L31
 1434 0084 1A6B     		ldr	r2, [r3, #48]
 1435 0086 1300     		movs	r3, r2
 1436 0088 9B00     		lsls	r3, r3, #2
 1437 008a 9B18     		adds	r3, r3, r2
 1438 008c 8033     		adds	r3, r3, #128
 1439 008e 1B12     		asrs	r3, r3, #8
 1440 0090 1800     		movs	r0, r3
 1441 0092 FFF7FEFF 		bl	__aeabi_i2f
 1442 0096 031C     		adds	r3, r0, #0
 1443 0098 7B60     		str	r3, [r7, #4]
 238:..\..\ble-beacon_capsense+vl6180+bme280\Design01.cydsn/BME280.c **** 
 239:..\..\ble-beacon_capsense+vl6180+bme280\Design01.cydsn/BME280.c **** 	output = output / 100;
 1444              		.loc 1 239 0
 1445 009a 0849     		ldr	r1, .L31+4
 1446 009c 7868     		ldr	r0, [r7, #4]
 1447 009e FFF7FEFF 		bl	__aeabi_fdiv
 1448 00a2 031C     		adds	r3, r0, #0
 1449 00a4 7B60     		str	r3, [r7, #4]
 240:..\..\ble-beacon_capsense+vl6180+bme280\Design01.cydsn/BME280.c **** 	
 241:..\..\ble-beacon_capsense+vl6180+bme280\Design01.cydsn/BME280.c ****     bme280.temp_C = output;
 1450              		.loc 1 241 0
 1451 00a6 044B     		ldr	r3, .L31
 1452 00a8 7A68     		ldr	r2, [r7, #4]
 1453 00aa 5A63     		str	r2, [r3, #52]
 242:..\..\ble-beacon_capsense+vl6180+bme280\Design01.cydsn/BME280.c **** 	return bme280.temp_C;
 1454              		.loc 1 242 0
 1455 00ac 024B     		ldr	r3, .L31
 1456 00ae 5B6B     		ldr	r3, [r3, #52]
 243:..\..\ble-beacon_capsense+vl6180+bme280\Design01.cydsn/BME280.c **** }
 1457              		.loc 1 243 0
 1458 00b0 181C     		adds	r0, r3, #0
 1459 00b2 BD46     		mov	sp, r7
 1460 00b4 09B0     		add	sp, sp, #36
 1461              		@ sp needed
ARM GAS  C:\Users\d4hhm\AppData\Local\Temp\ccCDokDf.s 			page 31


 1462 00b6 90BD     		pop	{r4, r7, pc}
 1463              	.L32:
 1464              		.align	2
 1465              	.L31:
 1466 00b8 00000000 		.word	bme280
 1467 00bc 0000C842 		.word	1120403456
 1468              		.cfi_endproc
 1469              	.LFE43:
 1470              		.size	BME280_readTempC, .-BME280_readTempC
 1471              		.global	__aeabi_fmul
 1472              		.global	__aeabi_fadd
 1473              		.section	.text.BME280_readTempF,"ax",%progbits
 1474              		.align	2
 1475              		.global	BME280_readTempF
 1476              		.code	16
 1477              		.thumb_func
 1478              		.type	BME280_readTempF, %function
 1479              	BME280_readTempF:
 1480              	.LFB44:
 244:..\..\ble-beacon_capsense+vl6180+bme280\Design01.cydsn/BME280.c **** 
 245:..\..\ble-beacon_capsense+vl6180+bme280\Design01.cydsn/BME280.c **** float BME280_readTempF( void )
 246:..\..\ble-beacon_capsense+vl6180+bme280\Design01.cydsn/BME280.c **** {
 1481              		.loc 1 246 0
 1482              		.cfi_startproc
 1483              		@ args = 0, pretend = 0, frame = 8
 1484              		@ frame_needed = 1, uses_anonymous_args = 0
 1485 0000 80B5     		push	{r7, lr}
 1486              		.cfi_def_cfa_offset 8
 1487              		.cfi_offset 7, -8
 1488              		.cfi_offset 14, -4
 1489 0002 82B0     		sub	sp, sp, #8
 1490              		.cfi_def_cfa_offset 16
 1491 0004 00AF     		add	r7, sp, #0
 1492              		.cfi_def_cfa_register 7
 247:..\..\ble-beacon_capsense+vl6180+bme280\Design01.cydsn/BME280.c **** 	float output = BME280_readTempC();
 1493              		.loc 1 247 0
 1494 0006 FFF7FEFF 		bl	BME280_readTempC
 1495 000a 031C     		adds	r3, r0, #0
 1496 000c 7B60     		str	r3, [r7, #4]
 248:..\..\ble-beacon_capsense+vl6180+bme280\Design01.cydsn/BME280.c **** 	output = (output * 9) / 5 + 32;
 1497              		.loc 1 248 0
 1498 000e 0B49     		ldr	r1, .L35
 1499 0010 7868     		ldr	r0, [r7, #4]
 1500 0012 FFF7FEFF 		bl	__aeabi_fmul
 1501 0016 031C     		adds	r3, r0, #0
 1502 0018 0949     		ldr	r1, .L35+4
 1503 001a 181C     		adds	r0, r3, #0
 1504 001c FFF7FEFF 		bl	__aeabi_fdiv
 1505 0020 031C     		adds	r3, r0, #0
 1506 0022 8421     		movs	r1, #132
 1507 0024 C905     		lsls	r1, r1, #23
 1508 0026 181C     		adds	r0, r3, #0
 1509 0028 FFF7FEFF 		bl	__aeabi_fadd
 1510 002c 031C     		adds	r3, r0, #0
 1511 002e 7B60     		str	r3, [r7, #4]
 249:..\..\ble-beacon_capsense+vl6180+bme280\Design01.cydsn/BME280.c **** 
 250:..\..\ble-beacon_capsense+vl6180+bme280\Design01.cydsn/BME280.c **** 	return output;
ARM GAS  C:\Users\d4hhm\AppData\Local\Temp\ccCDokDf.s 			page 32


 1512              		.loc 1 250 0
 1513 0030 7B68     		ldr	r3, [r7, #4]
 251:..\..\ble-beacon_capsense+vl6180+bme280\Design01.cydsn/BME280.c **** }
 1514              		.loc 1 251 0
 1515 0032 181C     		adds	r0, r3, #0
 1516 0034 BD46     		mov	sp, r7
 1517 0036 02B0     		add	sp, sp, #8
 1518              		@ sp needed
 1519 0038 80BD     		pop	{r7, pc}
 1520              	.L36:
 1521 003a C046     		.align	2
 1522              	.L35:
 1523 003c 00001041 		.word	1091567616
 1524 0040 0000A040 		.word	1084227584
 1525              		.cfi_endproc
 1526              	.LFE44:
 1527              		.size	BME280_readTempF, .-BME280_readTempF
 1528              		.section	.text.BME280_readRegister,"ax",%progbits
 1529              		.align	2
 1530              		.global	BME280_readRegister
 1531              		.code	16
 1532              		.thumb_func
 1533              		.type	BME280_readRegister, %function
 1534              	BME280_readRegister:
 1535              	.LFB45:
 252:..\..\ble-beacon_capsense+vl6180+bme280\Design01.cydsn/BME280.c **** 
 253:..\..\ble-beacon_capsense+vl6180+bme280\Design01.cydsn/BME280.c **** //****************************************************************************//
 254:..\..\ble-beacon_capsense+vl6180+bme280\Design01.cydsn/BME280.c **** //
 255:..\..\ble-beacon_capsense+vl6180+bme280\Design01.cydsn/BME280.c **** //  Utility
 256:..\..\ble-beacon_capsense+vl6180+bme280\Design01.cydsn/BME280.c **** //
 257:..\..\ble-beacon_capsense+vl6180+bme280\Design01.cydsn/BME280.c **** //****************************************************************************//
 258:..\..\ble-beacon_capsense+vl6180+bme280\Design01.cydsn/BME280.c **** uint8_t BME280_readRegister(uint8_t offset)
 259:..\..\ble-beacon_capsense+vl6180+bme280\Design01.cydsn/BME280.c **** {
 1536              		.loc 1 259 0
 1537              		.cfi_startproc
 1538              		@ args = 0, pretend = 0, frame = 16
 1539              		@ frame_needed = 1, uses_anonymous_args = 0
 1540 0000 80B5     		push	{r7, lr}
 1541              		.cfi_def_cfa_offset 8
 1542              		.cfi_offset 7, -8
 1543              		.cfi_offset 14, -4
 1544 0002 84B0     		sub	sp, sp, #16
 1545              		.cfi_def_cfa_offset 24
 1546 0004 00AF     		add	r7, sp, #0
 1547              		.cfi_def_cfa_register 7
 1548 0006 0200     		movs	r2, r0
 1549 0008 FB1D     		adds	r3, r7, #7
 1550 000a 1A70     		strb	r2, [r3]
 260:..\..\ble-beacon_capsense+vl6180+bme280\Design01.cydsn/BME280.c **** 	//Return value
 261:..\..\ble-beacon_capsense+vl6180+bme280\Design01.cydsn/BME280.c **** 	uint8_t result;
 262:..\..\ble-beacon_capsense+vl6180+bme280\Design01.cydsn/BME280.c **** 	uint8_t numBytes = 1;
 1551              		.loc 1 262 0
 1552 000c 0D23     		movs	r3, #13
 1553 000e FB18     		adds	r3, r7, r3
 1554 0010 0122     		movs	r2, #1
 1555 0012 1A70     		strb	r2, [r3]
 263:..\..\ble-beacon_capsense+vl6180+bme280\Design01.cydsn/BME280.c ****     
ARM GAS  C:\Users\d4hhm\AppData\Local\Temp\ccCDokDf.s 			page 33


 264:..\..\ble-beacon_capsense+vl6180+bme280\Design01.cydsn/BME280.c ****     uint16  iter;
 265:..\..\ble-beacon_capsense+vl6180+bme280\Design01.cydsn/BME280.c ****     
 266:..\..\ble-beacon_capsense+vl6180+bme280\Design01.cydsn/BME280.c **** 	switch (bme280.settings.commInterface) {
 1556              		.loc 1 266 0
 1557 0014 2D4B     		ldr	r3, .L55
 1558 0016 1B78     		ldrb	r3, [r3]
 1559 0018 002B     		cmp	r3, #0
 1560 001a 02D0     		beq	.L39
 1561 001c 012B     		cmp	r3, #1
 1562 001e 4CD0     		beq	.L52
 267:..\..\ble-beacon_capsense+vl6180+bme280\Design01.cydsn/BME280.c **** 
 268:..\..\ble-beacon_capsense+vl6180+bme280\Design01.cydsn/BME280.c ****     	case BME280_I2C_MODE:
 269:..\..\ble-beacon_capsense+vl6180+bme280\Design01.cydsn/BME280.c ****             ///I2C_Wakeup();
 270:..\..\ble-beacon_capsense+vl6180+bme280\Design01.cydsn/BME280.c ****             SCB_1_I2CMasterClearStatus(); /* Clear any previous status */
 271:..\..\ble-beacon_capsense+vl6180+bme280\Design01.cydsn/BME280.c ****             
 272:..\..\ble-beacon_capsense+vl6180+bme280\Design01.cydsn/BME280.c ****             // Write to register
 273:..\..\ble-beacon_capsense+vl6180+bme280\Design01.cydsn/BME280.c ****             SCB_1_I2CMasterWriteBuf(bme280.settings.I2CAddress, (uint8 *) &offset, 1, SCB_1_I2C_MOD
 274:..\..\ble-beacon_capsense+vl6180+bme280\Design01.cydsn/BME280.c ****             for(iter = 0; iter < BME280_MAX_ITER; iter++)
 275:..\..\ble-beacon_capsense+vl6180+bme280\Design01.cydsn/BME280.c ****             {
 276:..\..\ble-beacon_capsense+vl6180+bme280\Design01.cydsn/BME280.c ****                 if(0u != (SCB_1_I2CMasterStatus() & SCB_1_I2C_MSTAT_WR_CMPLT))
 277:..\..\ble-beacon_capsense+vl6180+bme280\Design01.cydsn/BME280.c ****                 {
 278:..\..\ble-beacon_capsense+vl6180+bme280\Design01.cydsn/BME280.c ****                     /* Transfer complete. Check Master status to make sure that transfer
 279:..\..\ble-beacon_capsense+vl6180+bme280\Design01.cydsn/BME280.c ****                     completed without errors. */
 280:..\..\ble-beacon_capsense+vl6180+bme280\Design01.cydsn/BME280.c ****                     break;
 281:..\..\ble-beacon_capsense+vl6180+bme280\Design01.cydsn/BME280.c ****                 }
 282:..\..\ble-beacon_capsense+vl6180+bme280\Design01.cydsn/BME280.c ****             }        
 283:..\..\ble-beacon_capsense+vl6180+bme280\Design01.cydsn/BME280.c ****             
 284:..\..\ble-beacon_capsense+vl6180+bme280\Design01.cydsn/BME280.c ****             // Read Buffer        
 285:..\..\ble-beacon_capsense+vl6180+bme280\Design01.cydsn/BME280.c ****             SCB_1_I2CMasterReadBuf(bme280.settings.I2CAddress, &result, numBytes, SCB_1_I2C_MODE_CO
 286:..\..\ble-beacon_capsense+vl6180+bme280\Design01.cydsn/BME280.c ****             
 287:..\..\ble-beacon_capsense+vl6180+bme280\Design01.cydsn/BME280.c ****             for(iter = 0; iter < BME280_MAX_ITER; iter++){
 288:..\..\ble-beacon_capsense+vl6180+bme280\Design01.cydsn/BME280.c ****                 if(0u != (SCB_1_I2CMasterStatus() & SCB_1_I2C_MSTAT_RD_CMPLT))
 289:..\..\ble-beacon_capsense+vl6180+bme280\Design01.cydsn/BME280.c ****                 {
 290:..\..\ble-beacon_capsense+vl6180+bme280\Design01.cydsn/BME280.c ****                     /* Transfer complete. Check Master status to make sure that transfer
 291:..\..\ble-beacon_capsense+vl6180+bme280\Design01.cydsn/BME280.c ****                     completed without errors. */
 292:..\..\ble-beacon_capsense+vl6180+bme280\Design01.cydsn/BME280.c ****                     break;
 293:..\..\ble-beacon_capsense+vl6180+bme280\Design01.cydsn/BME280.c ****                 }
 294:..\..\ble-beacon_capsense+vl6180+bme280\Design01.cydsn/BME280.c ****                 
 295:..\..\ble-beacon_capsense+vl6180+bme280\Design01.cydsn/BME280.c ****             }
 296:..\..\ble-beacon_capsense+vl6180+bme280\Design01.cydsn/BME280.c ****             //I2C_Sleep();
 297:..\..\ble-beacon_capsense+vl6180+bme280\Design01.cydsn/BME280.c **** 
 298:..\..\ble-beacon_capsense+vl6180+bme280\Design01.cydsn/BME280.c ****     		break;
 299:..\..\ble-beacon_capsense+vl6180+bme280\Design01.cydsn/BME280.c **** 
 300:..\..\ble-beacon_capsense+vl6180+bme280\Design01.cydsn/BME280.c ****     	case BME280_SPI_MODE:
 301:..\..\ble-beacon_capsense+vl6180+bme280\Design01.cydsn/BME280.c ****     		// TODO
 302:..\..\ble-beacon_capsense+vl6180+bme280\Design01.cydsn/BME280.c ****     		break;
 303:..\..\ble-beacon_capsense+vl6180+bme280\Design01.cydsn/BME280.c **** 
 304:..\..\ble-beacon_capsense+vl6180+bme280\Design01.cydsn/BME280.c ****     	default:
 305:..\..\ble-beacon_capsense+vl6180+bme280\Design01.cydsn/BME280.c ****     		break;
 1563              		.loc 1 305 0
 1564 0020 4CE0     		b	.L49
 1565              	.L39:
 270:..\..\ble-beacon_capsense+vl6180+bme280\Design01.cydsn/BME280.c ****             
 1566              		.loc 1 270 0
 1567 0022 FFF7FEFF 		bl	SCB_1_I2CMasterClearStatus
 273:..\..\ble-beacon_capsense+vl6180+bme280\Design01.cydsn/BME280.c ****             for(iter = 0; iter < BME280_MAX_ITER; iter++)
 1568              		.loc 1 273 0
ARM GAS  C:\Users\d4hhm\AppData\Local\Temp\ccCDokDf.s 			page 34


 1569 0026 294B     		ldr	r3, .L55
 1570 0028 5B78     		ldrb	r3, [r3, #1]
 1571 002a 1800     		movs	r0, r3
 1572 002c F91D     		adds	r1, r7, #7
 1573 002e 0023     		movs	r3, #0
 1574 0030 0122     		movs	r2, #1
 1575 0032 FFF7FEFF 		bl	SCB_1_I2CMasterWriteBuf
 274:..\..\ble-beacon_capsense+vl6180+bme280\Design01.cydsn/BME280.c ****             {
 1576              		.loc 1 274 0
 1577 0036 0E23     		movs	r3, #14
 1578 0038 FB18     		adds	r3, r7, r3
 1579 003a 0022     		movs	r2, #0
 1580 003c 1A80     		strh	r2, [r3]
 1581 003e 0CE0     		b	.L41
 1582              	.L44:
 276:..\..\ble-beacon_capsense+vl6180+bme280\Design01.cydsn/BME280.c ****                 {
 1583              		.loc 1 276 0
 1584 0040 FFF7FEFF 		bl	SCB_1_I2CMasterStatus
 1585 0044 0200     		movs	r2, r0
 1586 0046 0223     		movs	r3, #2
 1587 0048 1340     		ands	r3, r2
 1588 004a 0ED1     		bne	.L53
 274:..\..\ble-beacon_capsense+vl6180+bme280\Design01.cydsn/BME280.c ****             {
 1589              		.loc 1 274 0 discriminator 2
 1590 004c 0E23     		movs	r3, #14
 1591 004e FB18     		adds	r3, r7, r3
 1592 0050 1A88     		ldrh	r2, [r3]
 1593 0052 0E23     		movs	r3, #14
 1594 0054 FB18     		adds	r3, r7, r3
 1595 0056 0132     		adds	r2, r2, #1
 1596 0058 1A80     		strh	r2, [r3]
 1597              	.L41:
 274:..\..\ble-beacon_capsense+vl6180+bme280\Design01.cydsn/BME280.c ****             {
 1598              		.loc 1 274 0 is_stmt 0 discriminator 1
 1599 005a 0E23     		movs	r3, #14
 1600 005c FB18     		adds	r3, r7, r3
 1601 005e 1A88     		ldrh	r2, [r3]
 1602 0060 2C23     		movs	r3, #44
 1603 0062 FF33     		adds	r3, r3, #255
 1604 0064 9A42     		cmp	r2, r3
 1605 0066 EBD9     		bls	.L44
 1606 0068 00E0     		b	.L43
 1607              	.L53:
 280:..\..\ble-beacon_capsense+vl6180+bme280\Design01.cydsn/BME280.c ****                 }
 1608              		.loc 1 280 0 is_stmt 1
 1609 006a C046     		nop
 1610              	.L43:
 285:..\..\ble-beacon_capsense+vl6180+bme280\Design01.cydsn/BME280.c ****             
 1611              		.loc 1 285 0
 1612 006c 174B     		ldr	r3, .L55
 1613 006e 5B78     		ldrb	r3, [r3, #1]
 1614 0070 1800     		movs	r0, r3
 1615 0072 0D23     		movs	r3, #13
 1616 0074 FB18     		adds	r3, r7, r3
 1617 0076 1A78     		ldrb	r2, [r3]
 1618 0078 0C23     		movs	r3, #12
 1619 007a F918     		adds	r1, r7, r3
ARM GAS  C:\Users\d4hhm\AppData\Local\Temp\ccCDokDf.s 			page 35


 1620 007c 0023     		movs	r3, #0
 1621 007e FFF7FEFF 		bl	SCB_1_I2CMasterReadBuf
 287:..\..\ble-beacon_capsense+vl6180+bme280\Design01.cydsn/BME280.c ****                 if(0u != (SCB_1_I2CMasterStatus() & SCB_1_I2C_MSTAT_RD_CMPLT))
 1622              		.loc 1 287 0
 1623 0082 0E23     		movs	r3, #14
 1624 0084 FB18     		adds	r3, r7, r3
 1625 0086 0022     		movs	r2, #0
 1626 0088 1A80     		strh	r2, [r3]
 1627 008a 0CE0     		b	.L45
 1628              	.L48:
 288:..\..\ble-beacon_capsense+vl6180+bme280\Design01.cydsn/BME280.c ****                 {
 1629              		.loc 1 288 0
 1630 008c FFF7FEFF 		bl	SCB_1_I2CMasterStatus
 1631 0090 0200     		movs	r2, r0
 1632 0092 0123     		movs	r3, #1
 1633 0094 1340     		ands	r3, r2
 1634 0096 0ED1     		bne	.L54
 287:..\..\ble-beacon_capsense+vl6180+bme280\Design01.cydsn/BME280.c ****                 if(0u != (SCB_1_I2CMasterStatus() & SCB_1_I2C_MSTAT_RD_CMPLT))
 1635              		.loc 1 287 0 discriminator 2
 1636 0098 0E23     		movs	r3, #14
 1637 009a FB18     		adds	r3, r7, r3
 1638 009c 1A88     		ldrh	r2, [r3]
 1639 009e 0E23     		movs	r3, #14
 1640 00a0 FB18     		adds	r3, r7, r3
 1641 00a2 0132     		adds	r2, r2, #1
 1642 00a4 1A80     		strh	r2, [r3]
 1643              	.L45:
 287:..\..\ble-beacon_capsense+vl6180+bme280\Design01.cydsn/BME280.c ****                 if(0u != (SCB_1_I2CMasterStatus() & SCB_1_I2C_MSTAT_RD_CMPLT))
 1644              		.loc 1 287 0 is_stmt 0 discriminator 1
 1645 00a6 0E23     		movs	r3, #14
 1646 00a8 FB18     		adds	r3, r7, r3
 1647 00aa 1A88     		ldrh	r2, [r3]
 1648 00ac 2C23     		movs	r3, #44
 1649 00ae FF33     		adds	r3, r3, #255
 1650 00b0 9A42     		cmp	r2, r3
 1651 00b2 EBD9     		bls	.L48
 298:..\..\ble-beacon_capsense+vl6180+bme280\Design01.cydsn/BME280.c **** 
 1652              		.loc 1 298 0 is_stmt 1
 1653 00b4 02E0     		b	.L49
 1654              	.L54:
 292:..\..\ble-beacon_capsense+vl6180+bme280\Design01.cydsn/BME280.c ****                 }
 1655              		.loc 1 292 0
 1656 00b6 C046     		nop
 298:..\..\ble-beacon_capsense+vl6180+bme280\Design01.cydsn/BME280.c **** 
 1657              		.loc 1 298 0
 1658 00b8 00E0     		b	.L49
 1659              	.L52:
 302:..\..\ble-beacon_capsense+vl6180+bme280\Design01.cydsn/BME280.c **** 
 1660              		.loc 1 302 0
 1661 00ba C046     		nop
 1662              	.L49:
 306:..\..\ble-beacon_capsense+vl6180+bme280\Design01.cydsn/BME280.c **** 	}
 307:..\..\ble-beacon_capsense+vl6180+bme280\Design01.cydsn/BME280.c **** 	return result;
 1663              		.loc 1 307 0
 1664 00bc 0C23     		movs	r3, #12
 1665 00be FB18     		adds	r3, r7, r3
 1666 00c0 1B78     		ldrb	r3, [r3]
ARM GAS  C:\Users\d4hhm\AppData\Local\Temp\ccCDokDf.s 			page 36


 308:..\..\ble-beacon_capsense+vl6180+bme280\Design01.cydsn/BME280.c **** }
 1667              		.loc 1 308 0
 1668 00c2 1800     		movs	r0, r3
 1669 00c4 BD46     		mov	sp, r7
 1670 00c6 04B0     		add	sp, sp, #16
 1671              		@ sp needed
 1672 00c8 80BD     		pop	{r7, pc}
 1673              	.L56:
 1674 00ca C046     		.align	2
 1675              	.L55:
 1676 00cc 00000000 		.word	bme280
 1677              		.cfi_endproc
 1678              	.LFE45:
 1679              		.size	BME280_readRegister, .-BME280_readRegister
 1680              		.section	.text.BME280_writeRegister,"ax",%progbits
 1681              		.align	2
 1682              		.global	BME280_writeRegister
 1683              		.code	16
 1684              		.thumb_func
 1685              		.type	BME280_writeRegister, %function
 1686              	BME280_writeRegister:
 1687              	.LFB46:
 309:..\..\ble-beacon_capsense+vl6180+bme280\Design01.cydsn/BME280.c **** 
 310:..\..\ble-beacon_capsense+vl6180+bme280\Design01.cydsn/BME280.c **** 
 311:..\..\ble-beacon_capsense+vl6180+bme280\Design01.cydsn/BME280.c **** void BME280_writeRegister(uint8_t offset, uint8_t data)
 312:..\..\ble-beacon_capsense+vl6180+bme280\Design01.cydsn/BME280.c **** {
 1688              		.loc 1 312 0
 1689              		.cfi_startproc
 1690              		@ args = 0, pretend = 0, frame = 16
 1691              		@ frame_needed = 1, uses_anonymous_args = 0
 1692 0000 80B5     		push	{r7, lr}
 1693              		.cfi_def_cfa_offset 8
 1694              		.cfi_offset 7, -8
 1695              		.cfi_offset 14, -4
 1696 0002 84B0     		sub	sp, sp, #16
 1697              		.cfi_def_cfa_offset 24
 1698 0004 00AF     		add	r7, sp, #0
 1699              		.cfi_def_cfa_register 7
 1700 0006 0200     		movs	r2, r0
 1701 0008 FB1D     		adds	r3, r7, #7
 1702 000a 1A70     		strb	r2, [r3]
 1703 000c BB1D     		adds	r3, r7, #6
 1704 000e 0A1C     		adds	r2, r1, #0
 1705 0010 1A70     		strb	r2, [r3]
 313:..\..\ble-beacon_capsense+vl6180+bme280\Design01.cydsn/BME280.c ****     uint8 packet[] = {offset, data};
 1706              		.loc 1 313 0
 1707 0012 0C23     		movs	r3, #12
 1708 0014 FB18     		adds	r3, r7, r3
 1709 0016 FA1D     		adds	r2, r7, #7
 1710 0018 1278     		ldrb	r2, [r2]
 1711 001a 1A70     		strb	r2, [r3]
 1712 001c 0C23     		movs	r3, #12
 1713 001e FB18     		adds	r3, r7, r3
 1714 0020 BA1D     		adds	r2, r7, #6
 1715 0022 1278     		ldrb	r2, [r2]
 1716 0024 5A70     		strb	r2, [r3, #1]
 314:..\..\ble-beacon_capsense+vl6180+bme280\Design01.cydsn/BME280.c ****     uint16 iter;
ARM GAS  C:\Users\d4hhm\AppData\Local\Temp\ccCDokDf.s 			page 37


 315:..\..\ble-beacon_capsense+vl6180+bme280\Design01.cydsn/BME280.c ****     
 316:..\..\ble-beacon_capsense+vl6180+bme280\Design01.cydsn/BME280.c **** 	switch (bme280.settings.commInterface)
 1717              		.loc 1 316 0
 1718 0026 194B     		ldr	r3, .L69
 1719 0028 1B78     		ldrb	r3, [r3]
 1720 002a 002B     		cmp	r3, #0
 1721 002c 02D0     		beq	.L59
 1722 002e 012B     		cmp	r3, #1
 1723 0030 27D0     		beq	.L67
 317:..\..\ble-beacon_capsense+vl6180+bme280\Design01.cydsn/BME280.c **** 	{
 318:..\..\ble-beacon_capsense+vl6180+bme280\Design01.cydsn/BME280.c ****     	case BME280_I2C_MODE:
 319:..\..\ble-beacon_capsense+vl6180+bme280\Design01.cydsn/BME280.c ****     		//Write the byte
 320:..\..\ble-beacon_capsense+vl6180+bme280\Design01.cydsn/BME280.c ****             //I2C_Wakeup();
 321:..\..\ble-beacon_capsense+vl6180+bme280\Design01.cydsn/BME280.c ****             SCB_1_I2CMasterClearStatus(); /* Clear any previous status */
 322:..\..\ble-beacon_capsense+vl6180+bme280\Design01.cydsn/BME280.c ****             
 323:..\..\ble-beacon_capsense+vl6180+bme280\Design01.cydsn/BME280.c ****             // Write to register
 324:..\..\ble-beacon_capsense+vl6180+bme280\Design01.cydsn/BME280.c ****             SCB_1_I2CMasterWriteBuf(bme280.settings.I2CAddress, (uint8 *) &packet, 2, SCB_1_I2C_MOD
 325:..\..\ble-beacon_capsense+vl6180+bme280\Design01.cydsn/BME280.c ****             for(iter = 0; iter < BME280_MAX_ITER; iter++)
 326:..\..\ble-beacon_capsense+vl6180+bme280\Design01.cydsn/BME280.c ****             {
 327:..\..\ble-beacon_capsense+vl6180+bme280\Design01.cydsn/BME280.c ****                 if(0u != (SCB_1_I2CMasterStatus() & SCB_1_I2C_MSTAT_WR_CMPLT))
 328:..\..\ble-beacon_capsense+vl6180+bme280\Design01.cydsn/BME280.c ****                 {
 329:..\..\ble-beacon_capsense+vl6180+bme280\Design01.cydsn/BME280.c ****                     // Transfer complete. Check Master status to make sure that transfer
 330:..\..\ble-beacon_capsense+vl6180+bme280\Design01.cydsn/BME280.c ****                     //completed without errors. 
 331:..\..\ble-beacon_capsense+vl6180+bme280\Design01.cydsn/BME280.c ****                     break;               
 332:..\..\ble-beacon_capsense+vl6180+bme280\Design01.cydsn/BME280.c ****                 }
 333:..\..\ble-beacon_capsense+vl6180+bme280\Design01.cydsn/BME280.c ****             }          
 334:..\..\ble-beacon_capsense+vl6180+bme280\Design01.cydsn/BME280.c ****             
 335:..\..\ble-beacon_capsense+vl6180+bme280\Design01.cydsn/BME280.c ****             //I2C_Sleep();        
 336:..\..\ble-beacon_capsense+vl6180+bme280\Design01.cydsn/BME280.c **** 
 337:..\..\ble-beacon_capsense+vl6180+bme280\Design01.cydsn/BME280.c ****     		break;
 338:..\..\ble-beacon_capsense+vl6180+bme280\Design01.cydsn/BME280.c **** 
 339:..\..\ble-beacon_capsense+vl6180+bme280\Design01.cydsn/BME280.c ****     	case BME280_SPI_MODE:
 340:..\..\ble-beacon_capsense+vl6180+bme280\Design01.cydsn/BME280.c ****     		//TODO
 341:..\..\ble-beacon_capsense+vl6180+bme280\Design01.cydsn/BME280.c ****     		break;
 342:..\..\ble-beacon_capsense+vl6180+bme280\Design01.cydsn/BME280.c **** 
 343:..\..\ble-beacon_capsense+vl6180+bme280\Design01.cydsn/BME280.c ****     	default:
 344:..\..\ble-beacon_capsense+vl6180+bme280\Design01.cydsn/BME280.c ****     		break;
 1724              		.loc 1 344 0
 1725 0032 27E0     		b	.L65
 1726              	.L59:
 321:..\..\ble-beacon_capsense+vl6180+bme280\Design01.cydsn/BME280.c ****             
 1727              		.loc 1 321 0
 1728 0034 FFF7FEFF 		bl	SCB_1_I2CMasterClearStatus
 324:..\..\ble-beacon_capsense+vl6180+bme280\Design01.cydsn/BME280.c ****             for(iter = 0; iter < BME280_MAX_ITER; iter++)
 1729              		.loc 1 324 0
 1730 0038 144B     		ldr	r3, .L69
 1731 003a 5B78     		ldrb	r3, [r3, #1]
 1732 003c 1800     		movs	r0, r3
 1733 003e 0C23     		movs	r3, #12
 1734 0040 F918     		adds	r1, r7, r3
 1735 0042 0023     		movs	r3, #0
 1736 0044 0222     		movs	r2, #2
 1737 0046 FFF7FEFF 		bl	SCB_1_I2CMasterWriteBuf
 325:..\..\ble-beacon_capsense+vl6180+bme280\Design01.cydsn/BME280.c ****             {
 1738              		.loc 1 325 0
 1739 004a 0E23     		movs	r3, #14
 1740 004c FB18     		adds	r3, r7, r3
ARM GAS  C:\Users\d4hhm\AppData\Local\Temp\ccCDokDf.s 			page 38


 1741 004e 0022     		movs	r2, #0
 1742 0050 1A80     		strh	r2, [r3]
 1743 0052 0CE0     		b	.L61
 1744              	.L64:
 327:..\..\ble-beacon_capsense+vl6180+bme280\Design01.cydsn/BME280.c ****                 {
 1745              		.loc 1 327 0
 1746 0054 FFF7FEFF 		bl	SCB_1_I2CMasterStatus
 1747 0058 0200     		movs	r2, r0
 1748 005a 0223     		movs	r3, #2
 1749 005c 1340     		ands	r3, r2
 1750 005e 0ED1     		bne	.L68
 325:..\..\ble-beacon_capsense+vl6180+bme280\Design01.cydsn/BME280.c ****             {
 1751              		.loc 1 325 0 discriminator 2
 1752 0060 0E23     		movs	r3, #14
 1753 0062 FB18     		adds	r3, r7, r3
 1754 0064 1A88     		ldrh	r2, [r3]
 1755 0066 0E23     		movs	r3, #14
 1756 0068 FB18     		adds	r3, r7, r3
 1757 006a 0132     		adds	r2, r2, #1
 1758 006c 1A80     		strh	r2, [r3]
 1759              	.L61:
 325:..\..\ble-beacon_capsense+vl6180+bme280\Design01.cydsn/BME280.c ****             {
 1760              		.loc 1 325 0 is_stmt 0 discriminator 1
 1761 006e 0E23     		movs	r3, #14
 1762 0070 FB18     		adds	r3, r7, r3
 1763 0072 1A88     		ldrh	r2, [r3]
 1764 0074 2C23     		movs	r3, #44
 1765 0076 FF33     		adds	r3, r3, #255
 1766 0078 9A42     		cmp	r2, r3
 1767 007a EBD9     		bls	.L64
 337:..\..\ble-beacon_capsense+vl6180+bme280\Design01.cydsn/BME280.c **** 
 1768              		.loc 1 337 0 is_stmt 1
 1769 007c 02E0     		b	.L65
 1770              	.L68:
 331:..\..\ble-beacon_capsense+vl6180+bme280\Design01.cydsn/BME280.c ****                 }
 1771              		.loc 1 331 0
 1772 007e C046     		nop
 337:..\..\ble-beacon_capsense+vl6180+bme280\Design01.cydsn/BME280.c **** 
 1773              		.loc 1 337 0
 1774 0080 00E0     		b	.L65
 1775              	.L67:
 341:..\..\ble-beacon_capsense+vl6180+bme280\Design01.cydsn/BME280.c **** 
 1776              		.loc 1 341 0
 1777 0082 C046     		nop
 1778              	.L65:
 345:..\..\ble-beacon_capsense+vl6180+bme280\Design01.cydsn/BME280.c **** 	}
 346:..\..\ble-beacon_capsense+vl6180+bme280\Design01.cydsn/BME280.c **** }
 1779              		.loc 1 346 0 discriminator 2
 1780 0084 C046     		nop
 1781 0086 BD46     		mov	sp, r7
 1782 0088 04B0     		add	sp, sp, #16
 1783              		@ sp needed
 1784 008a 80BD     		pop	{r7, pc}
 1785              	.L70:
 1786              		.align	2
 1787              	.L69:
 1788 008c 00000000 		.word	bme280
ARM GAS  C:\Users\d4hhm\AppData\Local\Temp\ccCDokDf.s 			page 39


 1789              		.cfi_endproc
 1790              	.LFE46:
 1791              		.size	BME280_writeRegister, .-BME280_writeRegister
 1792              		.text
 1793              	.Letext0:
 1794              		.file 2 "c:\\program files (x86)\\cypress\\psoc creator\\4.2\\psoc creator\\import\\gnu\\arm\\5.4.
 1795              		.file 3 "c:\\program files (x86)\\cypress\\psoc creator\\4.2\\psoc creator\\import\\gnu\\arm\\5.4.
 1796              		.file 4 "Generated_Source\\PSoC4/cytypes.h"
 1797              		.file 5 "..\\..\\ble-beacon_capsense+vl6180+bme280\\Design01.cydsn\\BME280.h"
 1798              		.file 6 "Generated_Source\\PSoC4/BLE_1_Stack.h"