ARM GAS  C:\Users\d4hhm\AppData\Local\Temp\cceRi99j.s 			page 1


   1              		.syntax unified
   2              		.cpu cortex-m0
   3              		.fpu softvfp
   4              		.eabi_attribute 20, 1
   5              		.eabi_attribute 21, 1
   6              		.eabi_attribute 23, 3
   7              		.eabi_attribute 24, 1
   8              		.eabi_attribute 25, 1
   9              		.eabi_attribute 26, 1
  10              		.eabi_attribute 30, 6
  11              		.eabi_attribute 34, 0
  12              		.eabi_attribute 18, 4
  13              		.thumb
  14              		.syntax unified
  15              		.file	"main.c"
  16              		.text
  17              	.Ltext0:
  18              		.cfi_sections	.debug_frame
  19              		.global	initialized
  20              		.bss
  21              		.type	initialized, %object
  22              		.size	initialized, 1
  23              	initialized:
  24 0000 00       		.space	1
  25              		.global	tick
  26              		.type	tick, %object
  27              		.size	tick, 1
  28              	tick:
  29 0001 00       		.space	1
  30              		.global	range_value
  31 0002 0000     		.align	2
  32              		.type	range_value, %object
  33              		.size	range_value, 4
  34              	range_value:
  35 0004 00000000 		.space	4
  36              		.global	TempC
  37              		.align	2
  38              		.type	TempC, %object
  39              		.size	TempC, 4
  40              	TempC:
  41 0008 00000000 		.space	4
  42              		.global	Humidity
  43              		.align	2
  44              		.type	Humidity, %object
  45              		.size	Humidity, 4
  46              	Humidity:
  47 000c 00000000 		.space	4
  48              		.global	Pressure
  49              		.align	2
  50              		.type	Pressure, %object
  51              		.size	Pressure, 4
  52              	Pressure:
  53 0010 00000000 		.space	4
  54              		.global	temp_humi
  55              		.align	2
  56              		.type	temp_humi, %object
  57              		.size	temp_humi, 4
ARM GAS  C:\Users\d4hhm\AppData\Local\Temp\cceRi99j.s 			page 2


  58              	temp_humi:
  59 0014 00000000 		.space	4
  60              		.comm	capsense_value,2,2
  61              		.global	__aeabi_fdiv
  62              		.global	__aeabi_fsub
  63              		.global	__aeabi_f2iz
  64              		.section	.text.Wdt_Callback,"ax",%progbits
  65              		.align	2
  66              		.global	Wdt_Callback
  67              		.code	16
  68              		.thumb_func
  69              		.type	Wdt_Callback, %function
  70              	Wdt_Callback:
  71              	.LFB36:
  72              		.file 1 "main.c"
   1:main.c        **** /* ========================================
   2:main.c        ****  *
   3:main.c        ****  * Copyright YOUR COMPANY, THE YEAR
   4:main.c        ****  * All Rights Reserved
   5:main.c        ****  * UNPUBLISHED, LICENSED SOFTWARE.
   6:main.c        ****  *
   7:main.c        ****  * CONFIDENTIAL AND PROPRIETARY INFORMATION
   8:main.c        ****  * WHICH IS THE PROPERTY OF your company.
   9:main.c        ****  *
  10:main.c        ****  * ========================================
  11:main.c        **** */
  12:main.c        **** #include <project.h>
  13:main.c        **** #include <stdio.h>
  14:main.c        **** #include "BME280.h"
  15:main.c        **** #include "VL6180x.h"
  16:main.c        **** 
  17:main.c        **** #define MAJOR_OFFSET_Temp_Humi (25u)
  18:main.c        **** #define MAJOR_OFFSET_Press (26u)
  19:main.c        **** #define MINOR_OFFSET_IR (27u)
  20:main.c        **** #define MINOR_OFFSET_Capsense (28u)
  21:main.c        **** 
  22:main.c        **** // BLE ã®åˆæœŸåŒ–çµ‚äº†ãƒ•ãƒ©ã‚°
  23:main.c        **** uint8   initialized = 0;
  24:main.c        **** 
  25:main.c        **** // ã‚½ãƒ•ãƒˆã‚¦ã‚§ã‚¢ã‚¿ã‚¤ãƒã®ã‚«ã‚¦ãƒ³ã‚¿
  26:main.c        **** uint8   tick = 0;
  27:main.c        **** 
  28:main.c        **** /*ã‚°ãƒ­ãƒ¼ãƒãƒ«å¤‰æ•°ã§å®£è¨€ã•ã‚ŒãŸå€¤ã‚’callbacké–¢æ•°ã§ä½¿ã†ã“ã¨ã§Initializeã®å‰ã«r
  29:main.c        **** 
  30:main.c        **** //æœ€çµ‚çš„ãªrangeã®å€¤
  31:main.c        **** int range_value=0;
  32:main.c        **** int TempC = 0,Humidity = 0;
  33:main.c        **** float Pressure=0;
  34:main.c        **** int temp_humi=0;
  35:main.c        **** //æœ€çµ‚çš„ãªcapsenseã®å€¤ãŒæ ¼ç´ã•ã‚Œã‚‹
  36:main.c        **** uint16 capsense_value;
  37:main.c        **** 
  38:main.c        **** // 500msã”ã¨ã« Advertisement ãƒ‘ã‚±ãƒƒãƒˆã‚’é–‹å§‹ãƒ»åœæ­¢ã™ã‚‹
  39:main.c        **** void Wdt_Callback(void) {
  73              		.loc 1 39 0
  74              		.cfi_startproc
  75              		@ args = 0, pretend = 0, frame = 8
ARM GAS  C:\Users\d4hhm\AppData\Local\Temp\cceRi99j.s 			page 3


  76              		@ frame_needed = 1, uses_anonymous_args = 0
  77 0000 80B5     		push	{r7, lr}
  78              		.cfi_def_cfa_offset 8
  79              		.cfi_offset 7, -8
  80              		.cfi_offset 14, -4
  81 0002 82B0     		sub	sp, sp, #8
  82              		.cfi_def_cfa_offset 16
  83 0004 00AF     		add	r7, sp, #0
  84              		.cfi_def_cfa_register 7
  40:main.c        ****     int Pressure_int;
  41:main.c        ****     
  42:main.c        ****     if (initialized) {
  85              		.loc 1 42 0
  86 0006 3A4B     		ldr	r3, .L10
  87 0008 1B78     		ldrb	r3, [r3]
  88 000a 002B     		cmp	r3, #0
  89 000c 6CD0     		beq	.L9
  43:main.c        ****         // åˆæœŸåŒ–ãŒã•ã‚ŒãŸ
  44:main.c        ****         if (tick == 0) {
  90              		.loc 1 44 0
  91 000e 394B     		ldr	r3, .L10+4
  92 0010 1B78     		ldrb	r3, [r3]
  93 0012 002B     		cmp	r3, #0
  94 0014 63D1     		bne	.L3
  45:main.c        ****             // æœ€åˆã®500msã§ Advertisement ãƒ‘ã‚±ãƒƒãƒˆã‚’é€ä¿¡ã™ã‚‹
  46:main.c        ****            
  47:main.c        ****             capsense_value = CapSense_1_ReadSensorRaw(0);//mainé–¢æ•°å†…ã§å®Ÿè¡Œã™ã‚‹ã¨ã†ã¾ã
  95              		.loc 1 47 0
  96 0016 0020     		movs	r0, #0
  97 0018 FFF7FEFF 		bl	CapSense_1_ReadSensorRaw
  98 001c 0300     		movs	r3, r0
  99 001e 1A00     		movs	r2, r3
 100 0020 354B     		ldr	r3, .L10+8
 101 0022 1A80     		strh	r2, [r3]
  48:main.c        ****             
  49:main.c        ****             /* Major ãƒ•ã‚£ãƒ¼ãƒ«ãƒ‰ã®è¨­å®š--------------------------------------------*/
  50:main.c        ****             Pressure_int=(Pressure/100)-900;
 102              		.loc 1 50 0
 103 0024 354B     		ldr	r3, .L10+12
 104 0026 1B68     		ldr	r3, [r3]
 105 0028 3549     		ldr	r1, .L10+16
 106 002a 181C     		adds	r0, r3, #0
 107 002c FFF7FEFF 		bl	__aeabi_fdiv
 108 0030 031C     		adds	r3, r0, #0
 109 0032 3449     		ldr	r1, .L10+20
 110 0034 181C     		adds	r0, r3, #0
 111 0036 FFF7FEFF 		bl	__aeabi_fsub
 112 003a 031C     		adds	r3, r0, #0
 113 003c 181C     		adds	r0, r3, #0
 114 003e FFF7FEFF 		bl	__aeabi_f2iz
 115 0042 0300     		movs	r3, r0
 116 0044 7B60     		str	r3, [r7, #4]
  51:main.c        ****             cyBle_discoveryData.advData[MAJOR_OFFSET_Press] = Pressure_int;
 117              		.loc 1 51 0
 118 0046 7B68     		ldr	r3, [r7, #4]
 119 0048 DAB2     		uxtb	r2, r3
 120 004a 2F4B     		ldr	r3, .L10+24
ARM GAS  C:\Users\d4hhm\AppData\Local\Temp\cceRi99j.s 			page 4


 121 004c 9A76     		strb	r2, [r3, #26]
  52:main.c        ****             /*Tempã¨Humiã®å€¤ãŒç¯„å›²å†…ã«åã¾ã‚‹ã‚ˆã†ã«èª¿æ•´----*/
  53:main.c        ****             //Tempã®å€¤ã‚’èª¿æ•´
  54:main.c        ****             if(TempC<10){
 122              		.loc 1 54 0
 123 004e 2F4B     		ldr	r3, .L10+28
 124 0050 1B68     		ldr	r3, [r3]
 125 0052 092B     		cmp	r3, #9
 126 0054 03DC     		bgt	.L4
  55:main.c        ****                 TempC=10;   
 127              		.loc 1 55 0
 128 0056 2D4B     		ldr	r3, .L10+28
 129 0058 0A22     		movs	r2, #10
 130 005a 1A60     		str	r2, [r3]
 131 005c 06E0     		b	.L5
 132              	.L4:
  56:main.c        ****             }else if(TempC>42){
 133              		.loc 1 56 0
 134 005e 2B4B     		ldr	r3, .L10+28
 135 0060 1B68     		ldr	r3, [r3]
 136 0062 2A2B     		cmp	r3, #42
 137 0064 02DD     		ble	.L5
  57:main.c        ****                 TempC=42;   
 138              		.loc 1 57 0
 139 0066 294B     		ldr	r3, .L10+28
 140 0068 2A22     		movs	r2, #42
 141 006a 1A60     		str	r2, [r3]
 142              	.L5:
  58:main.c        ****             }
  59:main.c        ****             //Humiã®å€¤ã‚’èª¿æ•´
  60:main.c        ****             if(Humidity<20){
 143              		.loc 1 60 0
 144 006c 284B     		ldr	r3, .L10+32
 145 006e 1B68     		ldr	r3, [r3]
 146 0070 132B     		cmp	r3, #19
 147 0072 03DC     		bgt	.L6
  61:main.c        ****                 Humidity=20;   
 148              		.loc 1 61 0
 149 0074 264B     		ldr	r3, .L10+32
 150 0076 1422     		movs	r2, #20
 151 0078 1A60     		str	r2, [r3]
 152 007a 06E0     		b	.L7
 153              	.L6:
  62:main.c        ****             }else if(Humidity>84){
 154              		.loc 1 62 0
 155 007c 244B     		ldr	r3, .L10+32
 156 007e 1B68     		ldr	r3, [r3]
 157 0080 542B     		cmp	r3, #84
 158 0082 02DD     		ble	.L7
  63:main.c        ****                 Humidity=84;  
 159              		.loc 1 63 0
 160 0084 224B     		ldr	r3, .L10+32
 161 0086 5422     		movs	r2, #84
 162 0088 1A60     		str	r2, [r3]
 163              	.L7:
  64:main.c        ****             }
  65:main.c        ****             /*---------------------------------------*/
ARM GAS  C:\Users\d4hhm\AppData\Local\Temp\cceRi99j.s 			page 5


  66:main.c        ****             temp_humi=((TempC-10)<<3)|((Humidity-20)/2);//ï¼’ã¤ã®å€¤ã‚’åˆã‚ã›ã¦8bitã«ã™ã‚‹
 164              		.loc 1 66 0
 165 008a 204B     		ldr	r3, .L10+28
 166 008c 1B68     		ldr	r3, [r3]
 167 008e 0A3B     		subs	r3, r3, #10
 168 0090 DA00     		lsls	r2, r3, #3
 169 0092 1F4B     		ldr	r3, .L10+32
 170 0094 1B68     		ldr	r3, [r3]
 171 0096 143B     		subs	r3, r3, #20
 172 0098 002B     		cmp	r3, #0
 173 009a 00DA     		bge	.L8
 174 009c 0133     		adds	r3, r3, #1
 175              	.L8:
 176 009e 5B10     		asrs	r3, r3, #1
 177 00a0 1A43     		orrs	r2, r3
 178 00a2 1C4B     		ldr	r3, .L10+36
 179 00a4 1A60     		str	r2, [r3]
  67:main.c        ****             cyBle_discoveryData.advData[MAJOR_OFFSET_Temp_Humi]=temp_humi;
 180              		.loc 1 67 0
 181 00a6 1B4B     		ldr	r3, .L10+36
 182 00a8 1B68     		ldr	r3, [r3]
 183 00aa DAB2     		uxtb	r2, r3
 184 00ac 164B     		ldr	r3, .L10+24
 185 00ae 5A76     		strb	r2, [r3, #25]
  68:main.c        **** 
  69:main.c        ****             /* ---------------------------------------------------------------*/
  70:main.c        ****             
  71:main.c        **** 
  72:main.c        ****             /* Minor ãƒ•ã‚£ãƒ¼ãƒ«ãƒ‰ã®è¨­å®š--------------------------------------------*/
  73:main.c        ****             
  74:main.c        ****             cyBle_discoveryData.advData[MINOR_OFFSET_Capsense] = capsense_value;
 186              		.loc 1 74 0
 187 00b0 114B     		ldr	r3, .L10+8
 188 00b2 1B88     		ldrh	r3, [r3]
 189 00b4 DAB2     		uxtb	r2, r3
 190 00b6 144B     		ldr	r3, .L10+24
 191 00b8 1A77     		strb	r2, [r3, #28]
  75:main.c        ****             
  76:main.c        ****             cyBle_discoveryData.advData[MINOR_OFFSET_IR] = range_value;
 192              		.loc 1 76 0
 193 00ba 174B     		ldr	r3, .L10+40
 194 00bc 1B68     		ldr	r3, [r3]
 195 00be DAB2     		uxtb	r2, r3
 196 00c0 114B     		ldr	r3, .L10+24
 197 00c2 DA76     		strb	r2, [r3, #27]
  77:main.c        **** 
  78:main.c        ****             /* ---------------------------------------------------------------*/
  79:main.c        ****             
  80:main.c        ****             // Advertisement ãƒ‘ã‚±ãƒƒãƒˆã®é€ä¿¡ã‚’é–‹å§‹ã™ã‚‹
  81:main.c        ****             CyBle_GappStartAdvertisement(CYBLE_ADVERTISING_FAST);
 198              		.loc 1 81 0
 199 00c4 0020     		movs	r0, #0
 200 00c6 FFF7FEFF 		bl	CyBle_GappStartAdvertisement
  82:main.c        ****             tick = 1;
 201              		.loc 1 82 0
 202 00ca 0A4B     		ldr	r3, .L10+4
 203 00cc 0122     		movs	r2, #1
ARM GAS  C:\Users\d4hhm\AppData\Local\Temp\cceRi99j.s 			page 6


 204 00ce 1A70     		strb	r2, [r3]
  83:main.c        ****             range_value=0;
 205              		.loc 1 83 0
 206 00d0 114B     		ldr	r3, .L10+40
 207 00d2 0022     		movs	r2, #0
 208 00d4 1A60     		str	r2, [r3]
  84:main.c        ****             capsense_value=0;
 209              		.loc 1 84 0
 210 00d6 084B     		ldr	r3, .L10+8
 211 00d8 0022     		movs	r2, #0
 212 00da 1A80     		strh	r2, [r3]
  85:main.c        ****         } else {
  86:main.c        ****             // æ¬¡ã®500msã§ Advertisement ãƒã‚±ãƒƒãƒˆã®é€ä¿¡ã‚’æ­¢ã‚ã‚‹
  87:main.c        ****             CyBle_GappStopAdvertisement();
  88:main.c        ****             tick = 0;
  89:main.c        ****         }
  90:main.c        ****     }
  91:main.c        **** }
 213              		.loc 1 91 0
 214 00dc 04E0     		b	.L9
 215              	.L3:
  87:main.c        ****             tick = 0;
 216              		.loc 1 87 0
 217 00de FFF7FEFF 		bl	CyBle_GappStopAdvertisement
  88:main.c        ****         }
 218              		.loc 1 88 0
 219 00e2 044B     		ldr	r3, .L10+4
 220 00e4 0022     		movs	r2, #0
 221 00e6 1A70     		strb	r2, [r3]
 222              	.L9:
 223              		.loc 1 91 0
 224 00e8 C046     		nop
 225 00ea BD46     		mov	sp, r7
 226 00ec 02B0     		add	sp, sp, #8
 227              		@ sp needed
 228 00ee 80BD     		pop	{r7, pc}
 229              	.L11:
 230              		.align	2
 231              	.L10:
 232 00f0 00000000 		.word	initialized
 233 00f4 00000000 		.word	tick
 234 00f8 00000000 		.word	capsense_value
 235 00fc 00000000 		.word	Pressure
 236 0100 0000C842 		.word	1120403456
 237 0104 00006144 		.word	1147207680
 238 0108 00000000 		.word	cyBle_discoveryData
 239 010c 00000000 		.word	TempC
 240 0110 00000000 		.word	Humidity
 241 0114 00000000 		.word	temp_humi
 242 0118 00000000 		.word	range_value
 243              		.cfi_endproc
 244              	.LFE36:
 245              		.size	Wdt_Callback, .-Wdt_Callback
 246              		.section	.text.StackEventHandler,"ax",%progbits
 247              		.align	2
 248              		.global	StackEventHandler
 249              		.code	16
ARM GAS  C:\Users\d4hhm\AppData\Local\Temp\cceRi99j.s 			page 7


 250              		.thumb_func
 251              		.type	StackEventHandler, %function
 252              	StackEventHandler:
 253              	.LFB37:
  92:main.c        **** 
  93:main.c        **** 
  94:main.c        **** 
  95:main.c        **** // BLE ã‚¹ã‚¿ãƒƒã‚¯ã®å‡¦ç†ãƒãƒ³ãƒ‰ãƒ©
  96:main.c        **** void StackEventHandler(uint32 event, void *eventParam) {
 254              		.loc 1 96 0
 255              		.cfi_startproc
 256              		@ args = 0, pretend = 0, frame = 8
 257              		@ frame_needed = 1, uses_anonymous_args = 0
 258 0000 80B5     		push	{r7, lr}
 259              		.cfi_def_cfa_offset 8
 260              		.cfi_offset 7, -8
 261              		.cfi_offset 14, -4
 262 0002 82B0     		sub	sp, sp, #8
 263              		.cfi_def_cfa_offset 16
 264 0004 00AF     		add	r7, sp, #0
 265              		.cfi_def_cfa_register 7
 266 0006 7860     		str	r0, [r7, #4]
 267 0008 3960     		str	r1, [r7]
  97:main.c        ****     switch (event) {
 268              		.loc 1 97 0
 269 000a 7B68     		ldr	r3, [r7, #4]
 270 000c 012B     		cmp	r3, #1
 271 000e 02D0     		beq	.L14
 272 0010 282B     		cmp	r3, #40
 273 0012 00D0     		beq	.L14
  98:main.c        ****         // ã‚¹ã‚¿ãƒƒã‚¯ãŒç«‹ã¡ã‚ãŒã£ãŸã¾ãŸã¯ãƒ‡ãƒã‚¤ã‚¹ãŒåˆ‡æ–­ã•ã‚ŒãŸã‚‰åˆæœŸåŒ–çµ‚ä
  99:main.c        ****         case CYBLE_EVT_STACK_ON:
 100:main.c        ****         case CYBLE_EVT_GAP_DEVICE_DISCONNECTED:
 101:main.c        ****             initialized = 1;
 102:main.c        ****             break;
 103:main.c        ****         // ãã‚Œä»¥å¤–ã®ã‚¤ãƒ™ãƒ³ãƒˆã¯ç„¡è¦–ã™ã‚‹
 104:main.c        ****         default:
 105:main.c        ****             break;
 274              		.loc 1 105 0
 275 0014 03E0     		b	.L15
 276              	.L14:
 101:main.c        ****             break;
 277              		.loc 1 101 0
 278 0016 044B     		ldr	r3, .L16
 279 0018 0122     		movs	r2, #1
 280 001a 1A70     		strb	r2, [r3]
 102:main.c        ****         // ãã‚Œä»¥å¤–ã®ã‚¤ãƒ™ãƒ³ãƒˆã¯ç„¡è¦–ã™ã‚‹
 281              		.loc 1 102 0
 282 001c C046     		nop
 283              	.L15:
 106:main.c        ****     }
 107:main.c        **** }
 284              		.loc 1 107 0
 285 001e C046     		nop
 286 0020 BD46     		mov	sp, r7
 287 0022 02B0     		add	sp, sp, #8
 288              		@ sp needed
ARM GAS  C:\Users\d4hhm\AppData\Local\Temp\cceRi99j.s 			page 8


 289 0024 80BD     		pop	{r7, pc}
 290              	.L17:
 291 0026 C046     		.align	2
 292              	.L16:
 293 0028 00000000 		.word	initialized
 294              		.cfi_endproc
 295              	.LFE37:
 296              		.size	StackEventHandler, .-StackEventHandler
 297              		.section	.text.main,"ax",%progbits
 298              		.align	2
 299              		.global	main
 300              		.code	16
 301              		.thumb_func
 302              		.type	main, %function
 303              	main:
 304              	.LFB38:
 108:main.c        **** 
 109:main.c        **** int main() {
 305              		.loc 1 109 0
 306              		.cfi_startproc
 307              		@ args = 0, pretend = 0, frame = 8
 308              		@ frame_needed = 1, uses_anonymous_args = 0
 309 0000 90B5     		push	{r4, r7, lr}
 310              		.cfi_def_cfa_offset 12
 311              		.cfi_offset 4, -12
 312              		.cfi_offset 7, -8
 313              		.cfi_offset 14, -4
 314 0002 83B0     		sub	sp, sp, #12
 315              		.cfi_def_cfa_offset 24
 316 0004 00AF     		add	r7, sp, #0
 317              		.cfi_def_cfa_register 7
 110:main.c        ****     CYBLE_API_RESULT_T apiResult;// ã‚¨ãƒ©ãƒ¼ã‚³ãƒ¼ãƒ‰
 111:main.c        **** 
 112:main.c        ****     // å‰²ã‚Šè¾¼ã¿ã‚’è¨±å¯ã™ã‚‹
 113:main.c        ****     CyGlobalIntEnable;
 318              		.loc 1 113 0
 319              		.syntax divided
 320              	@ 113 "main.c" 1
 321 0006 62B6     		CPSIE   i
 322              	@ 0 "" 2
 114:main.c        ****     
 115:main.c        ****     // ä½é€Ÿã‚¿ã‚¤ãƒ Timer0 ã®ã‚³ãƒ¼ãƒ«ãƒãƒƒã‚¯é–¢æ•°ã‚’è¨­å®šã™ã‚‹
 116:main.c        ****     CySysWdtSetInterruptCallback(CY_SYS_WDT_COUNTER0, Wdt_Callback);
 323              		.loc 1 116 0
 324              		.thumb
 325              		.syntax unified
 326 0008 2C4B     		ldr	r3, .L23
 327 000a 1900     		movs	r1, r3
 328 000c 0020     		movs	r0, #0
 329 000e FFF7FEFF 		bl	CySysWdtSetInterruptCallback
 117:main.c        **** 
 118:main.c        ****     // BLE ãƒ‡ãƒã‚¤ã‚¹ã®åˆæœŸåŒ–ã‚’è¡Œã†
 119:main.c        ****     apiResult = CyBle_Start(StackEventHandler);
 330              		.loc 1 119 0
 331 0012 BC1D     		adds	r4, r7, #6
 332 0014 2A4B     		ldr	r3, .L23+4
 333 0016 1800     		movs	r0, r3
ARM GAS  C:\Users\d4hhm\AppData\Local\Temp\cceRi99j.s 			page 9


 334 0018 FFF7FEFF 		bl	CyBle_Start
 335 001c 0300     		movs	r3, r0
 336 001e 2380     		strh	r3, [r4]
 120:main.c        **** 
 121:main.c        ****     // åˆæœŸåŒ–ãŒæ­£å¸¸ã«çµ‚ã‚ã£ãŸã‹ã‚’ç¢ºèªã™ã‚‹
 122:main.c        ****     CYASSERT(apiResult == CYBLE_ERROR_OK);
 337              		.loc 1 122 0
 338 0020 BB1D     		adds	r3, r7, #6
 339 0022 1B88     		ldrh	r3, [r3]
 340 0024 002B     		cmp	r3, #0
 341 0026 02D0     		beq	.L19
 342              		.loc 1 122 0 is_stmt 0 discriminator 1
 343 0028 0020     		movs	r0, #0
 344 002a FFF7FEFF 		bl	CyHalt
 345              	.L19:
 123:main.c        **** 
 124:main.c        ****     CapSense_1_Start();//CapScanON
 346              		.loc 1 124 0 is_stmt 1
 347 002e FFF7FEFF 		bl	CapSense_1_Start
 125:main.c        ****     CapSense_1_InitializeAllBaselines();//é™é›»å®¹é‡ã®åˆæœŸåŒ–
 348              		.loc 1 125 0
 349 0032 FFF7FEFF 		bl	CapSense_1_InitializeAllBaselines
 126:main.c        ****     CapSense_1_ScanEnabledWidgets();//ä¸€åº¦ã™ã¹ã¦ã‚¹ã‚­ãƒ£ãƒ³
 350              		.loc 1 126 0
 351 0036 FFF7FEFF 		bl	CapSense_1_ScanEnabledWidgets
 127:main.c        ****     while(CapSense_1_IsBusy() != 0);//ã‚»ãƒ³ã‚µãƒ¼ã®ã‚¹ã‚­ãƒ£ãƒ³ãŒå®Œäº†ã™ã‚‹ã¾ã§å¾…ã¤
 352              		.loc 1 127 0
 353 003a C046     		nop
 354              	.L20:
 355              		.loc 1 127 0 is_stmt 0 discriminator 1
 356 003c FFF7FEFF 		bl	CapSense_1_IsBusy
 357 0040 031E     		subs	r3, r0, #0
 358 0042 FBD1     		bne	.L20
 128:main.c        ****    
 129:main.c        ****     /*I2Cã‚’Start,VL6180xã¨BME280ã‚’åˆæœŸåŒ–--------------------------------------*/
 130:main.c        ****     SCB_1_Start();
 359              		.loc 1 130 0 is_stmt 1
 360 0044 FFF7FEFF 		bl	SCB_1_Start
 131:main.c        ****     //BME280_start();
 132:main.c        ****     CyDelay(10u);//å¿…è¦ã‹ï¼Ÿ
 361              		.loc 1 132 0
 362 0048 0A20     		movs	r0, #10
 363 004a FFF7FEFF 		bl	CyDelay
 133:main.c        ****     VL6180_Init();
 364              		.loc 1 133 0
 365 004e FFF7FEFF 		bl	VL6180_Init
 134:main.c        ****     BME280_init();
 366              		.loc 1 134 0
 367 0052 FFF7FEFF 		bl	BME280_init
 368              	.L22:
 135:main.c        **** 
 136:main.c        ****     /*----------------------------------------------------------------------*/
 137:main.c        ****     
 138:main.c        ****     for(;;){
 139:main.c        ****        
 140:main.c        ****         CapSense_1_UpdateEnabledBaselines();//ã‚»ãƒ³ã‚µãƒ¼ã®æœ€ä½å€¤ã‚’æ›´æ–°
 369              		.loc 1 140 0
ARM GAS  C:\Users\d4hhm\AppData\Local\Temp\cceRi99j.s 			page 10


 370 0056 FFF7FEFF 		bl	CapSense_1_UpdateEnabledBaselines
 141:main.c        ****         CapSense_1_ScanEnabledWidgets();//ã‚»ãƒ³ã‚µãƒ¼ã‚’ã‚¹ã‚­ãƒ£ãƒ³ã™ã‚‹
 371              		.loc 1 141 0
 372 005a FFF7FEFF 		bl	CapSense_1_ScanEnabledWidgets
 142:main.c        ****         while(CapSense_1_IsBusy() != 0);//ã‚»ãƒ³ã‚µãƒ¼ã®ã‚¹ã‚­ãƒ£ãƒ³ãŒå®Œäº†ã™ã‚‹ã¾ã§å¾…ã¤
 373              		.loc 1 142 0
 374 005e C046     		nop
 375              	.L21:
 376              		.loc 1 142 0 is_stmt 0 discriminator 1
 377 0060 FFF7FEFF 		bl	CapSense_1_IsBusy
 378 0064 031E     		subs	r3, r0, #0
 379 0066 FBD1     		bne	.L21
 143:main.c        ****         
 144:main.c        ****         BME280_init();
 380              		.loc 1 144 0 is_stmt 1
 381 0068 FFF7FEFF 		bl	BME280_init
 145:main.c        ****         VL6180_Init();
 382              		.loc 1 145 0
 383 006c FFF7FEFF 		bl	VL6180_Init
 146:main.c        ****         VL6180_Start_Range();
 384              		.loc 1 146 0
 385 0070 FFF7FEFF 		bl	VL6180_Start_Range
 147:main.c        ****         VL6180_Poll_Range();
 386              		.loc 1 147 0
 387 0074 FFF7FEFF 		bl	VL6180_Poll_Range
 148:main.c        **** 
 149:main.c        ****         /*VL6180xã‹ã‚‰ã®å€¤ã‚’èª­ã¿è¾¼ã‚€----------------------------------------------*/
 150:main.c        ****         range_value = VL6180_Read_Range();
 388              		.loc 1 150 0
 389 0078 FFF7FEFF 		bl	VL6180_Read_Range
 390 007c 0200     		movs	r2, r0
 391 007e 114B     		ldr	r3, .L23+8
 392 0080 1A60     		str	r2, [r3]
 151:main.c        **** 
 152:main.c        ****         /*--------------------------------------------------------------------*/
 153:main.c        ****         
 154:main.c        ****         VL6180_Clear_Interrupts();
 393              		.loc 1 154 0
 394 0082 FFF7FEFF 		bl	VL6180_Clear_Interrupts
 155:main.c        **** 
 156:main.c        ****         /*BME280ã‹ã‚‰ã®å€¤ã‚’èª­ã¿è¾¼ã‚€----------------------------------------------*/
 157:main.c        ****         TempC = BME280_readTempC();//æ¸©åº¦ã‚’å…¥ã‚Œã‚‹
 395              		.loc 1 157 0
 396 0086 FFF7FEFF 		bl	BME280_readTempC
 397 008a 031C     		adds	r3, r0, #0
 398 008c 181C     		adds	r0, r3, #0
 399 008e FFF7FEFF 		bl	__aeabi_f2iz
 400 0092 0200     		movs	r2, r0
 401 0094 0C4B     		ldr	r3, .L23+12
 402 0096 1A60     		str	r2, [r3]
 158:main.c        ****         Pressure = BME280_readFloatPressure();//æ°—åœ§ã‚’å…¥ã‚Œã‚‹
 403              		.loc 1 158 0
 404 0098 FFF7FEFF 		bl	BME280_readFloatPressure
 405 009c 021C     		adds	r2, r0, #0
 406 009e 0B4B     		ldr	r3, .L23+16
 407 00a0 1A60     		str	r2, [r3]
 159:main.c        ****         Humidity = BME280_readFloatHumidity();//æ¹¿åº¦ã‚’å…¥ã‚Œã‚‹
ARM GAS  C:\Users\d4hhm\AppData\Local\Temp\cceRi99j.s 			page 11


 408              		.loc 1 159 0
 409 00a2 FFF7FEFF 		bl	BME280_readFloatHumidity
 410 00a6 031C     		adds	r3, r0, #0
 411 00a8 181C     		adds	r0, r3, #0
 412 00aa FFF7FEFF 		bl	__aeabi_f2iz
 413 00ae 0200     		movs	r2, r0
 414 00b0 074B     		ldr	r3, .L23+20
 415 00b2 1A60     		str	r2, [r3]
 160:main.c        ****          /*------------------------------------------------------------------*/
 161:main.c        **** 
 162:main.c        ****         // BLE ã‚¹ã‚¿ãƒƒã‚¯ã¸ã®ã‚¤ãƒ™ãƒ³ãƒˆã‚’å‡¦ç†ã™ã‚‹
 163:main.c        ****         CyBle_ProcessEvents();
 416              		.loc 1 163 0
 417 00b4 FFF7FEFF 		bl	CyBle_ProcessEvents
 164:main.c        ****         
 165:main.c        ****     }
 418              		.loc 1 165 0
 419 00b8 CDE7     		b	.L22
 420              	.L24:
 421 00ba C046     		.align	2
 422              	.L23:
 423 00bc 00000000 		.word	Wdt_Callback
 424 00c0 00000000 		.word	StackEventHandler
 425 00c4 00000000 		.word	range_value
 426 00c8 00000000 		.word	TempC
 427 00cc 00000000 		.word	Pressure
 428 00d0 00000000 		.word	Humidity
 429              		.cfi_endproc
 430              	.LFE38:
 431              		.size	main, .-main
 432              		.text
 433              	.Letext0:
 434              		.file 2 "Generated_Source\\PSoC4/cytypes.h"
 435              		.file 3 "Generated_Source\\PSoC4/BLE_1_Stack.h"
 436              		.file 4 "Generated_Source\\PSoC4/BLE_1_StackGap.h"
 437              		.file 5 "Generated_Source\\PSoC4/BLE_1.h"